
PIC_PROG.elf:     file format elf32-avr

Sections:
Idx Name          Size      VMA       LMA       File off  Algn
  0 .data         00000066  00800100  00003ab8  00003b4c  2**0
                  CONTENTS, ALLOC, LOAD, DATA
  1 .text         00003ab8  00000000  00000000  00000094  2**1
                  CONTENTS, ALLOC, LOAD, READONLY, CODE
  2 .bss          000001b2  00800166  00800166  00003bb2  2**0
                  ALLOC
  3 .stab         00007cec  00000000  00000000  00003bb4  2**2
                  CONTENTS, READONLY, DEBUGGING
  4 .stabstr      0000186d  00000000  00000000  0000b8a0  2**0
                  CONTENTS, READONLY, DEBUGGING
  5 .comment      00000030  00000000  00000000  0000d10d  2**0
                  CONTENTS, READONLY
  6 .note.gnu.avr.deviceinfo 00000040  00000000  00000000  0000d140  2**2
                  CONTENTS, READONLY
  7 .debug_info   000005f4  00000000  00000000  0000d180  2**0
                  CONTENTS, READONLY, DEBUGGING
  8 .debug_abbrev 000005a2  00000000  00000000  0000d774  2**0
                  CONTENTS, READONLY, DEBUGGING
  9 .debug_line   0000001a  00000000  00000000  0000dd16  2**0
                  CONTENTS, READONLY, DEBUGGING
 10 .debug_str    00000208  00000000  00000000  0000dd30  2**0
                  CONTENTS, READONLY, DEBUGGING

Disassembly of section .text:

00000000 <__vectors>:
       0:	0c 94 f1 00 	jmp	0x1e2	; 0x1e2 <__ctors_end>
       4:	0c 94 0e 01 	jmp	0x21c	; 0x21c <__bad_interrupt>
       8:	0c 94 0e 01 	jmp	0x21c	; 0x21c <__bad_interrupt>
       c:	0c 94 0e 01 	jmp	0x21c	; 0x21c <__bad_interrupt>
      10:	0c 94 0e 01 	jmp	0x21c	; 0x21c <__bad_interrupt>
      14:	0c 94 0e 01 	jmp	0x21c	; 0x21c <__bad_interrupt>
      18:	0c 94 0e 01 	jmp	0x21c	; 0x21c <__bad_interrupt>
      1c:	0c 94 0e 01 	jmp	0x21c	; 0x21c <__bad_interrupt>
      20:	0c 94 0e 01 	jmp	0x21c	; 0x21c <__bad_interrupt>
      24:	0c 94 0e 01 	jmp	0x21c	; 0x21c <__bad_interrupt>
      28:	0c 94 0e 01 	jmp	0x21c	; 0x21c <__bad_interrupt>
      2c:	0c 94 0e 01 	jmp	0x21c	; 0x21c <__bad_interrupt>
      30:	0c 94 0e 01 	jmp	0x21c	; 0x21c <__bad_interrupt>
      34:	0c 94 0e 01 	jmp	0x21c	; 0x21c <__bad_interrupt>
      38:	0c 94 0e 01 	jmp	0x21c	; 0x21c <__bad_interrupt>
      3c:	0c 94 0e 01 	jmp	0x21c	; 0x21c <__bad_interrupt>
      40:	0c 94 0e 01 	jmp	0x21c	; 0x21c <__bad_interrupt>
      44:	0c 94 0e 01 	jmp	0x21c	; 0x21c <__bad_interrupt>
      48:	0c 94 1a 01 	jmp	0x234	; 0x234 <__vector_18>
      4c:	0c 94 0e 01 	jmp	0x21c	; 0x21c <__bad_interrupt>
      50:	0c 94 0e 01 	jmp	0x21c	; 0x21c <__bad_interrupt>
      54:	0c 94 0e 01 	jmp	0x21c	; 0x21c <__bad_interrupt>
      58:	0c 94 0e 01 	jmp	0x21c	; 0x21c <__bad_interrupt>
      5c:	0c 94 0e 01 	jmp	0x21c	; 0x21c <__bad_interrupt>
      60:	0c 94 0e 01 	jmp	0x21c	; 0x21c <__bad_interrupt>
      64:	0c 94 0e 01 	jmp	0x21c	; 0x21c <__bad_interrupt>
      68:	c4 1a       	sub	r12, r20
      6a:	c4 1a       	sub	r12, r20
      6c:	be 1a       	sub	r11, r30
      6e:	c4 1a       	sub	r12, r20
      70:	be 1a       	sub	r11, r30
      72:	c4 1a       	sub	r12, r20
      74:	c4 1a       	sub	r12, r20
      76:	2f 1d       	adc	r18, r15
      78:	2f 1d       	adc	r18, r15
      7a:	2f 1d       	adc	r18, r15
      7c:	2f 1d       	adc	r18, r15
      7e:	2f 1d       	adc	r18, r15
      80:	be 1a       	sub	r11, r30
      82:	c4 1a       	sub	r12, r20
      84:	c4 1a       	sub	r12, r20
      86:	be 1a       	sub	r11, r30
      88:	c4 1a       	sub	r12, r20
      8a:	c1 1a       	sub	r12, r17
      8c:	c1 1a       	sub	r12, r17
      8e:	c4 1a       	sub	r12, r20
      90:	11 1b       	sub	r17, r17
      92:	d5 1a       	sub	r13, r21
      94:	da 1a       	sub	r13, r26
      96:	df 1a       	sub	r13, r31
      98:	e4 1a       	sub	r14, r20
      9a:	e9 1a       	sub	r14, r25
      9c:	ee 1a       	sub	r14, r30
      9e:	f3 1a       	sub	r15, r19
      a0:	f8 1a       	sub	r15, r24
      a2:	fd 1a       	sub	r15, r29
      a4:	02 1b       	sub	r16, r18
      a6:	07 1b       	sub	r16, r23
      a8:	0c 1b       	sub	r16, r28
      aa:	56 1b       	sub	r21, r22
      ac:	50 1b       	sub	r21, r16
      ae:	4d 1b       	sub	r20, r29
      b0:	50 1b       	sub	r21, r16
      b2:	41 1b       	sub	r20, r17
      b4:	44 1b       	sub	r20, r20
      b6:	47 1b       	sub	r20, r23
      b8:	2f 1d       	adc	r18, r15
      ba:	56 1b       	sub	r21, r22
      bc:	56 1b       	sub	r21, r22
      be:	56 1b       	sub	r21, r22
      c0:	56 1b       	sub	r21, r22
      c2:	4d 1b       	sub	r20, r29
      c4:	4a 1b       	sub	r20, r26
      c6:	50 1b       	sub	r21, r16
      c8:	4d 1b       	sub	r20, r29
      ca:	50 1b       	sub	r21, r16
      cc:	53 1b       	sub	r21, r19
      ce:	53 1b       	sub	r21, r19
      d0:	56 1b       	sub	r21, r22
      d2:	83 1b       	sub	r24, r19
      d4:	71 1b       	sub	r23, r17
      d6:	7a 1b       	sub	r23, r26
      d8:	68 1b       	sub	r22, r24
      da:	6b 1b       	sub	r22, r27
      dc:	6e 1b       	sub	r22, r30
      de:	71 1b       	sub	r23, r17
      e0:	85 1b       	sub	r24, r21
      e2:	74 1b       	sub	r23, r20
      e4:	74 1b       	sub	r23, r20
      e6:	74 1b       	sub	r23, r20
      e8:	74 1b       	sub	r23, r20
      ea:	7a 1b       	sub	r23, r26
      ec:	83 1b       	sub	r24, r19
      ee:	77 1b       	sub	r23, r23
      f0:	7a 1b       	sub	r23, r26
      f2:	7d 1b       	sub	r23, r29
      f4:	80 1b       	sub	r24, r16
      f6:	80 1b       	sub	r24, r16
      f8:	83 1b       	sub	r24, r19
      fa:	a6 1b       	sub	r26, r22
      fc:	a6 1b       	sub	r26, r22
      fe:	a0 1b       	sub	r26, r16
     100:	a6 1b       	sub	r26, r22
     102:	a0 1b       	sub	r26, r16
     104:	a6 1b       	sub	r26, r22
     106:	a6 1b       	sub	r26, r22
     108:	2f 1d       	adc	r18, r15
     10a:	9d 1b       	sub	r25, r29
     10c:	9d 1b       	sub	r25, r29
     10e:	9d 1b       	sub	r25, r29
     110:	9d 1b       	sub	r25, r29
     112:	2f 1d       	adc	r18, r15
     114:	a6 1b       	sub	r26, r22
     116:	a6 1b       	sub	r26, r22
     118:	a0 1b       	sub	r26, r16
     11a:	a6 1b       	sub	r26, r22
     11c:	a3 1b       	sub	r26, r19
     11e:	a3 1b       	sub	r26, r19
     120:	a6 1b       	sub	r26, r22
     122:	cf 1b       	sub	r28, r31
     124:	cf 1b       	sub	r28, r31
     126:	c6 1b       	sub	r28, r22
     128:	ba 1b       	sub	r27, r26
     12a:	bd 1b       	sub	r27, r29
     12c:	c0 1b       	sub	r28, r16
     12e:	c9 1b       	sub	r28, r25
     130:	d1 1b       	sub	r29, r17
     132:	c3 1b       	sub	r28, r19
     134:	c3 1b       	sub	r28, r19
     136:	c3 1b       	sub	r28, r19
     138:	c3 1b       	sub	r28, r19
     13a:	d1 1b       	sub	r29, r17
     13c:	c9 1b       	sub	r28, r25
     13e:	c9 1b       	sub	r28, r25
     140:	c6 1b       	sub	r28, r22
     142:	c9 1b       	sub	r28, r25
     144:	cc 1b       	sub	r28, r28
     146:	cc 1b       	sub	r28, r28
     148:	cf 1b       	sub	r28, r31
     14a:	45 1c       	adc	r4, r5
     14c:	29 1c       	adc	r2, r9
     14e:	3c 1c       	adc	r3, r12
     150:	45 1c       	adc	r4, r5
     152:	3c 1c       	adc	r3, r12
     154:	2c 1c       	adc	r2, r12
     156:	45 1c       	adc	r4, r5
     158:	71 1c       	adc	r7, r1
     15a:	31 1c       	adc	r3, r1
     15c:	31 1c       	adc	r3, r1
     15e:	31 1c       	adc	r3, r1
     160:	31 1c       	adc	r3, r1
     162:	71 1c       	adc	r7, r1
     164:	45 1c       	adc	r4, r5
     166:	45 1c       	adc	r4, r5
     168:	3c 1c       	adc	r3, r12
     16a:	45 1c       	adc	r4, r5
     16c:	3a 1c       	adc	r3, r10
     16e:	45 1c       	adc	r4, r5
     170:	45 1c       	adc	r4, r5
     172:	6f 1c       	adc	r6, r15
     174:	66 1c       	adc	r6, r6
     176:	63 1c       	adc	r6, r3
     178:	57 1c       	adc	r5, r7
     17a:	5a 1c       	adc	r5, r10
     17c:	5d 1c       	adc	r5, r13
     17e:	66 1c       	adc	r6, r6
     180:	71 1c       	adc	r7, r1
     182:	6f 1c       	adc	r6, r15
     184:	6f 1c       	adc	r6, r15
     186:	6f 1c       	adc	r6, r15
     188:	6f 1c       	adc	r6, r15
     18a:	71 1c       	adc	r7, r1
     18c:	66 1c       	adc	r6, r6
     18e:	60 1c       	adc	r6, r0
     190:	63 1c       	adc	r6, r3
     192:	66 1c       	adc	r6, r6
     194:	69 1c       	adc	r6, r9
     196:	6c 1c       	adc	r6, r12
     198:	6f 1c       	adc	r6, r15
     19a:	89 1c       	adc	r8, r9
     19c:	95 1c       	adc	r9, r5
     19e:	89 1c       	adc	r8, r9
     1a0:	95 1c       	adc	r9, r5
     1a2:	89 1c       	adc	r8, r9
     1a4:	9e 1c       	adc	r9, r14
     1a6:	d1 1c       	adc	r13, r1
     1a8:	d1 1c       	adc	r13, r1
     1aa:	d1 1c       	adc	r13, r1
     1ac:	d1 1c       	adc	r13, r1
     1ae:	d1 1c       	adc	r13, r1
     1b0:	d1 1c       	adc	r13, r1
     1b2:	8c 1c       	adc	r8, r12
     1b4:	9e 1c       	adc	r9, r14
     1b6:	95 1c       	adc	r9, r5
     1b8:	9e 1c       	adc	r9, r14
     1ba:	a1 1c       	adc	r10, r1
     1bc:	a7 1c       	adc	r10, r7
     1be:	cc 1c       	adc	r12, r12
     1c0:	c9 1c       	adc	r12, r9
     1c2:	cc 1c       	adc	r12, r12
     1c4:	c0 1c       	adc	r12, r0
     1c6:	cc 1c       	adc	r12, r12
     1c8:	cc 1c       	adc	r12, r12
     1ca:	d1 1c       	adc	r13, r1
     1cc:	d1 1c       	adc	r13, r1
     1ce:	d1 1c       	adc	r13, r1
     1d0:	d1 1c       	adc	r13, r1
     1d2:	d1 1c       	adc	r13, r1
     1d4:	d1 1c       	adc	r13, r1
     1d6:	c3 1c       	adc	r12, r3
     1d8:	c6 1c       	adc	r12, r6
     1da:	c9 1c       	adc	r12, r9
     1dc:	cc 1c       	adc	r12, r12
     1de:	cf 1c       	adc	r12, r15
     1e0:	cf 1c       	adc	r12, r15

000001e2 <__ctors_end>:
     1e2:	11 24       	eor	r1, r1
     1e4:	1f be       	out	0x3f, r1	; 63
     1e6:	cf ef       	ldi	r28, 0xFF	; 255
     1e8:	d8 e0       	ldi	r29, 0x08	; 8
     1ea:	de bf       	out	0x3e, r29	; 62
     1ec:	cd bf       	out	0x3d, r28	; 61

000001ee <__do_copy_data>:
     1ee:	11 e0       	ldi	r17, 0x01	; 1
     1f0:	a0 e0       	ldi	r26, 0x00	; 0
     1f2:	b1 e0       	ldi	r27, 0x01	; 1
     1f4:	e8 eb       	ldi	r30, 0xB8	; 184
     1f6:	fa e3       	ldi	r31, 0x3A	; 58
     1f8:	02 c0       	rjmp	.+4      	; 0x1fe <__do_copy_data+0x10>
     1fa:	05 90       	lpm	r0, Z+
     1fc:	0d 92       	st	X+, r0
     1fe:	a6 36       	cpi	r26, 0x66	; 102
     200:	b1 07       	cpc	r27, r17
     202:	d9 f7       	brne	.-10     	; 0x1fa <__do_copy_data+0xc>

00000204 <__do_clear_bss>:
     204:	23 e0       	ldi	r18, 0x03	; 3
     206:	a6 e6       	ldi	r26, 0x66	; 102
     208:	b1 e0       	ldi	r27, 0x01	; 1
     20a:	01 c0       	rjmp	.+2      	; 0x20e <.do_clear_bss_start>

0000020c <.do_clear_bss_loop>:
     20c:	1d 92       	st	X+, r1

0000020e <.do_clear_bss_start>:
     20e:	a8 31       	cpi	r26, 0x18	; 24
     210:	b2 07       	cpc	r27, r18
     212:	e1 f7       	brne	.-8      	; 0x20c <.do_clear_bss_loop>
     214:	0e 94 60 01 	call	0x2c0	; 0x2c0 <main>
     218:	0c 94 5a 1d 	jmp	0x3ab4	; 0x3ab4 <_exit>

0000021c <__bad_interrupt>:
     21c:	0c 94 00 00 	jmp	0	; 0x0 <__vectors>

00000220 <gpio_init>:

#include "gpio.h"

void gpio_init(void)
{
	PGD_DDR |= (1 << PGD_PIN);
     220:	21 9a       	sbi	0x04, 1	; 4
	PGC_DDR |= (1 << PGC_PIN);
     222:	22 9a       	sbi	0x04, 2	; 4
	PGM_DDR |= (1 << PGM_PIN);
     224:	38 9a       	sbi	0x07, 0	; 7
	VDD_DDR |= (1 << VDD_PIN);
     226:	57 9a       	sbi	0x0a, 7	; 10
	VPP_DDR |= (1 << VPP_PIN);
     228:	56 9a       	sbi	0x0a, 6	; 10
     22a:	08 95       	ret

0000022c <pgd_read>:
}

void pgd_read(void)
{
	PGD_DDR &= ~(1 << PGD_PIN);
     22c:	21 98       	cbi	0x04, 1	; 4
     22e:	08 95       	ret

00000230 <pgd_write>:
}

void pgd_write(void)
{
	PGD_DDR |= (1 << PGD_PIN);
     230:	21 9a       	sbi	0x04, 1	; 4
     232:	08 95       	ret

00000234 <__vector_18>:
uint8_t main_buff[256];
volatile uint8_t read_bsy = 0;


ISR(USART_RX_vect)
{
     234:	1f 92       	push	r1
     236:	0f 92       	push	r0
     238:	0f b6       	in	r0, 0x3f	; 63
     23a:	0f 92       	push	r0
     23c:	11 24       	eor	r1, r1
     23e:	2f 93       	push	r18
     240:	3f 93       	push	r19
     242:	8f 93       	push	r24
     244:	9f 93       	push	r25
     246:	ef 93       	push	r30
     248:	ff 93       	push	r31
	if(!(UCSR0A & ((1 << FE0) | (1 << DOR0) | (1 << UPE0))))
     24a:	80 91 c0 00 	lds	r24, 0x00C0	; 0x8000c0 <__TEXT_REGION_LENGTH__+0x7e00c0>
     24e:	8c 71       	andi	r24, 0x1C	; 28
     250:	61 f5       	brne	.+88     	; 0x2aa <__vector_18+0x76>
	{
		exchange[rx_counter] = UDR0;
     252:	80 91 69 01 	lds	r24, 0x0169	; 0x800169 <rx_counter>
     256:	90 91 c6 00 	lds	r25, 0x00C6	; 0x8000c6 <__TEXT_REGION_LENGTH__+0x7e00c6>
     25a:	e8 2f       	mov	r30, r24
     25c:	f0 e0       	ldi	r31, 0x00	; 0
     25e:	e6 59       	subi	r30, 0x96	; 150
     260:	fd 4f       	sbci	r31, 0xFD	; 253
     262:	90 83       	st	Z, r25
		rx_counter++;
     264:	8f 5f       	subi	r24, 0xFF	; 255
     266:	80 93 69 01 	sts	0x0169, r24	; 0x800169 <rx_counter>
		if(rx_counter == 3) {packet_size = exchange[1];}
     26a:	83 30       	cpi	r24, 0x03	; 3
     26c:	21 f4       	brne	.+8      	; 0x276 <__vector_18+0x42>
     26e:	90 91 6b 02 	lds	r25, 0x026B	; 0x80026b <exchange+0x1>
     272:	90 93 67 01 	sts	0x0167, r25	; 0x800167 <packet_size>
		if((packet_size > 0) && (rx_counter == packet_size + 3))
     276:	20 91 67 01 	lds	r18, 0x0167	; 0x800167 <packet_size>
     27a:	22 23       	and	r18, r18
     27c:	b1 f0       	breq	.+44     	; 0x2aa <__vector_18+0x76>
     27e:	90 e0       	ldi	r25, 0x00	; 0
     280:	30 e0       	ldi	r19, 0x00	; 0
     282:	2d 5f       	subi	r18, 0xFD	; 253
     284:	3f 4f       	sbci	r19, 0xFF	; 255
     286:	82 17       	cp	r24, r18
     288:	93 07       	cpc	r25, r19
     28a:	79 f4       	brne	.+30     	; 0x2aa <__vector_18+0x76>
		{
			rx_counter = 0;
     28c:	10 92 69 01 	sts	0x0169, r1	; 0x800169 <rx_counter>
			packet_size = 0;
     290:	10 92 67 01 	sts	0x0167, r1	; 0x800167 <packet_size>
			if(exchange[2] == 0x3D) read_bsy = 1;
     294:	80 91 6c 02 	lds	r24, 0x026C	; 0x80026c <exchange+0x2>
     298:	8d 33       	cpi	r24, 0x3D	; 61
     29a:	21 f4       	brne	.+8      	; 0x2a4 <__vector_18+0x70>
     29c:	81 e0       	ldi	r24, 0x01	; 1
     29e:	80 93 66 01 	sts	0x0166, r24	; 0x800166 <__data_end>
     2a2:	03 c0       	rjmp	.+6      	; 0x2aa <__vector_18+0x76>
			else full_buff = 1;
     2a4:	81 e0       	ldi	r24, 0x01	; 1
     2a6:	80 93 68 01 	sts	0x0168, r24	; 0x800168 <full_buff>
		}
	}
}
     2aa:	ff 91       	pop	r31
     2ac:	ef 91       	pop	r30
     2ae:	9f 91       	pop	r25
     2b0:	8f 91       	pop	r24
     2b2:	3f 91       	pop	r19
     2b4:	2f 91       	pop	r18
     2b6:	0f 90       	pop	r0
     2b8:	0f be       	out	0x3f, r0	; 63
     2ba:	0f 90       	pop	r0
     2bc:	1f 90       	pop	r1
     2be:	18 95       	reti

000002c0 <main>:


int main(void)
{

	usart_init();
     2c0:	0e 94 33 1d 	call	0x3a66	; 0x3a66 <usart_init>
	gpio_init();
     2c4:	0e 94 10 01 	call	0x220	; 0x220 <gpio_init>

	PGD_LOW
     2c8:	29 98       	cbi	0x05, 1	; 5
	PGC_LOW
     2ca:	2a 98       	cbi	0x05, 2	; 5
	PGM_LOW
     2cc:	40 98       	cbi	0x08, 0	; 8
	VDD_LOW
     2ce:	5f 98       	cbi	0x0b, 7	; 11
	VPP_LOW
     2d0:	5e 98       	cbi	0x0b, 6	; 11

	sei();
     2d2:	78 94       	sei


	while(1)
	{
		if(full_buff)
     2d4:	80 91 68 01 	lds	r24, 0x0168	; 0x800168 <full_buff>
     2d8:	88 23       	and	r24, r24
     2da:	21 f0       	breq	.+8      	; 0x2e4 <main+0x24>
		{
			deassemble_frame();
     2dc:	0e 94 7a 1a 	call	0x34f4	; 0x34f4 <deassemble_frame>
			full_buff = 0;
     2e0:	10 92 68 01 	sts	0x0168, r1	; 0x800168 <full_buff>
		}
		asm(" ");
	}
     2e4:	f7 cf       	rjmp	.-18     	; 0x2d4 <main+0x14>

000002e6 <delay_ms>:
uint16_t oscal1, oscal2, oscal3;


void delay_ms(uint16_t del)
{
	for(int d = 0; d < del; d++) _delay_ms(1);
     2e6:	20 e0       	ldi	r18, 0x00	; 0
     2e8:	30 e0       	ldi	r19, 0x00	; 0
     2ea:	28 17       	cp	r18, r24
     2ec:	39 07       	cpc	r19, r25
     2ee:	49 f0       	breq	.+18     	; 0x302 <delay_ms+0x1c>
	#else
		//round up by default
		__ticks_dc = (uint32_t)(ceil(fabs(__tmp)));
	#endif

	__builtin_avr_delay_cycles(__ticks_dc);
     2f0:	ef e9       	ldi	r30, 0x9F	; 159
     2f2:	ff e0       	ldi	r31, 0x0F	; 15
     2f4:	31 97       	sbiw	r30, 0x01	; 1
     2f6:	f1 f7       	brne	.-4      	; 0x2f4 <delay_ms+0xe>
     2f8:	00 c0       	rjmp	.+0      	; 0x2fa <delay_ms+0x14>
     2fa:	00 00       	nop
     2fc:	2f 5f       	subi	r18, 0xFF	; 255
     2fe:	3f 4f       	sbci	r19, 0xFF	; 255
     300:	f4 cf       	rjmp	.-24     	; 0x2ea <delay_ms+0x4>
}
     302:	08 95       	ret

00000304 <delay_us>:

void delay_us(uint16_t del)
{
	for(int d = 0; d < del; d++) _delay_us(1);
     304:	20 e0       	ldi	r18, 0x00	; 0
     306:	30 e0       	ldi	r19, 0x00	; 0
     308:	28 17       	cp	r18, r24
     30a:	39 07       	cpc	r19, r25
     30c:	39 f0       	breq	.+14     	; 0x31c <delay_us+0x18>
	#else
		//round up by default
		__ticks_dc = (uint32_t)(ceil(fabs(__tmp)));
	#endif

	__builtin_avr_delay_cycles(__ticks_dc);
     30e:	45 e0       	ldi	r20, 0x05	; 5
     310:	4a 95       	dec	r20
     312:	f1 f7       	brne	.-4      	; 0x310 <delay_us+0xc>
     314:	00 00       	nop
     316:	2f 5f       	subi	r18, 0xFF	; 255
     318:	3f 4f       	sbci	r19, 0xFF	; 255
     31a:	f6 cf       	rjmp	.-20     	; 0x308 <delay_us+0x4>
}
     31c:	08 95       	ret

0000031e <p16f7x_progMode>:


void p16f7x_progMode(void)
{
	pgd_write();
     31e:	0e 94 18 01 	call	0x230	; 0x230 <pgd_write>
	  PGM_LOW
     322:	40 98       	cbi	0x08, 0	; 8
	  PGC_LOW
     324:	2a 98       	cbi	0x05, 2	; 5
	  PGD_LOW
     326:	29 98       	cbi	0x05, 1	; 5
     328:	87 ec       	ldi	r24, 0xC7	; 199
     32a:	90 e0       	ldi	r25, 0x00	; 0
     32c:	01 97       	sbiw	r24, 0x01	; 1
     32e:	f1 f7       	brne	.-4      	; 0x32c <p16f7x_progMode+0xe>
     330:	00 c0       	rjmp	.+0      	; 0x332 <p16f7x_progMode+0x14>
     332:	00 00       	nop
	  _delay_us(50);
	  VDD_HIGH
     334:	5f 9a       	sbi	0x0b, 7	; 11
     336:	87 ec       	ldi	r24, 0xC7	; 199
     338:	90 e0       	ldi	r25, 0x00	; 0
     33a:	01 97       	sbiw	r24, 0x01	; 1
     33c:	f1 f7       	brne	.-4      	; 0x33a <p16f7x_progMode+0x1c>
     33e:	00 c0       	rjmp	.+0      	; 0x340 <p16f7x_progMode+0x22>
     340:	00 00       	nop
	  _delay_us(50);
	  VPP_HIGH
     342:	5e 9a       	sbi	0x0b, 6	; 11
	#else
		//round up by default
		__ticks_dc = (uint32_t)(ceil(fabs(__tmp)));
	#endif

	__builtin_avr_delay_cycles(__ticks_dc);
     344:	8f e9       	ldi	r24, 0x9F	; 159
     346:	9f e0       	ldi	r25, 0x0F	; 15
     348:	01 97       	sbiw	r24, 0x01	; 1
     34a:	f1 f7       	brne	.-4      	; 0x348 <p16f7x_progMode+0x2a>
     34c:	00 c0       	rjmp	.+0      	; 0x34e <p16f7x_progMode+0x30>
     34e:	00 00       	nop
     350:	08 95       	ret

00000352 <p16f628A_progMode>:
	  _delay_ms(1);
}

void p16f628A_progMode(void)
{
	pgd_write();
     352:	0e 94 18 01 	call	0x230	; 0x230 <pgd_write>
	  PGM_LOW
     356:	40 98       	cbi	0x08, 0	; 8
	  PGC_LOW
     358:	2a 98       	cbi	0x05, 2	; 5
	  PGD_LOW
     35a:	29 98       	cbi	0x05, 1	; 5
	#else
		//round up by default
		__ticks_dc = (uint32_t)(ceil(fabs(__tmp)));
	#endif

	__builtin_avr_delay_cycles(__ticks_dc);
     35c:	87 ec       	ldi	r24, 0xC7	; 199
     35e:	90 e0       	ldi	r25, 0x00	; 0
     360:	01 97       	sbiw	r24, 0x01	; 1
     362:	f1 f7       	brne	.-4      	; 0x360 <p16f628A_progMode+0xe>
     364:	00 c0       	rjmp	.+0      	; 0x366 <p16f628A_progMode+0x14>
     366:	00 00       	nop
	  _delay_us(50);
	  VPP_HIGH
     368:	5e 9a       	sbi	0x0b, 6	; 11
     36a:	87 ec       	ldi	r24, 0xC7	; 199
     36c:	90 e0       	ldi	r25, 0x00	; 0
     36e:	01 97       	sbiw	r24, 0x01	; 1
     370:	f1 f7       	brne	.-4      	; 0x36e <p16f628A_progMode+0x1c>
     372:	00 c0       	rjmp	.+0      	; 0x374 <p16f628A_progMode+0x22>
     374:	00 00       	nop
	  _delay_us(50);
	  VDD_HIGH
     376:	5f 9a       	sbi	0x0b, 7	; 11
	#else
		//round up by default
		__ticks_dc = (uint32_t)(ceil(fabs(__tmp)));
	#endif

	__builtin_avr_delay_cycles(__ticks_dc);
     378:	8f e3       	ldi	r24, 0x3F	; 63
     37a:	9f e1       	ldi	r25, 0x1F	; 31
     37c:	01 97       	sbiw	r24, 0x01	; 1
     37e:	f1 f7       	brne	.-4      	; 0x37c <p16f628A_progMode+0x2a>
     380:	00 c0       	rjmp	.+0      	; 0x382 <p16f628A_progMode+0x30>
     382:	00 00       	nop
     384:	08 95       	ret

00000386 <p16f7x_writeComm>:
	 _delay_us(20);
	 PGM_HIGH
}

void p16f7x_writeComm(uint8_t comm, uint16_t data, uint8_t shrt)
{
     386:	0f 93       	push	r16
     388:	1f 93       	push	r17
     38a:	cf 93       	push	r28
     38c:	df 93       	push	r29
     38e:	00 d0       	rcall	.+0      	; 0x390 <p16f7x_writeComm+0xa>
     390:	cd b7       	in	r28, 0x3d	; 61
     392:	de b7       	in	r29, 0x3e	; 62
     394:	8b 01       	movw	r16, r22
	pgd_write();
     396:	4a 83       	std	Y+2, r20	; 0x02
     398:	89 83       	std	Y+1, r24	; 0x01
     39a:	0e 94 18 01 	call	0x230	; 0x230 <pgd_write>
	PGD_LOW
     39e:	29 98       	cbi	0x05, 1	; 5
	#else
		//round up by default
		__ticks_dc = (uint32_t)(ceil(fabs(__tmp)));
	#endif

	__builtin_avr_delay_cycles(__ticks_dc);
     3a0:	2a e0       	ldi	r18, 0x0A	; 10
     3a2:	2a 95       	dec	r18
     3a4:	f1 f7       	brne	.-4      	; 0x3a2 <p16f7x_writeComm+0x1c>
     3a6:	00 c0       	rjmp	.+0      	; 0x3a8 <p16f7x_writeComm+0x22>
	_delay_us(2);
	for(int i = 0; i < 6; i++)
     3a8:	20 e0       	ldi	r18, 0x00	; 0
     3aa:	30 e0       	ldi	r19, 0x00	; 0
	{
		_delay_us(2);
		if(comm & (1 << i)) PGD_HIGH
     3ac:	89 81       	ldd	r24, Y+1	; 0x01
     3ae:	90 e0       	ldi	r25, 0x00	; 0
     3b0:	4a 81       	ldd	r20, Y+2	; 0x02
     3b2:	5a e0       	ldi	r21, 0x0A	; 10
     3b4:	5a 95       	dec	r21
     3b6:	f1 f7       	brne	.-4      	; 0x3b4 <p16f7x_writeComm+0x2e>
     3b8:	00 c0       	rjmp	.+0      	; 0x3ba <p16f7x_writeComm+0x34>
     3ba:	bc 01       	movw	r22, r24
     3bc:	02 2e       	mov	r0, r18
     3be:	02 c0       	rjmp	.+4      	; 0x3c4 <p16f7x_writeComm+0x3e>
     3c0:	75 95       	asr	r23
     3c2:	67 95       	ror	r22
     3c4:	0a 94       	dec	r0
     3c6:	e2 f7       	brpl	.-8      	; 0x3c0 <p16f7x_writeComm+0x3a>
     3c8:	60 ff       	sbrs	r22, 0
     3ca:	02 c0       	rjmp	.+4      	; 0x3d0 <p16f7x_writeComm+0x4a>
     3cc:	29 9a       	sbi	0x05, 1	; 5
     3ce:	01 c0       	rjmp	.+2      	; 0x3d2 <p16f7x_writeComm+0x4c>
		else PGD_LOW
     3d0:	29 98       	cbi	0x05, 1	; 5
		PGC_HIGH
     3d2:	2a 9a       	sbi	0x05, 2	; 5
     3d4:	5a e0       	ldi	r21, 0x0A	; 10
     3d6:	5a 95       	dec	r21
     3d8:	f1 f7       	brne	.-4      	; 0x3d6 <p16f7x_writeComm+0x50>
     3da:	00 c0       	rjmp	.+0      	; 0x3dc <p16f7x_writeComm+0x56>
		_delay_us(2);
		PGC_LOW
     3dc:	2a 98       	cbi	0x05, 2	; 5
void p16f7x_writeComm(uint8_t comm, uint16_t data, uint8_t shrt)
{
	pgd_write();
	PGD_LOW
	_delay_us(2);
	for(int i = 0; i < 6; i++)
     3de:	2f 5f       	subi	r18, 0xFF	; 255
     3e0:	3f 4f       	sbci	r19, 0xFF	; 255
     3e2:	26 30       	cpi	r18, 0x06	; 6
     3e4:	31 05       	cpc	r19, r1
     3e6:	29 f7       	brne	.-54     	; 0x3b2 <p16f7x_writeComm+0x2c>
     3e8:	85 e0       	ldi	r24, 0x05	; 5
     3ea:	8a 95       	dec	r24
     3ec:	f1 f7       	brne	.-4      	; 0x3ea <p16f7x_writeComm+0x64>
     3ee:	00 00       	nop
		PGC_HIGH
		_delay_us(2);
		PGC_LOW
	}
	_delay_us(1);
	PGD_LOW
     3f0:	29 98       	cbi	0x05, 1	; 5
     3f2:	9a e0       	ldi	r25, 0x0A	; 10
     3f4:	9a 95       	dec	r25
     3f6:	f1 f7       	brne	.-4      	; 0x3f4 <p16f7x_writeComm+0x6e>
     3f8:	00 c0       	rjmp	.+0      	; 0x3fa <p16f7x_writeComm+0x74>
	_delay_us(2);

	if(shrt) {_delay_us(10); return;}
     3fa:	44 23       	and	r20, r20
     3fc:	21 f0       	breq	.+8      	; 0x406 <__LOCK_REGION_LENGTH__+0x6>
     3fe:	25 e3       	ldi	r18, 0x35	; 53
     400:	2a 95       	dec	r18
     402:	f1 f7       	brne	.-4      	; 0x400 <__LOCK_REGION_LENGTH__>
     404:	26 c0       	rjmp	.+76     	; 0x452 <__LOCK_REGION_LENGTH__+0x52>

	data = data << 1;
     406:	b8 01       	movw	r22, r16
     408:	66 0f       	add	r22, r22
     40a:	77 1f       	adc	r23, r23

	for(int i = 0; i < 16; i++)
     40c:	80 e0       	ldi	r24, 0x00	; 0
     40e:	90 e0       	ldi	r25, 0x00	; 0
	{
		_delay_us(2);
		if(data & (1 << i)) PGD_HIGH
     410:	41 e0       	ldi	r20, 0x01	; 1
     412:	50 e0       	ldi	r21, 0x00	; 0
     414:	2a e0       	ldi	r18, 0x0A	; 10
     416:	2a 95       	dec	r18
     418:	f1 f7       	brne	.-4      	; 0x416 <__LOCK_REGION_LENGTH__+0x16>
     41a:	00 c0       	rjmp	.+0      	; 0x41c <__LOCK_REGION_LENGTH__+0x1c>
     41c:	9a 01       	movw	r18, r20
     41e:	08 2e       	mov	r0, r24
     420:	02 c0       	rjmp	.+4      	; 0x426 <__LOCK_REGION_LENGTH__+0x26>
     422:	22 0f       	add	r18, r18
     424:	33 1f       	adc	r19, r19
     426:	0a 94       	dec	r0
     428:	e2 f7       	brpl	.-8      	; 0x422 <__LOCK_REGION_LENGTH__+0x22>
     42a:	26 23       	and	r18, r22
     42c:	37 23       	and	r19, r23
     42e:	23 2b       	or	r18, r19
     430:	11 f0       	breq	.+4      	; 0x436 <__LOCK_REGION_LENGTH__+0x36>
     432:	29 9a       	sbi	0x05, 1	; 5
     434:	01 c0       	rjmp	.+2      	; 0x438 <__LOCK_REGION_LENGTH__+0x38>
		else PGD_LOW
     436:	29 98       	cbi	0x05, 1	; 5
		PGC_HIGH
     438:	2a 9a       	sbi	0x05, 2	; 5
     43a:	2a e0       	ldi	r18, 0x0A	; 10
     43c:	2a 95       	dec	r18
     43e:	f1 f7       	brne	.-4      	; 0x43c <__LOCK_REGION_LENGTH__+0x3c>
     440:	00 c0       	rjmp	.+0      	; 0x442 <__LOCK_REGION_LENGTH__+0x42>
		_delay_us(2);
		PGC_LOW
     442:	2a 98       	cbi	0x05, 2	; 5

	if(shrt) {_delay_us(10); return;}

	data = data << 1;

	for(int i = 0; i < 16; i++)
     444:	01 96       	adiw	r24, 0x01	; 1
     446:	80 31       	cpi	r24, 0x10	; 16
     448:	91 05       	cpc	r25, r1
     44a:	21 f7       	brne	.-56     	; 0x414 <__LOCK_REGION_LENGTH__+0x14>
     44c:	55 e2       	ldi	r21, 0x25	; 37
     44e:	5a 95       	dec	r21
     450:	f1 f7       	brne	.-4      	; 0x44e <__LOCK_REGION_LENGTH__+0x4e>
     452:	00 00       	nop
		PGC_HIGH
		_delay_us(2);
		PGC_LOW
	}
	_delay_us(7);
}
     454:	0f 90       	pop	r0
     456:	0f 90       	pop	r0
     458:	df 91       	pop	r29
     45a:	cf 91       	pop	r28
     45c:	1f 91       	pop	r17
     45e:	0f 91       	pop	r16
     460:	08 95       	ret

00000462 <p16f183xx_setAdd>:

void p16f183xx_setAdd(uint8_t cmd, uint8_t h_add, uint8_t m_add, uint8_t l_add)
{
     462:	cf 93       	push	r28
     464:	df 93       	push	r29
     466:	00 d0       	rcall	.+0      	; 0x468 <p16f183xx_setAdd+0x6>
     468:	00 d0       	rcall	.+0      	; 0x46a <p16f183xx_setAdd+0x8>
     46a:	cd b7       	in	r28, 0x3d	; 61
     46c:	de b7       	in	r29, 0x3e	; 62
	pgd_write();
     46e:	2c 83       	std	Y+4, r18	; 0x04
     470:	4b 83       	std	Y+3, r20	; 0x03
     472:	6a 83       	std	Y+2, r22	; 0x02
     474:	89 83       	std	Y+1, r24	; 0x01
     476:	0e 94 18 01 	call	0x230	; 0x230 <pgd_write>
	PGD_LOW
     47a:	29 98       	cbi	0x05, 1	; 5
     47c:	3a e0       	ldi	r19, 0x0A	; 10
     47e:	3a 95       	dec	r19
     480:	f1 f7       	brne	.-4      	; 0x47e <p16f183xx_setAdd+0x1c>
     482:	00 c0       	rjmp	.+0      	; 0x484 <p16f183xx_setAdd+0x22>
	_delay_us(2);
	for(int i = 0; i < 6; i++)
     484:	e0 e0       	ldi	r30, 0x00	; 0
     486:	f0 e0       	ldi	r31, 0x00	; 0
	{
		_delay_us(2);
		if(cmd & (1 << i)) PGD_HIGH
     488:	89 81       	ldd	r24, Y+1	; 0x01
     48a:	90 e0       	ldi	r25, 0x00	; 0
     48c:	6a 81       	ldd	r22, Y+2	; 0x02
     48e:	4b 81       	ldd	r20, Y+3	; 0x03
     490:	2c 81       	ldd	r18, Y+4	; 0x04
     492:	5a e0       	ldi	r21, 0x0A	; 10
     494:	5a 95       	dec	r21
     496:	f1 f7       	brne	.-4      	; 0x494 <p16f183xx_setAdd+0x32>
     498:	00 c0       	rjmp	.+0      	; 0x49a <p16f183xx_setAdd+0x38>
     49a:	dc 01       	movw	r26, r24
     49c:	0e 2e       	mov	r0, r30
     49e:	02 c0       	rjmp	.+4      	; 0x4a4 <p16f183xx_setAdd+0x42>
     4a0:	b5 95       	asr	r27
     4a2:	a7 95       	ror	r26
     4a4:	0a 94       	dec	r0
     4a6:	e2 f7       	brpl	.-8      	; 0x4a0 <p16f183xx_setAdd+0x3e>
     4a8:	a0 ff       	sbrs	r26, 0
     4aa:	02 c0       	rjmp	.+4      	; 0x4b0 <p16f183xx_setAdd+0x4e>
     4ac:	29 9a       	sbi	0x05, 1	; 5
     4ae:	01 c0       	rjmp	.+2      	; 0x4b2 <p16f183xx_setAdd+0x50>
		else PGD_LOW
     4b0:	29 98       	cbi	0x05, 1	; 5
		PGC_HIGH
     4b2:	2a 9a       	sbi	0x05, 2	; 5
     4b4:	3a e0       	ldi	r19, 0x0A	; 10
     4b6:	3a 95       	dec	r19
     4b8:	f1 f7       	brne	.-4      	; 0x4b6 <p16f183xx_setAdd+0x54>
     4ba:	00 c0       	rjmp	.+0      	; 0x4bc <p16f183xx_setAdd+0x5a>
		_delay_us(2);
		PGC_LOW
     4bc:	2a 98       	cbi	0x05, 2	; 5
void p16f183xx_setAdd(uint8_t cmd, uint8_t h_add, uint8_t m_add, uint8_t l_add)
{
	pgd_write();
	PGD_LOW
	_delay_us(2);
	for(int i = 0; i < 6; i++)
     4be:	31 96       	adiw	r30, 0x01	; 1
     4c0:	e6 30       	cpi	r30, 0x06	; 6
     4c2:	f1 05       	cpc	r31, r1
     4c4:	31 f7       	brne	.-52     	; 0x492 <p16f183xx_setAdd+0x30>
     4c6:	5a e1       	ldi	r21, 0x1A	; 26
     4c8:	5a 95       	dec	r21
     4ca:	f1 f7       	brne	.-4      	; 0x4c8 <p16f183xx_setAdd+0x66>
     4cc:	00 c0       	rjmp	.+0      	; 0x4ce <p16f183xx_setAdd+0x6c>
		PGC_HIGH
		_delay_us(2);
		PGC_LOW
	}
	_delay_us(5);
	PGD_LOW
     4ce:	29 98       	cbi	0x05, 1	; 5
     4d0:	8a e0       	ldi	r24, 0x0A	; 10
     4d2:	8a 95       	dec	r24
     4d4:	f1 f7       	brne	.-4      	; 0x4d2 <p16f183xx_setAdd+0x70>
     4d6:	00 c0       	rjmp	.+0      	; 0x4d8 <p16f183xx_setAdd+0x76>
	_delay_us(2);
	PGC_HIGH
     4d8:	2a 9a       	sbi	0x05, 2	; 5
     4da:	9a e0       	ldi	r25, 0x0A	; 10
     4dc:	9a 95       	dec	r25
     4de:	f1 f7       	brne	.-4      	; 0x4dc <p16f183xx_setAdd+0x7a>
     4e0:	00 c0       	rjmp	.+0      	; 0x4e2 <p16f183xx_setAdd+0x80>
	_delay_us(2);
	PGC_LOW
     4e2:	2a 98       	cbi	0x05, 2	; 5

	for(int i = 0; i < 8; i++)
     4e4:	80 e0       	ldi	r24, 0x00	; 0
     4e6:	90 e0       	ldi	r25, 0x00	; 0
	{
		_delay_us(2);
		if(l_add & (1 << i)) PGD_HIGH
     4e8:	30 e0       	ldi	r19, 0x00	; 0
     4ea:	5a e0       	ldi	r21, 0x0A	; 10
     4ec:	5a 95       	dec	r21
     4ee:	f1 f7       	brne	.-4      	; 0x4ec <p16f183xx_setAdd+0x8a>
     4f0:	00 c0       	rjmp	.+0      	; 0x4f2 <p16f183xx_setAdd+0x90>
     4f2:	f9 01       	movw	r30, r18
     4f4:	08 2e       	mov	r0, r24
     4f6:	02 c0       	rjmp	.+4      	; 0x4fc <p16f183xx_setAdd+0x9a>
     4f8:	f5 95       	asr	r31
     4fa:	e7 95       	ror	r30
     4fc:	0a 94       	dec	r0
     4fe:	e2 f7       	brpl	.-8      	; 0x4f8 <p16f183xx_setAdd+0x96>
     500:	e0 ff       	sbrs	r30, 0
     502:	02 c0       	rjmp	.+4      	; 0x508 <p16f183xx_setAdd+0xa6>
     504:	29 9a       	sbi	0x05, 1	; 5
     506:	01 c0       	rjmp	.+2      	; 0x50a <p16f183xx_setAdd+0xa8>
		else PGD_LOW
     508:	29 98       	cbi	0x05, 1	; 5
		PGC_HIGH
     50a:	2a 9a       	sbi	0x05, 2	; 5
     50c:	5a e0       	ldi	r21, 0x0A	; 10
     50e:	5a 95       	dec	r21
     510:	f1 f7       	brne	.-4      	; 0x50e <p16f183xx_setAdd+0xac>
     512:	00 c0       	rjmp	.+0      	; 0x514 <p16f183xx_setAdd+0xb2>
		_delay_us(2);
		PGC_LOW
     514:	2a 98       	cbi	0x05, 2	; 5
	_delay_us(2);
	PGC_HIGH
	_delay_us(2);
	PGC_LOW

	for(int i = 0; i < 8; i++)
     516:	01 96       	adiw	r24, 0x01	; 1
     518:	88 30       	cpi	r24, 0x08	; 8
     51a:	91 05       	cpc	r25, r1
     51c:	31 f7       	brne	.-52     	; 0x4ea <p16f183xx_setAdd+0x88>
     51e:	80 e0       	ldi	r24, 0x00	; 0
     520:	90 e0       	ldi	r25, 0x00	; 0
		PGC_LOW
	}
	for(int i = 0; i < 8; i++)
	{
		_delay_us(2);
		if(m_add & (1 << i)) PGD_HIGH
     522:	50 e0       	ldi	r21, 0x00	; 0
     524:	2a e0       	ldi	r18, 0x0A	; 10
     526:	2a 95       	dec	r18
     528:	f1 f7       	brne	.-4      	; 0x526 <p16f183xx_setAdd+0xc4>
     52a:	00 c0       	rjmp	.+0      	; 0x52c <p16f183xx_setAdd+0xca>
     52c:	9a 01       	movw	r18, r20
     52e:	08 2e       	mov	r0, r24
     530:	02 c0       	rjmp	.+4      	; 0x536 <p16f183xx_setAdd+0xd4>
     532:	35 95       	asr	r19
     534:	27 95       	ror	r18
     536:	0a 94       	dec	r0
     538:	e2 f7       	brpl	.-8      	; 0x532 <p16f183xx_setAdd+0xd0>
     53a:	20 ff       	sbrs	r18, 0
     53c:	02 c0       	rjmp	.+4      	; 0x542 <p16f183xx_setAdd+0xe0>
     53e:	29 9a       	sbi	0x05, 1	; 5
     540:	01 c0       	rjmp	.+2      	; 0x544 <p16f183xx_setAdd+0xe2>
		else PGD_LOW
     542:	29 98       	cbi	0x05, 1	; 5
		PGC_HIGH
     544:	2a 9a       	sbi	0x05, 2	; 5
     546:	3a e0       	ldi	r19, 0x0A	; 10
     548:	3a 95       	dec	r19
     54a:	f1 f7       	brne	.-4      	; 0x548 <p16f183xx_setAdd+0xe6>
     54c:	00 c0       	rjmp	.+0      	; 0x54e <p16f183xx_setAdd+0xec>
		_delay_us(2);
		PGC_LOW
     54e:	2a 98       	cbi	0x05, 2	; 5
		else PGD_LOW
		PGC_HIGH
		_delay_us(2);
		PGC_LOW
	}
	for(int i = 0; i < 8; i++)
     550:	01 96       	adiw	r24, 0x01	; 1
     552:	88 30       	cpi	r24, 0x08	; 8
     554:	91 05       	cpc	r25, r1
     556:	31 f7       	brne	.-52     	; 0x524 <p16f183xx_setAdd+0xc2>
     558:	80 e0       	ldi	r24, 0x00	; 0
     55a:	90 e0       	ldi	r25, 0x00	; 0
		PGC_LOW
	}
	for(int i = 0; i < 7; i++)
	{
		_delay_us(2);
		if(h_add & (1 << i)) PGD_HIGH
     55c:	70 e0       	ldi	r23, 0x00	; 0
     55e:	5a e0       	ldi	r21, 0x0A	; 10
     560:	5a 95       	dec	r21
     562:	f1 f7       	brne	.-4      	; 0x560 <p16f183xx_setAdd+0xfe>
     564:	00 c0       	rjmp	.+0      	; 0x566 <p16f183xx_setAdd+0x104>
     566:	9b 01       	movw	r18, r22
     568:	08 2e       	mov	r0, r24
     56a:	02 c0       	rjmp	.+4      	; 0x570 <p16f183xx_setAdd+0x10e>
     56c:	35 95       	asr	r19
     56e:	27 95       	ror	r18
     570:	0a 94       	dec	r0
     572:	e2 f7       	brpl	.-8      	; 0x56c <p16f183xx_setAdd+0x10a>
     574:	20 ff       	sbrs	r18, 0
     576:	02 c0       	rjmp	.+4      	; 0x57c <p16f183xx_setAdd+0x11a>
     578:	29 9a       	sbi	0x05, 1	; 5
     57a:	01 c0       	rjmp	.+2      	; 0x57e <p16f183xx_setAdd+0x11c>
		else PGD_LOW
     57c:	29 98       	cbi	0x05, 1	; 5
		PGC_HIGH
     57e:	2a 9a       	sbi	0x05, 2	; 5
     580:	2a e0       	ldi	r18, 0x0A	; 10
     582:	2a 95       	dec	r18
     584:	f1 f7       	brne	.-4      	; 0x582 <p16f183xx_setAdd+0x120>
     586:	00 c0       	rjmp	.+0      	; 0x588 <p16f183xx_setAdd+0x126>
		_delay_us(2);
		PGC_LOW
     588:	2a 98       	cbi	0x05, 2	; 5
		else PGD_LOW
		PGC_HIGH
		_delay_us(2);
		PGC_LOW
	}
	for(int i = 0; i < 7; i++)
     58a:	01 96       	adiw	r24, 0x01	; 1
     58c:	87 30       	cpi	r24, 0x07	; 7
     58e:	91 05       	cpc	r25, r1
     590:	31 f7       	brne	.-52     	; 0x55e <p16f183xx_setAdd+0xfc>
     592:	3a e1       	ldi	r19, 0x1A	; 26
     594:	3a 95       	dec	r19
     596:	f1 f7       	brne	.-4      	; 0x594 <p16f183xx_setAdd+0x132>
     598:	00 c0       	rjmp	.+0      	; 0x59a <p16f183xx_setAdd+0x138>
		PGC_HIGH
		_delay_us(2);
		PGC_LOW
	}
	_delay_us(5);
}
     59a:	0f 90       	pop	r0
     59c:	0f 90       	pop	r0
     59e:	0f 90       	pop	r0
     5a0:	0f 90       	pop	r0
     5a2:	df 91       	pop	r29
     5a4:	cf 91       	pop	r28
     5a6:	08 95       	ret

000005a8 <p16f184xx_writeComm>:

void p16f184xx_writeComm(uint8_t cmd, uint8_t pl, uint8_t h_add, uint8_t m_add, uint8_t l_add)
{
     5a8:	0f 93       	push	r16
     5aa:	1f 93       	push	r17
     5ac:	cf 93       	push	r28
     5ae:	df 93       	push	r29
     5b0:	00 d0       	rcall	.+0      	; 0x5b2 <p16f184xx_writeComm+0xa>
     5b2:	00 d0       	rcall	.+0      	; 0x5b4 <p16f184xx_writeComm+0xc>
     5b4:	cd b7       	in	r28, 0x3d	; 61
     5b6:	de b7       	in	r29, 0x3e	; 62
	pgd_write();
     5b8:	2c 83       	std	Y+4, r18	; 0x04
     5ba:	4b 83       	std	Y+3, r20	; 0x03
     5bc:	6a 83       	std	Y+2, r22	; 0x02
     5be:	89 83       	std	Y+1, r24	; 0x01
     5c0:	0e 94 18 01 	call	0x230	; 0x230 <pgd_write>
	PGD_LOW
     5c4:	29 98       	cbi	0x05, 1	; 5
     5c6:	e7 e0       	ldi	r30, 0x07	; 7
     5c8:	f0 e0       	ldi	r31, 0x00	; 0

	for(int i = 0; i < 8; i++)
	{
		_delay_us(2);
		if(cmd & (1 << (7-i))) PGD_HIGH
     5ca:	89 81       	ldd	r24, Y+1	; 0x01
     5cc:	90 e0       	ldi	r25, 0x00	; 0
     5ce:	6a 81       	ldd	r22, Y+2	; 0x02
     5d0:	4b 81       	ldd	r20, Y+3	; 0x03
     5d2:	2c 81       	ldd	r18, Y+4	; 0x04
     5d4:	3a e0       	ldi	r19, 0x0A	; 10
     5d6:	3a 95       	dec	r19
     5d8:	f1 f7       	brne	.-4      	; 0x5d6 <p16f184xx_writeComm+0x2e>
     5da:	00 c0       	rjmp	.+0      	; 0x5dc <p16f184xx_writeComm+0x34>
     5dc:	dc 01       	movw	r26, r24
     5de:	0e 2e       	mov	r0, r30
     5e0:	02 c0       	rjmp	.+4      	; 0x5e6 <p16f184xx_writeComm+0x3e>
     5e2:	b5 95       	asr	r27
     5e4:	a7 95       	ror	r26
     5e6:	0a 94       	dec	r0
     5e8:	e2 f7       	brpl	.-8      	; 0x5e2 <p16f184xx_writeComm+0x3a>
     5ea:	a0 ff       	sbrs	r26, 0
     5ec:	02 c0       	rjmp	.+4      	; 0x5f2 <p16f184xx_writeComm+0x4a>
     5ee:	29 9a       	sbi	0x05, 1	; 5
     5f0:	01 c0       	rjmp	.+2      	; 0x5f4 <p16f184xx_writeComm+0x4c>
		else PGD_LOW
     5f2:	29 98       	cbi	0x05, 1	; 5
		PGC_HIGH
     5f4:	2a 9a       	sbi	0x05, 2	; 5
     5f6:	3a e0       	ldi	r19, 0x0A	; 10
     5f8:	3a 95       	dec	r19
     5fa:	f1 f7       	brne	.-4      	; 0x5f8 <p16f184xx_writeComm+0x50>
     5fc:	00 c0       	rjmp	.+0      	; 0x5fe <p16f184xx_writeComm+0x56>
		_delay_us(2);
		PGC_LOW
     5fe:	2a 98       	cbi	0x05, 2	; 5
     600:	31 97       	sbiw	r30, 0x01	; 1
     602:	40 f7       	brcc	.-48     	; 0x5d4 <p16f184xx_writeComm+0x2c>
     604:	8a e0       	ldi	r24, 0x0A	; 10
     606:	8a 95       	dec	r24
     608:	f1 f7       	brne	.-4      	; 0x606 <p16f184xx_writeComm+0x5e>
     60a:	00 c0       	rjmp	.+0      	; 0x60c <p16f184xx_writeComm+0x64>
	}
	_delay_us(2);
	PGD_LOW
     60c:	29 98       	cbi	0x05, 1	; 5
     60e:	35 e2       	ldi	r19, 0x25	; 37
     610:	3a 95       	dec	r19
     612:	f1 f7       	brne	.-4      	; 0x610 <p16f184xx_writeComm+0x68>
     614:	00 00       	nop
	_delay_us(7);

	if(pl) return;
     616:	61 11       	cpse	r22, r1
     618:	66 c0       	rjmp	.+204    	; 0x6e6 <p16f184xx_writeComm+0x13e>

	//Start bit
	PGC_HIGH
     61a:	2a 9a       	sbi	0x05, 2	; 5
     61c:	8a e0       	ldi	r24, 0x0A	; 10
     61e:	8a 95       	dec	r24
     620:	f1 f7       	brne	.-4      	; 0x61e <p16f184xx_writeComm+0x76>
     622:	00 c0       	rjmp	.+0      	; 0x624 <p16f184xx_writeComm+0x7c>
	_delay_us(2);
	PGC_LOW
     624:	2a 98       	cbi	0x05, 2	; 5
     626:	85 e0       	ldi	r24, 0x05	; 5
     628:	90 e0       	ldi	r25, 0x00	; 0


	for(int i = 0; i < 6; i++)
	{
		_delay_us(2);
		if(h_add & (1 << (5-i))) PGD_HIGH
     62a:	50 e0       	ldi	r21, 0x00	; 0
     62c:	3a e0       	ldi	r19, 0x0A	; 10
     62e:	3a 95       	dec	r19
     630:	f1 f7       	brne	.-4      	; 0x62e <p16f184xx_writeComm+0x86>
     632:	00 c0       	rjmp	.+0      	; 0x634 <p16f184xx_writeComm+0x8c>
     634:	ba 01       	movw	r22, r20
     636:	08 2e       	mov	r0, r24
     638:	02 c0       	rjmp	.+4      	; 0x63e <p16f184xx_writeComm+0x96>
     63a:	75 95       	asr	r23
     63c:	67 95       	ror	r22
     63e:	0a 94       	dec	r0
     640:	e2 f7       	brpl	.-8      	; 0x63a <p16f184xx_writeComm+0x92>
     642:	60 ff       	sbrs	r22, 0
     644:	02 c0       	rjmp	.+4      	; 0x64a <p16f184xx_writeComm+0xa2>
     646:	29 9a       	sbi	0x05, 1	; 5
     648:	01 c0       	rjmp	.+2      	; 0x64c <p16f184xx_writeComm+0xa4>
		else PGD_LOW
     64a:	29 98       	cbi	0x05, 1	; 5
		PGC_HIGH
     64c:	2a 9a       	sbi	0x05, 2	; 5
     64e:	3a e0       	ldi	r19, 0x0A	; 10
     650:	3a 95       	dec	r19
     652:	f1 f7       	brne	.-4      	; 0x650 <p16f184xx_writeComm+0xa8>
     654:	00 c0       	rjmp	.+0      	; 0x656 <p16f184xx_writeComm+0xae>
		_delay_us(2);
		PGC_LOW
     656:	2a 98       	cbi	0x05, 2	; 5
     658:	01 97       	sbiw	r24, 0x01	; 1
     65a:	40 f7       	brcc	.-48     	; 0x62c <p16f184xx_writeComm+0x84>
	PGC_HIGH
	_delay_us(2);
	PGC_LOW


	for(int i = 0; i < 6; i++)
     65c:	87 e0       	ldi	r24, 0x07	; 7
     65e:	90 e0       	ldi	r25, 0x00	; 0
		PGC_LOW
	}
	for(int i = 0; i < 8; i++)
	{
		_delay_us(2);
		if(m_add & (1 << (7-i))) PGD_HIGH
     660:	30 e0       	ldi	r19, 0x00	; 0
     662:	4a e0       	ldi	r20, 0x0A	; 10
     664:	4a 95       	dec	r20
     666:	f1 f7       	brne	.-4      	; 0x664 <p16f184xx_writeComm+0xbc>
     668:	00 c0       	rjmp	.+0      	; 0x66a <p16f184xx_writeComm+0xc2>
     66a:	a9 01       	movw	r20, r18
     66c:	08 2e       	mov	r0, r24
     66e:	02 c0       	rjmp	.+4      	; 0x674 <p16f184xx_writeComm+0xcc>
     670:	55 95       	asr	r21
     672:	47 95       	ror	r20
     674:	0a 94       	dec	r0
     676:	e2 f7       	brpl	.-8      	; 0x670 <p16f184xx_writeComm+0xc8>
     678:	40 ff       	sbrs	r20, 0
     67a:	02 c0       	rjmp	.+4      	; 0x680 <p16f184xx_writeComm+0xd8>
     67c:	29 9a       	sbi	0x05, 1	; 5
     67e:	01 c0       	rjmp	.+2      	; 0x682 <p16f184xx_writeComm+0xda>
		else PGD_LOW
     680:	29 98       	cbi	0x05, 1	; 5
		PGC_HIGH
     682:	2a 9a       	sbi	0x05, 2	; 5
     684:	4a e0       	ldi	r20, 0x0A	; 10
     686:	4a 95       	dec	r20
     688:	f1 f7       	brne	.-4      	; 0x686 <p16f184xx_writeComm+0xde>
     68a:	00 c0       	rjmp	.+0      	; 0x68c <p16f184xx_writeComm+0xe4>
		_delay_us(2);
		PGC_LOW
     68c:	2a 98       	cbi	0x05, 2	; 5
     68e:	01 97       	sbiw	r24, 0x01	; 1
     690:	40 f7       	brcc	.-48     	; 0x662 <p16f184xx_writeComm+0xba>
		else PGD_LOW
		PGC_HIGH
		_delay_us(2);
		PGC_LOW
	}
	for(int i = 0; i < 8; i++)
     692:	87 e0       	ldi	r24, 0x07	; 7
     694:	90 e0       	ldi	r25, 0x00	; 0
		PGC_LOW
	}
	for(int i = 0; i < 8; i++)
	{
		_delay_us(2);
		if(l_add & (1 << (7-i))) PGD_HIGH
     696:	10 e0       	ldi	r17, 0x00	; 0
     698:	2a e0       	ldi	r18, 0x0A	; 10
     69a:	2a 95       	dec	r18
     69c:	f1 f7       	brne	.-4      	; 0x69a <p16f184xx_writeComm+0xf2>
     69e:	00 c0       	rjmp	.+0      	; 0x6a0 <p16f184xx_writeComm+0xf8>
     6a0:	98 01       	movw	r18, r16
     6a2:	08 2e       	mov	r0, r24
     6a4:	02 c0       	rjmp	.+4      	; 0x6aa <p16f184xx_writeComm+0x102>
     6a6:	35 95       	asr	r19
     6a8:	27 95       	ror	r18
     6aa:	0a 94       	dec	r0
     6ac:	e2 f7       	brpl	.-8      	; 0x6a6 <p16f184xx_writeComm+0xfe>
     6ae:	20 ff       	sbrs	r18, 0
     6b0:	02 c0       	rjmp	.+4      	; 0x6b6 <p16f184xx_writeComm+0x10e>
     6b2:	29 9a       	sbi	0x05, 1	; 5
     6b4:	01 c0       	rjmp	.+2      	; 0x6b8 <p16f184xx_writeComm+0x110>
		else PGD_LOW
     6b6:	29 98       	cbi	0x05, 1	; 5
		PGC_HIGH
     6b8:	2a 9a       	sbi	0x05, 2	; 5
     6ba:	3a e0       	ldi	r19, 0x0A	; 10
     6bc:	3a 95       	dec	r19
     6be:	f1 f7       	brne	.-4      	; 0x6bc <p16f184xx_writeComm+0x114>
     6c0:	00 c0       	rjmp	.+0      	; 0x6c2 <p16f184xx_writeComm+0x11a>
		_delay_us(2);
		PGC_LOW
     6c2:	2a 98       	cbi	0x05, 2	; 5
     6c4:	01 97       	sbiw	r24, 0x01	; 1
     6c6:	40 f7       	brcc	.-48     	; 0x698 <p16f184xx_writeComm+0xf0>
     6c8:	8a e0       	ldi	r24, 0x0A	; 10
     6ca:	8a 95       	dec	r24
     6cc:	f1 f7       	brne	.-4      	; 0x6ca <p16f184xx_writeComm+0x122>
     6ce:	00 c0       	rjmp	.+0      	; 0x6d0 <p16f184xx_writeComm+0x128>
	}
	//Stop bit
	_delay_us(2);
	PGD_LOW
     6d0:	29 98       	cbi	0x05, 1	; 5
	PGC_HIGH
     6d2:	2a 9a       	sbi	0x05, 2	; 5
     6d4:	2a e0       	ldi	r18, 0x0A	; 10
     6d6:	2a 95       	dec	r18
     6d8:	f1 f7       	brne	.-4      	; 0x6d6 <p16f184xx_writeComm+0x12e>
     6da:	00 c0       	rjmp	.+0      	; 0x6dc <p16f184xx_writeComm+0x134>
	_delay_us(2);
	PGC_LOW
     6dc:	2a 98       	cbi	0x05, 2	; 5
     6de:	3a e2       	ldi	r19, 0x2A	; 42
     6e0:	3a 95       	dec	r19
     6e2:	f1 f7       	brne	.-4      	; 0x6e0 <p16f184xx_writeComm+0x138>
     6e4:	00 c0       	rjmp	.+0      	; 0x6e6 <p16f184xx_writeComm+0x13e>
	_delay_us(8);
}
     6e6:	0f 90       	pop	r0
     6e8:	0f 90       	pop	r0
     6ea:	0f 90       	pop	r0
     6ec:	0f 90       	pop	r0
     6ee:	df 91       	pop	r29
     6f0:	cf 91       	pop	r28
     6f2:	1f 91       	pop	r17
     6f4:	0f 91       	pop	r16
     6f6:	08 95       	ret

000006f8 <p16f184xx_readComm>:

uint16_t p16f184xx_readComm(uint8_t cmd)
{
     6f8:	0f 93       	push	r16
     6fa:	1f 93       	push	r17
     6fc:	cf 93       	push	r28
     6fe:	df 93       	push	r29
     700:	1f 92       	push	r1
     702:	cd b7       	in	r28, 0x3d	; 61
     704:	de b7       	in	r29, 0x3e	; 62
	uint16_t dat = 0;

	pgd_write();
     706:	89 83       	std	Y+1, r24	; 0x01
     708:	0e 94 18 01 	call	0x230	; 0x230 <pgd_write>
	PGD_LOW
     70c:	29 98       	cbi	0x05, 1	; 5
     70e:	27 e0       	ldi	r18, 0x07	; 7
     710:	30 e0       	ldi	r19, 0x00	; 0

	for(int i = 0; i < 8; i++)
	{
		_delay_us(2);
		if(cmd & (1 << (7-i))) PGD_HIGH
     712:	89 81       	ldd	r24, Y+1	; 0x01
     714:	90 e0       	ldi	r25, 0x00	; 0
     716:	4a e0       	ldi	r20, 0x0A	; 10
     718:	4a 95       	dec	r20
     71a:	f1 f7       	brne	.-4      	; 0x718 <p16f184xx_readComm+0x20>
     71c:	00 c0       	rjmp	.+0      	; 0x71e <p16f184xx_readComm+0x26>
     71e:	ac 01       	movw	r20, r24
     720:	02 2e       	mov	r0, r18
     722:	02 c0       	rjmp	.+4      	; 0x728 <p16f184xx_readComm+0x30>
     724:	55 95       	asr	r21
     726:	47 95       	ror	r20
     728:	0a 94       	dec	r0
     72a:	e2 f7       	brpl	.-8      	; 0x724 <p16f184xx_readComm+0x2c>
     72c:	40 ff       	sbrs	r20, 0
     72e:	02 c0       	rjmp	.+4      	; 0x734 <p16f184xx_readComm+0x3c>
     730:	29 9a       	sbi	0x05, 1	; 5
     732:	01 c0       	rjmp	.+2      	; 0x736 <p16f184xx_readComm+0x3e>
		else PGD_LOW
     734:	29 98       	cbi	0x05, 1	; 5
		PGC_HIGH
     736:	2a 9a       	sbi	0x05, 2	; 5
     738:	4a e0       	ldi	r20, 0x0A	; 10
     73a:	4a 95       	dec	r20
     73c:	f1 f7       	brne	.-4      	; 0x73a <p16f184xx_readComm+0x42>
     73e:	00 c0       	rjmp	.+0      	; 0x740 <p16f184xx_readComm+0x48>
		_delay_us(2);
		PGC_LOW
     740:	2a 98       	cbi	0x05, 2	; 5
     742:	21 50       	subi	r18, 0x01	; 1
     744:	31 09       	sbc	r19, r1
     746:	38 f7       	brcc	.-50     	; 0x716 <p16f184xx_readComm+0x1e>
     748:	8a e0       	ldi	r24, 0x0A	; 10
     74a:	8a 95       	dec	r24
     74c:	f1 f7       	brne	.-4      	; 0x74a <p16f184xx_readComm+0x52>
     74e:	00 c0       	rjmp	.+0      	; 0x750 <p16f184xx_readComm+0x58>
	}
	_delay_us(2);

	pgd_read();
     750:	0e 94 16 01 	call	0x22c	; 0x22c <pgd_read>
     754:	2a e2       	ldi	r18, 0x2A	; 42
     756:	2a 95       	dec	r18
     758:	f1 f7       	brne	.-4      	; 0x756 <p16f184xx_readComm+0x5e>
     75a:	00 c0       	rjmp	.+0      	; 0x75c <p16f184xx_readComm+0x64>
     75c:	87 e0       	ldi	r24, 0x07	; 7
     75e:	90 e0       	ldi	r25, 0x00	; 0
     760:	4a e1       	ldi	r20, 0x1A	; 26
     762:	4a 95       	dec	r20
     764:	f1 f7       	brne	.-4      	; 0x762 <p16f184xx_readComm+0x6a>
     766:	00 c0       	rjmp	.+0      	; 0x768 <p16f184xx_readComm+0x70>


	for(int i = 0; i < 7; i++)
	{
		_delay_us(5);
		PGC_HIGH
     768:	2a 9a       	sbi	0x05, 2	; 5
     76a:	2a e1       	ldi	r18, 0x1A	; 26
     76c:	2a 95       	dec	r18
     76e:	f1 f7       	brne	.-4      	; 0x76c <p16f184xx_readComm+0x74>
     770:	00 c0       	rjmp	.+0      	; 0x772 <p16f184xx_readComm+0x7a>
		_delay_us(5);
		PGC_LOW
     772:	2a 98       	cbi	0x05, 2	; 5
     774:	01 97       	sbiw	r24, 0x01	; 1

	pgd_read();
	_delay_us(8);


	for(int i = 0; i < 7; i++)
     776:	a1 f7       	brne	.-24     	; 0x760 <p16f184xx_readComm+0x68>
     778:	2f e0       	ldi	r18, 0x0F	; 15
     77a:	30 e0       	ldi	r19, 0x00	; 0
     77c:	00 e0       	ldi	r16, 0x00	; 0
     77e:	10 e0       	ldi	r17, 0x00	; 0
	{
		_delay_us(5);
		PGC_HIGH
		_delay_us(5);
		PGC_LOW
		if(PGD_IDR & (1 << PGD_PIN)) dat |= (1 << (15-i));
     780:	81 e0       	ldi	r24, 0x01	; 1
     782:	90 e0       	ldi	r25, 0x00	; 0
     784:	4a e1       	ldi	r20, 0x1A	; 26
     786:	4a 95       	dec	r20
     788:	f1 f7       	brne	.-4      	; 0x786 <p16f184xx_readComm+0x8e>
     78a:	00 c0       	rjmp	.+0      	; 0x78c <p16f184xx_readComm+0x94>
		PGC_LOW
	}
	for(int i = 0; i < 16; i++)
	{
		_delay_us(5);
		PGC_HIGH
     78c:	2a 9a       	sbi	0x05, 2	; 5
     78e:	4a e1       	ldi	r20, 0x1A	; 26
     790:	4a 95       	dec	r20
     792:	f1 f7       	brne	.-4      	; 0x790 <p16f184xx_readComm+0x98>
     794:	00 c0       	rjmp	.+0      	; 0x796 <p16f184xx_readComm+0x9e>
		_delay_us(5);
		PGC_LOW
     796:	2a 98       	cbi	0x05, 2	; 5
		if(PGD_IDR & (1 << PGD_PIN)) dat |= (1 << (15-i));
     798:	19 9b       	sbis	0x03, 1	; 3
     79a:	09 c0       	rjmp	.+18     	; 0x7ae <p16f184xx_readComm+0xb6>
     79c:	ac 01       	movw	r20, r24
     79e:	02 2e       	mov	r0, r18
     7a0:	02 c0       	rjmp	.+4      	; 0x7a6 <p16f184xx_readComm+0xae>
     7a2:	44 0f       	add	r20, r20
     7a4:	55 1f       	adc	r21, r21
     7a6:	0a 94       	dec	r0
     7a8:	e2 f7       	brpl	.-8      	; 0x7a2 <p16f184xx_readComm+0xaa>
     7aa:	04 2b       	or	r16, r20
     7ac:	15 2b       	or	r17, r21
     7ae:	21 50       	subi	r18, 0x01	; 1
     7b0:	31 09       	sbc	r19, r1
     7b2:	40 f7       	brcc	.-48     	; 0x784 <p16f184xx_readComm+0x8c>
     7b4:	8a e1       	ldi	r24, 0x1A	; 26
     7b6:	8a 95       	dec	r24
     7b8:	f1 f7       	brne	.-4      	; 0x7b6 <p16f184xx_readComm+0xbe>
     7ba:	00 c0       	rjmp	.+0      	; 0x7bc <p16f184xx_readComm+0xc4>
	}
	_delay_us(5);
	PGC_HIGH
     7bc:	2a 9a       	sbi	0x05, 2	; 5
     7be:	2a e1       	ldi	r18, 0x1A	; 26
     7c0:	2a 95       	dec	r18
     7c2:	f1 f7       	brne	.-4      	; 0x7c0 <p16f184xx_readComm+0xc8>
     7c4:	00 c0       	rjmp	.+0      	; 0x7c6 <p16f184xx_readComm+0xce>
	_delay_us(5);
	PGC_LOW
     7c6:	2a 98       	cbi	0x05, 2	; 5
     7c8:	45 e2       	ldi	r20, 0x25	; 37
     7ca:	4a 95       	dec	r20
     7cc:	f1 f7       	brne	.-4      	; 0x7ca <p16f184xx_readComm+0xd2>
     7ce:	00 00       	nop
	_delay_us(7);
	pgd_write();
     7d0:	0e 94 18 01 	call	0x230	; 0x230 <pgd_write>

	return dat;
}
     7d4:	c8 01       	movw	r24, r16
     7d6:	0f 90       	pop	r0
     7d8:	df 91       	pop	r29
     7da:	cf 91       	pop	r28
     7dc:	1f 91       	pop	r17
     7de:	0f 91       	pop	r16
     7e0:	08 95       	ret

000007e2 <p16f7x_readComm>:

uint16_t p16f7x_readComm(uint8_t comm)
{
     7e2:	0f 93       	push	r16
     7e4:	1f 93       	push	r17
     7e6:	cf 93       	push	r28
     7e8:	df 93       	push	r29
     7ea:	1f 92       	push	r1
     7ec:	cd b7       	in	r28, 0x3d	; 61
     7ee:	de b7       	in	r29, 0x3e	; 62
	uint16_t data = 0;
	pgd_write();
     7f0:	89 83       	std	Y+1, r24	; 0x01
     7f2:	0e 94 18 01 	call	0x230	; 0x230 <pgd_write>
     7f6:	4a e1       	ldi	r20, 0x1A	; 26
     7f8:	4a 95       	dec	r20
     7fa:	f1 f7       	brne	.-4      	; 0x7f8 <p16f7x_readComm+0x16>
     7fc:	00 c0       	rjmp	.+0      	; 0x7fe <p16f7x_readComm+0x1c>
	_delay_us(5);
	for(int i = 0; i < 6; i++)
     7fe:	20 e0       	ldi	r18, 0x00	; 0
     800:	30 e0       	ldi	r19, 0x00	; 0
	{
		_delay_us(2);
		if(comm & (1 << i)) PGD_HIGH
     802:	89 81       	ldd	r24, Y+1	; 0x01
     804:	90 e0       	ldi	r25, 0x00	; 0
     806:	4a e0       	ldi	r20, 0x0A	; 10
     808:	4a 95       	dec	r20
     80a:	f1 f7       	brne	.-4      	; 0x808 <p16f7x_readComm+0x26>
     80c:	00 c0       	rjmp	.+0      	; 0x80e <p16f7x_readComm+0x2c>
     80e:	ac 01       	movw	r20, r24
     810:	02 2e       	mov	r0, r18
     812:	02 c0       	rjmp	.+4      	; 0x818 <p16f7x_readComm+0x36>
     814:	55 95       	asr	r21
     816:	47 95       	ror	r20
     818:	0a 94       	dec	r0
     81a:	e2 f7       	brpl	.-8      	; 0x814 <p16f7x_readComm+0x32>
     81c:	40 ff       	sbrs	r20, 0
     81e:	02 c0       	rjmp	.+4      	; 0x824 <p16f7x_readComm+0x42>
     820:	29 9a       	sbi	0x05, 1	; 5
     822:	01 c0       	rjmp	.+2      	; 0x826 <p16f7x_readComm+0x44>
		else PGD_LOW
     824:	29 98       	cbi	0x05, 1	; 5
		PGC_HIGH
     826:	2a 9a       	sbi	0x05, 2	; 5
     828:	4a e0       	ldi	r20, 0x0A	; 10
     82a:	4a 95       	dec	r20
     82c:	f1 f7       	brne	.-4      	; 0x82a <p16f7x_readComm+0x48>
     82e:	00 c0       	rjmp	.+0      	; 0x830 <p16f7x_readComm+0x4e>
		_delay_us(2);
		PGC_LOW
     830:	2a 98       	cbi	0x05, 2	; 5
uint16_t p16f7x_readComm(uint8_t comm)
{
	uint16_t data = 0;
	pgd_write();
	_delay_us(5);
	for(int i = 0; i < 6; i++)
     832:	2f 5f       	subi	r18, 0xFF	; 255
     834:	3f 4f       	sbci	r19, 0xFF	; 255
     836:	26 30       	cpi	r18, 0x06	; 6
     838:	31 05       	cpc	r19, r1
     83a:	29 f7       	brne	.-54     	; 0x806 <p16f7x_readComm+0x24>
     83c:	8a e0       	ldi	r24, 0x0A	; 10
     83e:	8a 95       	dec	r24
     840:	f1 f7       	brne	.-4      	; 0x83e <p16f7x_readComm+0x5c>
     842:	00 c0       	rjmp	.+0      	; 0x844 <p16f7x_readComm+0x62>
		_delay_us(2);
		PGC_LOW
	}

	_delay_us(2);
	PGD_LOW
     844:	29 98       	cbi	0x05, 1	; 5
     846:	9a e0       	ldi	r25, 0x0A	; 10
     848:	9a 95       	dec	r25
     84a:	f1 f7       	brne	.-4      	; 0x848 <p16f7x_readComm+0x66>
     84c:	00 c0       	rjmp	.+0      	; 0x84e <p16f7x_readComm+0x6c>
	_delay_us(2);
	PGC_HIGH
     84e:	2a 9a       	sbi	0x05, 2	; 5
     850:	4a e0       	ldi	r20, 0x0A	; 10
     852:	4a 95       	dec	r20
     854:	f1 f7       	brne	.-4      	; 0x852 <p16f7x_readComm+0x70>
     856:	00 c0       	rjmp	.+0      	; 0x858 <p16f7x_readComm+0x76>
	_delay_us(2);
	PGC_LOW
     858:	2a 98       	cbi	0x05, 2	; 5
     85a:	85 e2       	ldi	r24, 0x25	; 37
     85c:	8a 95       	dec	r24
     85e:	f1 f7       	brne	.-4      	; 0x85c <p16f7x_readComm+0x7a>
     860:	00 00       	nop
	_delay_us(7);
	pgd_read();
     862:	0e 94 16 01 	call	0x22c	; 0x22c <pgd_read>
	for(int i = 0; i < 14; i++)
     866:	20 e0       	ldi	r18, 0x00	; 0
     868:	30 e0       	ldi	r19, 0x00	; 0
	return dat;
}

uint16_t p16f7x_readComm(uint8_t comm)
{
	uint16_t data = 0;
     86a:	00 e0       	ldi	r16, 0x00	; 0
     86c:	10 e0       	ldi	r17, 0x00	; 0
	{
		_delay_us(2);
		PGC_HIGH
		_delay_us(2);
		PGC_LOW
		if(PGD_IDR & (1 << PGD_PIN)) data |= (1 << i);
     86e:	81 e0       	ldi	r24, 0x01	; 1
     870:	90 e0       	ldi	r25, 0x00	; 0
     872:	4a e0       	ldi	r20, 0x0A	; 10
     874:	4a 95       	dec	r20
     876:	f1 f7       	brne	.-4      	; 0x874 <p16f7x_readComm+0x92>
     878:	00 c0       	rjmp	.+0      	; 0x87a <p16f7x_readComm+0x98>
	_delay_us(7);
	pgd_read();
	for(int i = 0; i < 14; i++)
	{
		_delay_us(2);
		PGC_HIGH
     87a:	2a 9a       	sbi	0x05, 2	; 5
     87c:	4a e0       	ldi	r20, 0x0A	; 10
     87e:	4a 95       	dec	r20
     880:	f1 f7       	brne	.-4      	; 0x87e <p16f7x_readComm+0x9c>
     882:	00 c0       	rjmp	.+0      	; 0x884 <p16f7x_readComm+0xa2>
		_delay_us(2);
		PGC_LOW
     884:	2a 98       	cbi	0x05, 2	; 5
		if(PGD_IDR & (1 << PGD_PIN)) data |= (1 << i);
     886:	19 9b       	sbis	0x03, 1	; 3
     888:	09 c0       	rjmp	.+18     	; 0x89c <p16f7x_readComm+0xba>
     88a:	ac 01       	movw	r20, r24
     88c:	02 2e       	mov	r0, r18
     88e:	02 c0       	rjmp	.+4      	; 0x894 <p16f7x_readComm+0xb2>
     890:	44 0f       	add	r20, r20
     892:	55 1f       	adc	r21, r21
     894:	0a 94       	dec	r0
     896:	e2 f7       	brpl	.-8      	; 0x890 <p16f7x_readComm+0xae>
     898:	04 2b       	or	r16, r20
     89a:	15 2b       	or	r17, r21
	PGC_HIGH
	_delay_us(2);
	PGC_LOW
	_delay_us(7);
	pgd_read();
	for(int i = 0; i < 14; i++)
     89c:	2f 5f       	subi	r18, 0xFF	; 255
     89e:	3f 4f       	sbci	r19, 0xFF	; 255
     8a0:	2e 30       	cpi	r18, 0x0E	; 14
     8a2:	31 05       	cpc	r19, r1
     8a4:	31 f7       	brne	.-52     	; 0x872 <p16f7x_readComm+0x90>
     8a6:	8a e0       	ldi	r24, 0x0A	; 10
     8a8:	8a 95       	dec	r24
     8aa:	f1 f7       	brne	.-4      	; 0x8a8 <p16f7x_readComm+0xc6>
     8ac:	00 c0       	rjmp	.+0      	; 0x8ae <p16f7x_readComm+0xcc>
		_delay_us(2);
		PGC_LOW
		if(PGD_IDR & (1 << PGD_PIN)) data |= (1 << i);
	}
	_delay_us(2);
	pgd_write();
     8ae:	0e 94 18 01 	call	0x230	; 0x230 <pgd_write>
	PGD_LOW
     8b2:	29 98       	cbi	0x05, 1	; 5
	PGC_HIGH
     8b4:	2a 9a       	sbi	0x05, 2	; 5
     8b6:	9a e0       	ldi	r25, 0x0A	; 10
     8b8:	9a 95       	dec	r25
     8ba:	f1 f7       	brne	.-4      	; 0x8b8 <p16f7x_readComm+0xd6>
     8bc:	00 c0       	rjmp	.+0      	; 0x8be <p16f7x_readComm+0xdc>
	_delay_us(2);
	PGC_LOW
     8be:	2a 98       	cbi	0x05, 2	; 5
     8c0:	45 e2       	ldi	r20, 0x25	; 37
     8c2:	4a 95       	dec	r20
     8c4:	f1 f7       	brne	.-4      	; 0x8c2 <p16f7x_readComm+0xe0>
     8c6:	00 00       	nop

	_delay_us(7);
	return data;
}
     8c8:	c8 01       	movw	r24, r16
     8ca:	0f 90       	pop	r0
     8cc:	df 91       	pop	r29
     8ce:	cf 91       	pop	r28
     8d0:	1f 91       	pop	r17
     8d2:	0f 91       	pop	r16
     8d4:	08 95       	ret

000008d6 <p18fx5xx_writeComm>:

void p18fx5xx_writeComm(uint8_t comm, uint16_t data)
{
     8d6:	0f 93       	push	r16
     8d8:	1f 93       	push	r17
     8da:	cf 93       	push	r28
     8dc:	df 93       	push	r29
     8de:	1f 92       	push	r1
     8e0:	cd b7       	in	r28, 0x3d	; 61
     8e2:	de b7       	in	r29, 0x3e	; 62
     8e4:	8b 01       	movw	r16, r22
	pgd_write();
     8e6:	89 83       	std	Y+1, r24	; 0x01
     8e8:	0e 94 18 01 	call	0x230	; 0x230 <pgd_write>
	PGD_LOW
     8ec:	29 98       	cbi	0x05, 1	; 5
     8ee:	25 e3       	ldi	r18, 0x35	; 53
     8f0:	2a 95       	dec	r18
     8f2:	f1 f7       	brne	.-4      	; 0x8f0 <p18fx5xx_writeComm+0x1a>
     8f4:	00 00       	nop
	_delay_us(10);
	for(int i = 0; i < 4; i++)
     8f6:	20 e0       	ldi	r18, 0x00	; 0
     8f8:	30 e0       	ldi	r19, 0x00	; 0
	{
		_delay_us(5);
		if(comm & (1 << i)) PGD_HIGH
     8fa:	89 81       	ldd	r24, Y+1	; 0x01
     8fc:	90 e0       	ldi	r25, 0x00	; 0
     8fe:	4a e1       	ldi	r20, 0x1A	; 26
     900:	4a 95       	dec	r20
     902:	f1 f7       	brne	.-4      	; 0x900 <__stack+0x1>
     904:	00 c0       	rjmp	.+0      	; 0x906 <__stack+0x7>
     906:	ac 01       	movw	r20, r24
     908:	02 2e       	mov	r0, r18
     90a:	02 c0       	rjmp	.+4      	; 0x910 <__stack+0x11>
     90c:	55 95       	asr	r21
     90e:	47 95       	ror	r20
     910:	0a 94       	dec	r0
     912:	e2 f7       	brpl	.-8      	; 0x90c <__stack+0xd>
     914:	40 ff       	sbrs	r20, 0
     916:	02 c0       	rjmp	.+4      	; 0x91c <__stack+0x1d>
     918:	29 9a       	sbi	0x05, 1	; 5
     91a:	01 c0       	rjmp	.+2      	; 0x91e <__stack+0x1f>
		else PGD_LOW
     91c:	29 98       	cbi	0x05, 1	; 5
		PGC_HIGH
     91e:	2a 9a       	sbi	0x05, 2	; 5
     920:	4a e1       	ldi	r20, 0x1A	; 26
     922:	4a 95       	dec	r20
     924:	f1 f7       	brne	.-4      	; 0x922 <__stack+0x23>
     926:	00 c0       	rjmp	.+0      	; 0x928 <__stack+0x29>
		_delay_us(5);
		PGC_LOW
     928:	2a 98       	cbi	0x05, 2	; 5
void p18fx5xx_writeComm(uint8_t comm, uint16_t data)
{
	pgd_write();
	PGD_LOW
	_delay_us(10);
	for(int i = 0; i < 4; i++)
     92a:	2f 5f       	subi	r18, 0xFF	; 255
     92c:	3f 4f       	sbci	r19, 0xFF	; 255
     92e:	24 30       	cpi	r18, 0x04	; 4
     930:	31 05       	cpc	r19, r1
     932:	29 f7       	brne	.-54     	; 0x8fe <p18fx5xx_writeComm+0x28>
     934:	8a e1       	ldi	r24, 0x1A	; 26
     936:	8a 95       	dec	r24
     938:	f1 f7       	brne	.-4      	; 0x936 <__stack+0x37>
     93a:	00 c0       	rjmp	.+0      	; 0x93c <__stack+0x3d>
		PGC_HIGH
		_delay_us(5);
		PGC_LOW
	}
	_delay_us(5);
	PGD_LOW
     93c:	29 98       	cbi	0x05, 1	; 5
     93e:	9a e1       	ldi	r25, 0x1A	; 26
     940:	9a 95       	dec	r25
     942:	f1 f7       	brne	.-4      	; 0x940 <__stack+0x41>
     944:	00 c0       	rjmp	.+0      	; 0x946 <__stack+0x47>
	_delay_us(5);

	for(int i = 0; i < 16; i++)
     946:	80 e0       	ldi	r24, 0x00	; 0
     948:	90 e0       	ldi	r25, 0x00	; 0
	{
		_delay_us(5);
		if(data & (1 << i)) PGD_HIGH
     94a:	41 e0       	ldi	r20, 0x01	; 1
     94c:	50 e0       	ldi	r21, 0x00	; 0
     94e:	2a e1       	ldi	r18, 0x1A	; 26
     950:	2a 95       	dec	r18
     952:	f1 f7       	brne	.-4      	; 0x950 <__stack+0x51>
     954:	00 c0       	rjmp	.+0      	; 0x956 <__stack+0x57>
     956:	9a 01       	movw	r18, r20
     958:	08 2e       	mov	r0, r24
     95a:	02 c0       	rjmp	.+4      	; 0x960 <__stack+0x61>
     95c:	22 0f       	add	r18, r18
     95e:	33 1f       	adc	r19, r19
     960:	0a 94       	dec	r0
     962:	e2 f7       	brpl	.-8      	; 0x95c <__stack+0x5d>
     964:	20 23       	and	r18, r16
     966:	31 23       	and	r19, r17
     968:	23 2b       	or	r18, r19
     96a:	11 f0       	breq	.+4      	; 0x970 <__stack+0x71>
     96c:	29 9a       	sbi	0x05, 1	; 5
     96e:	01 c0       	rjmp	.+2      	; 0x972 <__stack+0x73>
		else PGD_LOW
     970:	29 98       	cbi	0x05, 1	; 5
		PGC_HIGH
     972:	2a 9a       	sbi	0x05, 2	; 5
     974:	2a e1       	ldi	r18, 0x1A	; 26
     976:	2a 95       	dec	r18
     978:	f1 f7       	brne	.-4      	; 0x976 <__stack+0x77>
     97a:	00 c0       	rjmp	.+0      	; 0x97c <__stack+0x7d>
		_delay_us(5);
		PGC_LOW
     97c:	2a 98       	cbi	0x05, 2	; 5
	}
	_delay_us(5);
	PGD_LOW
	_delay_us(5);

	for(int i = 0; i < 16; i++)
     97e:	01 96       	adiw	r24, 0x01	; 1
     980:	80 31       	cpi	r24, 0x10	; 16
     982:	91 05       	cpc	r25, r1
     984:	21 f7       	brne	.-56     	; 0x94e <__stack+0x4f>
		else PGD_LOW
		PGC_HIGH
		_delay_us(5);
		PGC_LOW
	}
	PGD_LOW
     986:	29 98       	cbi	0x05, 1	; 5
     988:	45 e3       	ldi	r20, 0x35	; 53
     98a:	4a 95       	dec	r20
     98c:	f1 f7       	brne	.-4      	; 0x98a <__stack+0x8b>
     98e:	00 00       	nop
	_delay_us(10);
}
     990:	0f 90       	pop	r0
     992:	df 91       	pop	r29
     994:	cf 91       	pop	r28
     996:	1f 91       	pop	r17
     998:	0f 91       	pop	r16
     99a:	08 95       	ret

0000099c <p18fx5xx_writeNop>:

void p18fx5xx_writeNop(void)
{
	pgd_write();
     99c:	0e 94 18 01 	call	0x230	; 0x230 <pgd_write>
		PGC_LOW
     9a0:	2a 98       	cbi	0x05, 2	; 5
		PGD_LOW
     9a2:	29 98       	cbi	0x05, 1	; 5
     9a4:	2a e1       	ldi	r18, 0x1A	; 26
     9a6:	2a 95       	dec	r18
     9a8:	f1 f7       	brne	.-4      	; 0x9a6 <p18fx5xx_writeNop+0xa>
     9aa:	00 c0       	rjmp	.+0      	; 0x9ac <p18fx5xx_writeNop+0x10>
     9ac:	83 e0       	ldi	r24, 0x03	; 3
     9ae:	90 e0       	ldi	r25, 0x00	; 0
     9b0:	2a e1       	ldi	r18, 0x1A	; 26
     9b2:	2a 95       	dec	r18
     9b4:	f1 f7       	brne	.-4      	; 0x9b2 <p18fx5xx_writeNop+0x16>
     9b6:	00 c0       	rjmp	.+0      	; 0x9b8 <p18fx5xx_writeNop+0x1c>
		_delay_us(5);
		for(int i = 0; i < 3; i++)
		{
			_delay_us(5);
			PGC_HIGH
     9b8:	2a 9a       	sbi	0x05, 2	; 5
     9ba:	2a e1       	ldi	r18, 0x1A	; 26
     9bc:	2a 95       	dec	r18
     9be:	f1 f7       	brne	.-4      	; 0x9bc <p18fx5xx_writeNop+0x20>
     9c0:	00 c0       	rjmp	.+0      	; 0x9c2 <p18fx5xx_writeNop+0x26>
			_delay_us(5);
			PGC_LOW
     9c2:	2a 98       	cbi	0x05, 2	; 5
     9c4:	01 97       	sbiw	r24, 0x01	; 1
{
	pgd_write();
		PGC_LOW
		PGD_LOW
		_delay_us(5);
		for(int i = 0; i < 3; i++)
     9c6:	a1 f7       	brne	.-24     	; 0x9b0 <p18fx5xx_writeNop+0x14>
     9c8:	8a e1       	ldi	r24, 0x1A	; 26
     9ca:	8a 95       	dec	r24
     9cc:	f1 f7       	brne	.-4      	; 0x9ca <p18fx5xx_writeNop+0x2e>
     9ce:	00 c0       	rjmp	.+0      	; 0x9d0 <p18fx5xx_writeNop+0x34>
			PGC_HIGH
			_delay_us(5);
			PGC_LOW
		}
		_delay_us(5);
		PGC_HIGH
     9d0:	2a 9a       	sbi	0x05, 2	; 5
	#else
		//round up by default
		__ticks_dc = (uint32_t)(ceil(fabs(__tmp)));
	#endif

	__builtin_avr_delay_cycles(__ticks_dc);
     9d2:	8f e3       	ldi	r24, 0x3F	; 63
     9d4:	9f e1       	ldi	r25, 0x1F	; 31
     9d6:	01 97       	sbiw	r24, 0x01	; 1
     9d8:	f1 f7       	brne	.-4      	; 0x9d6 <p18fx5xx_writeNop+0x3a>
     9da:	00 c0       	rjmp	.+0      	; 0x9dc <p18fx5xx_writeNop+0x40>
     9dc:	00 00       	nop
		_delay_ms(2);
		PGC_LOW
     9de:	2a 98       	cbi	0x05, 2	; 5
	#else
		//round up by default
		__ticks_dc = (uint32_t)(ceil(fabs(__tmp)));
	#endif

	__builtin_avr_delay_cycles(__ticks_dc);
     9e0:	8f e8       	ldi	r24, 0x8F	; 143
     9e2:	91 e0       	ldi	r25, 0x01	; 1
     9e4:	01 97       	sbiw	r24, 0x01	; 1
     9e6:	f1 f7       	brne	.-4      	; 0x9e4 <p18fx5xx_writeNop+0x48>
     9e8:	00 c0       	rjmp	.+0      	; 0x9ea <p18fx5xx_writeNop+0x4e>
     9ea:	00 00       	nop
     9ec:	08 95       	ret

000009ee <p18fxxk80_password>:
		_delay_us(100);
}

void p18fxxk80_password(uint16_t psw0, uint16_t psw1)
{
     9ee:	cf 93       	push	r28
     9f0:	df 93       	push	r29
     9f2:	00 d0       	rcall	.+0      	; 0x9f4 <p18fxxk80_password+0x6>
     9f4:	00 d0       	rcall	.+0      	; 0x9f6 <p18fxxk80_password+0x8>
     9f6:	cd b7       	in	r28, 0x3d	; 61
     9f8:	de b7       	in	r29, 0x3e	; 62
	//uint16_t psw0 = 0x4D43;
	//uint16_t psw1 = 0x4850;

	uint16_t pass[] = {psw0, psw1};
     9fa:	9a 83       	std	Y+2, r25	; 0x02
     9fc:	89 83       	std	Y+1, r24	; 0x01
     9fe:	7c 83       	std	Y+4, r23	; 0x04
     a00:	6b 83       	std	Y+3, r22	; 0x03

	pgd_write();
     a02:	0e 94 18 01 	call	0x230	; 0x230 <pgd_write>
     a06:	2a e6       	ldi	r18, 0x6A	; 106
     a08:	2a 95       	dec	r18
     a0a:	f1 f7       	brne	.-4      	; 0xa08 <p18fxxk80_password+0x1a>
     a0c:	00 c0       	rjmp	.+0      	; 0xa0e <p18fxxk80_password+0x20>
     a0e:	fe 01       	movw	r30, r28
     a10:	31 96       	adiw	r30, 0x01	; 1
     a12:	be 01       	movw	r22, r28
     a14:	6b 5f       	subi	r22, 0xFB	; 251
     a16:	7f 4f       	sbci	r23, 0xFF	; 255
	for(int k = 0; k < 2; k++)
	{
		for(int i = 0; i < 16; i++)
		{
			_delay_us(10);
			if(pass[k] & (1 << (15 - i))) PGD_HIGH
     a18:	a1 e0       	ldi	r26, 0x01	; 1
     a1a:	b0 e0       	ldi	r27, 0x00	; 0
		PGC_LOW
		_delay_us(100);
}

void p18fxxk80_password(uint16_t psw0, uint16_t psw1)
{
     a1c:	8f e0       	ldi	r24, 0x0F	; 15
     a1e:	90 e0       	ldi	r25, 0x00	; 0
     a20:	25 e3       	ldi	r18, 0x35	; 53
     a22:	2a 95       	dec	r18
     a24:	f1 f7       	brne	.-4      	; 0xa22 <p18fxxk80_password+0x34>
     a26:	00 00       	nop
	for(int k = 0; k < 2; k++)
	{
		for(int i = 0; i < 16; i++)
		{
			_delay_us(10);
			if(pass[k] & (1 << (15 - i))) PGD_HIGH
     a28:	20 81       	ld	r18, Z
     a2a:	31 81       	ldd	r19, Z+1	; 0x01
     a2c:	ad 01       	movw	r20, r26
     a2e:	08 2e       	mov	r0, r24
     a30:	02 c0       	rjmp	.+4      	; 0xa36 <p18fxxk80_password+0x48>
     a32:	44 0f       	add	r20, r20
     a34:	55 1f       	adc	r21, r21
     a36:	0a 94       	dec	r0
     a38:	e2 f7       	brpl	.-8      	; 0xa32 <p18fxxk80_password+0x44>
     a3a:	24 23       	and	r18, r20
     a3c:	35 23       	and	r19, r21
     a3e:	23 2b       	or	r18, r19
     a40:	11 f0       	breq	.+4      	; 0xa46 <p18fxxk80_password+0x58>
     a42:	29 9a       	sbi	0x05, 1	; 5
     a44:	01 c0       	rjmp	.+2      	; 0xa48 <p18fxxk80_password+0x5a>
			else PGD_LOW
     a46:	29 98       	cbi	0x05, 1	; 5
			PGC_HIGH
     a48:	2a 9a       	sbi	0x05, 2	; 5
     a4a:	25 e3       	ldi	r18, 0x35	; 53
     a4c:	2a 95       	dec	r18
     a4e:	f1 f7       	brne	.-4      	; 0xa4c <p18fxxk80_password+0x5e>
     a50:	00 00       	nop
			_delay_us(10);
			PGC_LOW
     a52:	2a 98       	cbi	0x05, 2	; 5
     a54:	01 97       	sbiw	r24, 0x01	; 1
     a56:	20 f7       	brcc	.-56     	; 0xa20 <p18fxxk80_password+0x32>
     a58:	32 96       	adiw	r30, 0x02	; 2

	uint16_t pass[] = {psw0, psw1};

	pgd_write();
	_delay_us(20);
	for(int k = 0; k < 2; k++)
     a5a:	e6 17       	cp	r30, r22
     a5c:	f7 07       	cpc	r31, r23
     a5e:	f1 f6       	brne	.-68     	; 0xa1c <p18fxxk80_password+0x2e>
     a60:	8a e6       	ldi	r24, 0x6A	; 106
     a62:	8a 95       	dec	r24
     a64:	f1 f7       	brne	.-4      	; 0xa62 <p18fxxk80_password+0x74>
     a66:	00 c0       	rjmp	.+0      	; 0xa68 <p18fxxk80_password+0x7a>
			_delay_us(10);
			PGC_LOW
		}
	}
	_delay_us(20);
}
     a68:	0f 90       	pop	r0
     a6a:	0f 90       	pop	r0
     a6c:	0f 90       	pop	r0
     a6e:	0f 90       	pop	r0
     a70:	df 91       	pop	r29
     a72:	cf 91       	pop	r28
     a74:	08 95       	ret

00000a76 <p18fxxjxx_progMode>:
	}
}

void p18fxxjxx_progMode(void)
{
	VPP_LOW
     a76:	5e 98       	cbi	0x0b, 6	; 11
	pgd_write();
     a78:	0e 94 18 01 	call	0x230	; 0x230 <pgd_write>
	 PGM_LOW
     a7c:	40 98       	cbi	0x08, 0	; 8
	 PGC_LOW
     a7e:	2a 98       	cbi	0x05, 2	; 5
	 PGD_LOW
     a80:	29 98       	cbi	0x05, 1	; 5
     a82:	8a e6       	ldi	r24, 0x6A	; 106
     a84:	8a 95       	dec	r24
     a86:	f1 f7       	brne	.-4      	; 0xa84 <p18fxxjxx_progMode+0xe>
     a88:	00 c0       	rjmp	.+0      	; 0xa8a <p18fxxjxx_progMode+0x14>
	 _delay_us(20);
	 VDD_HIGH
     a8a:	5f 9a       	sbi	0x0b, 7	; 11
     a8c:	8a e6       	ldi	r24, 0x6A	; 106
     a8e:	8a 95       	dec	r24
     a90:	f1 f7       	brne	.-4      	; 0xa8e <p18fxxjxx_progMode+0x18>
     a92:	00 c0       	rjmp	.+0      	; 0xa94 <p18fxxjxx_progMode+0x1e>
	 _delay_us(20);
	 PGM_HIGH
     a94:	40 9a       	sbi	0x08, 0	; 8
     a96:	8a e6       	ldi	r24, 0x6A	; 106
     a98:	8a 95       	dec	r24
     a9a:	f1 f7       	brne	.-4      	; 0xa98 <p18fxxjxx_progMode+0x22>
     a9c:	00 c0       	rjmp	.+0      	; 0xa9e <p18fxxjxx_progMode+0x28>
	 _delay_us(20);
	 PGM_LOW
     a9e:	40 98       	cbi	0x08, 0	; 8
     aa0:	8a e6       	ldi	r24, 0x6A	; 106
     aa2:	8a 95       	dec	r24
     aa4:	f1 f7       	brne	.-4      	; 0xaa2 <p18fxxjxx_progMode+0x2c>
     aa6:	00 c0       	rjmp	.+0      	; 0xaa8 <p18fxxjxx_progMode+0x32>
	 _delay_us(20);
	 p18fxxk80_password(0x4D43, 0x4850);
     aa8:	60 e5       	ldi	r22, 0x50	; 80
     aaa:	78 e4       	ldi	r23, 0x48	; 72
     aac:	83 e4       	ldi	r24, 0x43	; 67
     aae:	9d e4       	ldi	r25, 0x4D	; 77
     ab0:	0e 94 f7 04 	call	0x9ee	; 0x9ee <p18fxxk80_password>
     ab4:	8a e6       	ldi	r24, 0x6A	; 106
     ab6:	8a 95       	dec	r24
     ab8:	f1 f7       	brne	.-4      	; 0xab6 <p18fxxjxx_progMode+0x40>
     aba:	00 c0       	rjmp	.+0      	; 0xabc <p18fxxjxx_progMode+0x46>
	 _delay_us(20);
	 PGM_HIGH
     abc:	40 9a       	sbi	0x08, 0	; 8
     abe:	08 95       	ret

00000ac0 <progMode>:
	  _delay_ms(2);
}

void progMode(void)
{
	switch(device)
     ac0:	80 91 17 03 	lds	r24, 0x0317	; 0x800317 <device>
     ac4:	85 30       	cpi	r24, 0x05	; 5
     ac6:	61 f0       	breq	.+24     	; 0xae0 <progMode+0x20>
     ac8:	18 f4       	brcc	.+6      	; 0xad0 <progMode+0x10>
     aca:	82 30       	cpi	r24, 0x02	; 2
     acc:	39 f0       	breq	.+14     	; 0xadc <progMode+0x1c>
     ace:	10 c0       	rjmp	.+32     	; 0xaf0 <progMode+0x30>
     ad0:	86 30       	cpi	r24, 0x06	; 6
     ad2:	21 f0       	breq	.+8      	; 0xadc <progMode+0x1c>
     ad4:	8d 30       	cpi	r24, 0x0D	; 13
     ad6:	61 f4       	brne	.+24     	; 0xaf0 <progMode+0x30>
		case 0x02: {p16f628A_progMode(); break;}
		case 0x06: {p16f628A_progMode(); break;}
#ifdef PIC18FXXK80
		case 0x05: {p16f7x_progMode(); p18fxxk80_password(0x4D43, 0x4850); break;}
#endif
		case 0x0D: {p18fxxjxx_progMode(); break;}
     ad8:	0c 94 3b 05 	jmp	0xa76	; 0xa76 <p18fxxjxx_progMode>
void progMode(void)
{
	switch(device)
	{
		case 0x02: {p16f628A_progMode(); break;}
		case 0x06: {p16f628A_progMode(); break;}
     adc:	0c 94 a9 01 	jmp	0x352	; 0x352 <p16f628A_progMode>
#ifdef PIC18FXXK80
		case 0x05: {p16f7x_progMode(); p18fxxk80_password(0x4D43, 0x4850); break;}
     ae0:	0e 94 8f 01 	call	0x31e	; 0x31e <p16f7x_progMode>
     ae4:	60 e5       	ldi	r22, 0x50	; 80
     ae6:	78 e4       	ldi	r23, 0x48	; 72
     ae8:	83 e4       	ldi	r24, 0x43	; 67
     aea:	9d e4       	ldi	r25, 0x4D	; 77
     aec:	0c 94 f7 04 	jmp	0x9ee	; 0x9ee <p18fxxk80_password>
#endif
		case 0x0D: {p18fxxjxx_progMode(); break;}
		default: {p16f7x_progMode(); break;}
     af0:	0c 94 8f 01 	jmp	0x31e	; 0x31e <p16f7x_progMode>

00000af4 <p18fx5xx_readComm>:
	}
	_delay_us(20);
}

uint8_t p18fx5xx_readComm(uint8_t comm, uint8_t data)
{
     af4:	cf 93       	push	r28
     af6:	df 93       	push	r29
     af8:	00 d0       	rcall	.+0      	; 0xafa <p18fx5xx_readComm+0x6>
     afa:	cd b7       	in	r28, 0x3d	; 61
     afc:	de b7       	in	r29, 0x3e	; 62
	uint8_t result = 0;

	pgd_write();
     afe:	69 83       	std	Y+1, r22	; 0x01
     b00:	8a 83       	std	Y+2, r24	; 0x02
     b02:	0e 94 18 01 	call	0x230	; 0x230 <pgd_write>
		PGD_LOW
     b06:	29 98       	cbi	0x05, 1	; 5
     b08:	25 e3       	ldi	r18, 0x35	; 53
     b0a:	2a 95       	dec	r18
     b0c:	f1 f7       	brne	.-4      	; 0xb0a <p18fx5xx_readComm+0x16>
     b0e:	00 00       	nop
		_delay_us(10);
		for(int i = 0; i < 4; i++)
     b10:	20 e0       	ldi	r18, 0x00	; 0
     b12:	30 e0       	ldi	r19, 0x00	; 0
		{
			_delay_us(5);
			if(comm & (1 << i)) PGD_HIGH
     b14:	8a 81       	ldd	r24, Y+2	; 0x02
     b16:	90 e0       	ldi	r25, 0x00	; 0
     b18:	69 81       	ldd	r22, Y+1	; 0x01
     b1a:	4a e1       	ldi	r20, 0x1A	; 26
     b1c:	4a 95       	dec	r20
     b1e:	f1 f7       	brne	.-4      	; 0xb1c <p18fx5xx_readComm+0x28>
     b20:	00 c0       	rjmp	.+0      	; 0xb22 <p18fx5xx_readComm+0x2e>
     b22:	ac 01       	movw	r20, r24
     b24:	02 2e       	mov	r0, r18
     b26:	02 c0       	rjmp	.+4      	; 0xb2c <p18fx5xx_readComm+0x38>
     b28:	55 95       	asr	r21
     b2a:	47 95       	ror	r20
     b2c:	0a 94       	dec	r0
     b2e:	e2 f7       	brpl	.-8      	; 0xb28 <p18fx5xx_readComm+0x34>
     b30:	40 ff       	sbrs	r20, 0
     b32:	02 c0       	rjmp	.+4      	; 0xb38 <p18fx5xx_readComm+0x44>
     b34:	29 9a       	sbi	0x05, 1	; 5
     b36:	01 c0       	rjmp	.+2      	; 0xb3a <p18fx5xx_readComm+0x46>
			else PGD_LOW
     b38:	29 98       	cbi	0x05, 1	; 5
			PGC_HIGH
     b3a:	2a 9a       	sbi	0x05, 2	; 5
     b3c:	4a e1       	ldi	r20, 0x1A	; 26
     b3e:	4a 95       	dec	r20
     b40:	f1 f7       	brne	.-4      	; 0xb3e <p18fx5xx_readComm+0x4a>
     b42:	00 c0       	rjmp	.+0      	; 0xb44 <p18fx5xx_readComm+0x50>
			_delay_us(5);
			PGC_LOW
     b44:	2a 98       	cbi	0x05, 2	; 5
	uint8_t result = 0;

	pgd_write();
		PGD_LOW
		_delay_us(10);
		for(int i = 0; i < 4; i++)
     b46:	2f 5f       	subi	r18, 0xFF	; 255
     b48:	3f 4f       	sbci	r19, 0xFF	; 255
     b4a:	24 30       	cpi	r18, 0x04	; 4
     b4c:	31 05       	cpc	r19, r1
     b4e:	29 f7       	brne	.-54     	; 0xb1a <p18fx5xx_readComm+0x26>
     b50:	8a e1       	ldi	r24, 0x1A	; 26
     b52:	8a 95       	dec	r24
     b54:	f1 f7       	brne	.-4      	; 0xb52 <p18fx5xx_readComm+0x5e>
     b56:	00 c0       	rjmp	.+0      	; 0xb58 <p18fx5xx_readComm+0x64>
			PGC_HIGH
			_delay_us(5);
			PGC_LOW
		}
		_delay_us(5);
		PGD_LOW
     b58:	29 98       	cbi	0x05, 1	; 5
     b5a:	9a e1       	ldi	r25, 0x1A	; 26
     b5c:	9a 95       	dec	r25
     b5e:	f1 f7       	brne	.-4      	; 0xb5c <p18fx5xx_readComm+0x68>
     b60:	00 c0       	rjmp	.+0      	; 0xb62 <p18fx5xx_readComm+0x6e>
		_delay_us(5);

		for(int i = 0; i < 8; i++)
     b62:	80 e0       	ldi	r24, 0x00	; 0
     b64:	90 e0       	ldi	r25, 0x00	; 0
		{
			_delay_us(5);
			if(data & (1 << i)) PGD_HIGH
     b66:	70 e0       	ldi	r23, 0x00	; 0
     b68:	2a e1       	ldi	r18, 0x1A	; 26
     b6a:	2a 95       	dec	r18
     b6c:	f1 f7       	brne	.-4      	; 0xb6a <p18fx5xx_readComm+0x76>
     b6e:	00 c0       	rjmp	.+0      	; 0xb70 <p18fx5xx_readComm+0x7c>
     b70:	9b 01       	movw	r18, r22
     b72:	08 2e       	mov	r0, r24
     b74:	02 c0       	rjmp	.+4      	; 0xb7a <p18fx5xx_readComm+0x86>
     b76:	35 95       	asr	r19
     b78:	27 95       	ror	r18
     b7a:	0a 94       	dec	r0
     b7c:	e2 f7       	brpl	.-8      	; 0xb76 <p18fx5xx_readComm+0x82>
     b7e:	20 ff       	sbrs	r18, 0
     b80:	02 c0       	rjmp	.+4      	; 0xb86 <p18fx5xx_readComm+0x92>
     b82:	29 9a       	sbi	0x05, 1	; 5
     b84:	01 c0       	rjmp	.+2      	; 0xb88 <p18fx5xx_readComm+0x94>
			else PGD_LOW
     b86:	29 98       	cbi	0x05, 1	; 5
			PGC_HIGH
     b88:	2a 9a       	sbi	0x05, 2	; 5
     b8a:	4a e1       	ldi	r20, 0x1A	; 26
     b8c:	4a 95       	dec	r20
     b8e:	f1 f7       	brne	.-4      	; 0xb8c <p18fx5xx_readComm+0x98>
     b90:	00 c0       	rjmp	.+0      	; 0xb92 <p18fx5xx_readComm+0x9e>
			_delay_us(5);
			PGC_LOW
     b92:	2a 98       	cbi	0x05, 2	; 5
		}
		_delay_us(5);
		PGD_LOW
		_delay_us(5);

		for(int i = 0; i < 8; i++)
     b94:	01 96       	adiw	r24, 0x01	; 1
     b96:	88 30       	cpi	r24, 0x08	; 8
     b98:	91 05       	cpc	r25, r1
     b9a:	31 f7       	brne	.-52     	; 0xb68 <p18fx5xx_readComm+0x74>
			PGC_HIGH
			_delay_us(5);
			PGC_LOW
		}

		pgd_read();
     b9c:	0e 94 16 01 	call	0x22c	; 0x22c <pgd_read>
     ba0:	8a e1       	ldi	r24, 0x1A	; 26
     ba2:	8a 95       	dec	r24
     ba4:	f1 f7       	brne	.-4      	; 0xba2 <p18fx5xx_readComm+0xae>
     ba6:	00 c0       	rjmp	.+0      	; 0xba8 <p18fx5xx_readComm+0xb4>
		_delay_us(5);

		for(int i = 0; i < 8; i++)
     ba8:	20 e0       	ldi	r18, 0x00	; 0
     baa:	30 e0       	ldi	r19, 0x00	; 0
	_delay_us(20);
}

uint8_t p18fx5xx_readComm(uint8_t comm, uint8_t data)
{
	uint8_t result = 0;
     bac:	80 e0       	ldi	r24, 0x00	; 0
		{
			_delay_us(5);
			PGC_HIGH
			_delay_us(5);
			PGC_LOW
			if(PGD_IDR & (1 << PGD_PIN)) result |= (1 << i);
     bae:	41 e0       	ldi	r20, 0x01	; 1
     bb0:	50 e0       	ldi	r21, 0x00	; 0
     bb2:	9a e1       	ldi	r25, 0x1A	; 26
     bb4:	9a 95       	dec	r25
     bb6:	f1 f7       	brne	.-4      	; 0xbb4 <p18fx5xx_readComm+0xc0>
     bb8:	00 c0       	rjmp	.+0      	; 0xbba <p18fx5xx_readComm+0xc6>
		_delay_us(5);

		for(int i = 0; i < 8; i++)
		{
			_delay_us(5);
			PGC_HIGH
     bba:	2a 9a       	sbi	0x05, 2	; 5
     bbc:	9a e1       	ldi	r25, 0x1A	; 26
     bbe:	9a 95       	dec	r25
     bc0:	f1 f7       	brne	.-4      	; 0xbbe <p18fx5xx_readComm+0xca>
     bc2:	00 c0       	rjmp	.+0      	; 0xbc4 <p18fx5xx_readComm+0xd0>
			_delay_us(5);
			PGC_LOW
     bc4:	2a 98       	cbi	0x05, 2	; 5
			if(PGD_IDR & (1 << PGD_PIN)) result |= (1 << i);
     bc6:	19 9b       	sbis	0x03, 1	; 3
     bc8:	07 c0       	rjmp	.+14     	; 0xbd8 <p18fx5xx_readComm+0xe4>
     bca:	ba 01       	movw	r22, r20
     bcc:	02 2e       	mov	r0, r18
     bce:	01 c0       	rjmp	.+2      	; 0xbd2 <p18fx5xx_readComm+0xde>
     bd0:	66 0f       	add	r22, r22
     bd2:	0a 94       	dec	r0
     bd4:	ea f7       	brpl	.-6      	; 0xbd0 <p18fx5xx_readComm+0xdc>
     bd6:	86 2b       	or	r24, r22
		}

		pgd_read();
		_delay_us(5);

		for(int i = 0; i < 8; i++)
     bd8:	2f 5f       	subi	r18, 0xFF	; 255
     bda:	3f 4f       	sbci	r19, 0xFF	; 255
     bdc:	28 30       	cpi	r18, 0x08	; 8
     bde:	31 05       	cpc	r19, r1
     be0:	41 f7       	brne	.-48     	; 0xbb2 <p18fx5xx_readComm+0xbe>
			PGC_HIGH
			_delay_us(5);
			PGC_LOW
			if(PGD_IDR & (1 << PGD_PIN)) result |= (1 << i);
		}
		pgd_write();
     be2:	8a 83       	std	Y+2, r24	; 0x02
     be4:	0e 94 18 01 	call	0x230	; 0x230 <pgd_write>
		PGD_LOW
     be8:	29 98       	cbi	0x05, 1	; 5
     bea:	25 e3       	ldi	r18, 0x35	; 53
     bec:	2a 95       	dec	r18
     bee:	f1 f7       	brne	.-4      	; 0xbec <p18fx5xx_readComm+0xf8>
     bf0:	00 00       	nop
		_delay_us(10);
		return result;
}
     bf2:	8a 81       	ldd	r24, Y+2	; 0x02
     bf4:	0f 90       	pop	r0
     bf6:	0f 90       	pop	r0
     bf8:	df 91       	pop	r29
     bfa:	cf 91       	pop	r28
     bfc:	08 95       	ret

00000bfe <p18fx5xx_setDP>:


//    
void p18fx5xx_setDP(uint8_t h_add, uint8_t m_add, uint8_t l_add)
{
     bfe:	1f 93       	push	r17
     c00:	cf 93       	push	r28
     c02:	df 93       	push	r29
     c04:	1f 92       	push	r1
     c06:	cd b7       	in	r28, 0x3d	; 61
     c08:	de b7       	in	r29, 0x3e	; 62
     c0a:	16 2f       	mov	r17, r22
	p18fx5xx_writeComm(P18FX5XX_CORE_INSTR, (0x0E00 | h_add));
     c0c:	68 2f       	mov	r22, r24
     c0e:	70 e0       	ldi	r23, 0x00	; 0
     c10:	7e 60       	ori	r23, 0x0E	; 14
     c12:	80 e0       	ldi	r24, 0x00	; 0
     c14:	49 83       	std	Y+1, r20	; 0x01
     c16:	0e 94 6b 04 	call	0x8d6	; 0x8d6 <p18fx5xx_writeComm>
	p18fx5xx_writeComm(P18FX5XX_CORE_INSTR, 0x6EF8);
     c1a:	68 ef       	ldi	r22, 0xF8	; 248
     c1c:	7e e6       	ldi	r23, 0x6E	; 110
     c1e:	80 e0       	ldi	r24, 0x00	; 0
     c20:	0e 94 6b 04 	call	0x8d6	; 0x8d6 <p18fx5xx_writeComm>
	p18fx5xx_writeComm(P18FX5XX_CORE_INSTR, (0x0E00 | m_add));
     c24:	61 2f       	mov	r22, r17
     c26:	70 e0       	ldi	r23, 0x00	; 0
     c28:	7e 60       	ori	r23, 0x0E	; 14
     c2a:	80 e0       	ldi	r24, 0x00	; 0
     c2c:	0e 94 6b 04 	call	0x8d6	; 0x8d6 <p18fx5xx_writeComm>
	p18fx5xx_writeComm(P18FX5XX_CORE_INSTR, 0x6EF7);
     c30:	67 ef       	ldi	r22, 0xF7	; 247
     c32:	7e e6       	ldi	r23, 0x6E	; 110
     c34:	80 e0       	ldi	r24, 0x00	; 0
     c36:	0e 94 6b 04 	call	0x8d6	; 0x8d6 <p18fx5xx_writeComm>
	p18fx5xx_writeComm(P18FX5XX_CORE_INSTR, (0x0E00 | l_add));
     c3a:	49 81       	ldd	r20, Y+1	; 0x01
     c3c:	64 2f       	mov	r22, r20
     c3e:	70 e0       	ldi	r23, 0x00	; 0
     c40:	7e 60       	ori	r23, 0x0E	; 14
     c42:	80 e0       	ldi	r24, 0x00	; 0
     c44:	0e 94 6b 04 	call	0x8d6	; 0x8d6 <p18fx5xx_writeComm>
	p18fx5xx_writeComm(P18FX5XX_CORE_INSTR, 0x6EF6);
     c48:	66 ef       	ldi	r22, 0xF6	; 246
     c4a:	7e e6       	ldi	r23, 0x6E	; 110
     c4c:	80 e0       	ldi	r24, 0x00	; 0
}
     c4e:	0f 90       	pop	r0
     c50:	df 91       	pop	r29
     c52:	cf 91       	pop	r28
     c54:	1f 91       	pop	r17
	p18fx5xx_writeComm(P18FX5XX_CORE_INSTR, (0x0E00 | h_add));
	p18fx5xx_writeComm(P18FX5XX_CORE_INSTR, 0x6EF8);
	p18fx5xx_writeComm(P18FX5XX_CORE_INSTR, (0x0E00 | m_add));
	p18fx5xx_writeComm(P18FX5XX_CORE_INSTR, 0x6EF7);
	p18fx5xx_writeComm(P18FX5XX_CORE_INSTR, (0x0E00 | l_add));
	p18fx5xx_writeComm(P18FX5XX_CORE_INSTR, 0x6EF6);
     c56:	0c 94 6b 04 	jmp	0x8d6	; 0x8d6 <p18fx5xx_writeComm>

00000c5a <p16f7x_reset>:
}


void p16f7x_reset(void)
{
	  VPP_LOW
     c5a:	5e 98       	cbi	0x0b, 6	; 11
	  VDD_LOW
     c5c:	5f 98       	cbi	0x0b, 7	; 11
	  PGM_LOW
     c5e:	40 98       	cbi	0x08, 0	; 8
	  PGC_LOW
     c60:	2a 98       	cbi	0x05, 2	; 5
	  PGD_LOW
     c62:	29 98       	cbi	0x05, 1	; 5
     c64:	8f e1       	ldi	r24, 0x1F	; 31
     c66:	93 e0       	ldi	r25, 0x03	; 3
     c68:	01 97       	sbiw	r24, 0x01	; 1
     c6a:	f1 f7       	brne	.-4      	; 0xc68 <p16f7x_reset+0xe>
     c6c:	00 c0       	rjmp	.+0      	; 0xc6e <p16f7x_reset+0x14>
     c6e:	00 00       	nop
     c70:	08 95       	ret

00000c72 <p18fxxjxx_reset>:
	  _delay_us(200);
}

void p18fxxjxx_reset(void)
{
	  PGM_LOW
     c72:	40 98       	cbi	0x08, 0	; 8
	  VDD_LOW
     c74:	5f 98       	cbi	0x0b, 7	; 11
	  PGM_LOW
     c76:	40 98       	cbi	0x08, 0	; 8
	  PGC_LOW
     c78:	2a 98       	cbi	0x05, 2	; 5
	  PGD_LOW
     c7a:	29 98       	cbi	0x05, 1	; 5
     c7c:	8f e1       	ldi	r24, 0x1F	; 31
     c7e:	93 e0       	ldi	r25, 0x03	; 3
     c80:	01 97       	sbiw	r24, 0x01	; 1
     c82:	f1 f7       	brne	.-4      	; 0xc80 <p18fxxjxx_reset+0xe>
     c84:	00 c0       	rjmp	.+0      	; 0xc86 <p18fxxjxx_reset+0x14>
     c86:	00 00       	nop
     c88:	08 95       	ret

00000c8a <reset>:
	}
}

void reset(void)
{
	switch(device)
     c8a:	80 91 17 03 	lds	r24, 0x0317	; 0x800317 <device>
     c8e:	8d 30       	cpi	r24, 0x0D	; 13
     c90:	11 f4       	brne	.+4      	; 0xc96 <reset+0xc>
	{
		case 0x0D: {p18fxxjxx_reset(); break;}
     c92:	0c 94 39 06 	jmp	0xc72	; 0xc72 <p18fxxjxx_reset>
		default: {p16f7x_reset(); break;}
     c96:	0c 94 2d 06 	jmp	0xc5a	; 0xc5a <p16f7x_reset>

00000c9a <p16f7x_getId>:
	  PGD_LOW
	  _delay_us(200);
}

void p16f7x_getId(void)
{
     c9a:	0f 93       	push	r16
     c9c:	1f 93       	push	r17
     c9e:	cf 93       	push	r28
     ca0:	df 93       	push	r29
     ca2:	00 d0       	rcall	.+0      	; 0xca4 <p16f7x_getId+0xa>
     ca4:	cd b7       	in	r28, 0x3d	; 61
     ca6:	de b7       	in	r29, 0x3e	; 62
	uint16_t id;

	progMode();
     ca8:	0e 94 60 05 	call	0xac0	; 0xac0 <progMode>

	p16f7x_writeComm(P16F7X_LOAD_CONF, 0x0000, 0);
     cac:	40 e0       	ldi	r20, 0x00	; 0
     cae:	60 e0       	ldi	r22, 0x00	; 0
     cb0:	70 e0       	ldi	r23, 0x00	; 0
     cb2:	80 e0       	ldi	r24, 0x00	; 0
     cb4:	0e 94 c3 01 	call	0x386	; 0x386 <p16f7x_writeComm>
     cb8:	06 e0       	ldi	r16, 0x06	; 6
     cba:	10 e0       	ldi	r17, 0x00	; 0
	for(int i = 0; i < 6; i++) p16f7x_writeComm(P16F7X_INC_ADD, 0x0000, 1);
     cbc:	41 e0       	ldi	r20, 0x01	; 1
     cbe:	60 e0       	ldi	r22, 0x00	; 0
     cc0:	70 e0       	ldi	r23, 0x00	; 0
     cc2:	86 e0       	ldi	r24, 0x06	; 6
     cc4:	0e 94 c3 01 	call	0x386	; 0x386 <p16f7x_writeComm>
     cc8:	01 50       	subi	r16, 0x01	; 1
     cca:	11 09       	sbc	r17, r1
     ccc:	b9 f7       	brne	.-18     	; 0xcbc <p16f7x_getId+0x22>
	id = p16f7x_readComm(P16F7X_READ_DATA);
     cce:	84 e0       	ldi	r24, 0x04	; 4
     cd0:	0e 94 f1 03 	call	0x7e2	; 0x7e2 <p16f7x_readComm>
	reset();
     cd4:	89 83       	std	Y+1, r24	; 0x01
     cd6:	9a 83       	std	Y+2, r25	; 0x02
     cd8:	0e 94 45 06 	call	0xc8a	; 0xc8a <reset>

	main_buff[0] = 0xFE;
     cdc:	2e ef       	ldi	r18, 0xFE	; 254
     cde:	20 93 6a 01 	sts	0x016A, r18	; 0x80016a <main_buff>
	main_buff[1] = 0x02;
     ce2:	22 e0       	ldi	r18, 0x02	; 2
     ce4:	20 93 6b 01 	sts	0x016B, r18	; 0x80016b <main_buff+0x1>
	main_buff[2] = 0xA0;
     ce8:	20 ea       	ldi	r18, 0xA0	; 160
     cea:	20 93 6c 01 	sts	0x016C, r18	; 0x80016c <main_buff+0x2>
	main_buff[3] = (id >> 8);
     cee:	9a 81       	ldd	r25, Y+2	; 0x02
     cf0:	90 93 6d 01 	sts	0x016D, r25	; 0x80016d <main_buff+0x3>
	main_buff[4] = (id & 0xFF);
     cf4:	89 81       	ldd	r24, Y+1	; 0x01
     cf6:	80 93 6e 01 	sts	0x016E, r24	; 0x80016e <main_buff+0x4>
	send_frame(main_buff, 5);
     cfa:	65 e0       	ldi	r22, 0x05	; 5
     cfc:	8a e6       	ldi	r24, 0x6A	; 106
     cfe:	91 e0       	ldi	r25, 0x01	; 1
}
     d00:	0f 90       	pop	r0
     d02:	0f 90       	pop	r0
     d04:	df 91       	pop	r29
     d06:	cf 91       	pop	r28
     d08:	1f 91       	pop	r17
     d0a:	0f 91       	pop	r16
	main_buff[0] = 0xFE;
	main_buff[1] = 0x02;
	main_buff[2] = 0xA0;
	main_buff[3] = (id >> 8);
	main_buff[4] = (id & 0xFF);
	send_frame(main_buff, 5);
     d0c:	0c 94 25 1a 	jmp	0x344a	; 0x344a <send_frame>

00000d10 <p16f184xx_getId>:
}

void p16f184xx_getId(void)
{
     d10:	0f 93       	push	r16
     d12:	cf 93       	push	r28
     d14:	df 93       	push	r29
     d16:	00 d0       	rcall	.+0      	; 0xd18 <p16f184xx_getId+0x8>
     d18:	cd b7       	in	r28, 0x3d	; 61
     d1a:	de b7       	in	r29, 0x3e	; 62
	uint16_t id;

	progMode();
     d1c:	0e 94 60 05 	call	0xac0	; 0xac0 <progMode>
	if(device == 0x12) p16f184xx_writeComm(0x80, 0, 0x00, 0x80, 0x06); //P16F184xx
     d20:	80 91 17 03 	lds	r24, 0x0317	; 0x800317 <device>
     d24:	82 31       	cpi	r24, 0x12	; 18
     d26:	39 f4       	brne	.+14     	; 0xd36 <p16f184xx_getId+0x26>
     d28:	06 e0       	ldi	r16, 0x06	; 6
     d2a:	20 e8       	ldi	r18, 0x80	; 128
     d2c:	40 e0       	ldi	r20, 0x00	; 0
     d2e:	60 e0       	ldi	r22, 0x00	; 0
     d30:	80 e8       	ldi	r24, 0x80	; 128
     d32:	0e 94 d4 02 	call	0x5a8	; 0x5a8 <p16f184xx_writeComm>
	if(device == 0x13) p16f184xx_writeComm(0x80, 0, 0x3F, 0xFF, 0xFE); //P18F2xQ10/4xQ10
     d36:	80 91 17 03 	lds	r24, 0x0317	; 0x800317 <device>
     d3a:	83 31       	cpi	r24, 0x13	; 19
     d3c:	39 f4       	brne	.+14     	; 0xd4c <p16f184xx_getId+0x3c>
     d3e:	0e ef       	ldi	r16, 0xFE	; 254
     d40:	2f ef       	ldi	r18, 0xFF	; 255
     d42:	4f e3       	ldi	r20, 0x3F	; 63
     d44:	60 e0       	ldi	r22, 0x00	; 0
     d46:	80 e8       	ldi	r24, 0x80	; 128
     d48:	0e 94 d4 02 	call	0x5a8	; 0x5a8 <p16f184xx_writeComm>
	id = p16f184xx_readComm(0xFC);
     d4c:	8c ef       	ldi	r24, 0xFC	; 252
     d4e:	0e 94 7c 03 	call	0x6f8	; 0x6f8 <p16f184xx_readComm>
	reset();
     d52:	89 83       	std	Y+1, r24	; 0x01
     d54:	9a 83       	std	Y+2, r25	; 0x02
     d56:	0e 94 45 06 	call	0xc8a	; 0xc8a <reset>

	main_buff[0] = 0xFE;
     d5a:	2e ef       	ldi	r18, 0xFE	; 254
     d5c:	20 93 6a 01 	sts	0x016A, r18	; 0x80016a <main_buff>
	main_buff[1] = 0x02;
     d60:	22 e0       	ldi	r18, 0x02	; 2
     d62:	20 93 6b 01 	sts	0x016B, r18	; 0x80016b <main_buff+0x1>
	main_buff[2] = 0xA0;
     d66:	20 ea       	ldi	r18, 0xA0	; 160
     d68:	20 93 6c 01 	sts	0x016C, r18	; 0x80016c <main_buff+0x2>
	main_buff[3] = (id >> 8);
     d6c:	9a 81       	ldd	r25, Y+2	; 0x02
     d6e:	90 93 6d 01 	sts	0x016D, r25	; 0x80016d <main_buff+0x3>
	main_buff[4] = (id & 0xFF);
     d72:	89 81       	ldd	r24, Y+1	; 0x01
     d74:	80 93 6e 01 	sts	0x016E, r24	; 0x80016e <main_buff+0x4>
	send_frame(main_buff, 5);
     d78:	65 e0       	ldi	r22, 0x05	; 5
     d7a:	8a e6       	ldi	r24, 0x6A	; 106
     d7c:	91 e0       	ldi	r25, 0x01	; 1
}
     d7e:	0f 90       	pop	r0
     d80:	0f 90       	pop	r0
     d82:	df 91       	pop	r29
     d84:	cf 91       	pop	r28
     d86:	0f 91       	pop	r16
	main_buff[0] = 0xFE;
	main_buff[1] = 0x02;
	main_buff[2] = 0xA0;
	main_buff[3] = (id >> 8);
	main_buff[4] = (id & 0xFF);
	send_frame(main_buff, 5);
     d88:	0c 94 25 1a 	jmp	0x344a	; 0x344a <send_frame>

00000d8c <p18fx5xx_getId>:
}

void p18fx5xx_getId(void)
{
     d8c:	cf 93       	push	r28
     d8e:	df 93       	push	r29
	progMode();
     d90:	0e 94 60 05 	call	0xac0	; 0xac0 <progMode>

	p18fx5xx_setDP(0x3F, 0xFF, 0xFE);
     d94:	4e ef       	ldi	r20, 0xFE	; 254
     d96:	6f ef       	ldi	r22, 0xFF	; 255
     d98:	8f e3       	ldi	r24, 0x3F	; 63
     d9a:	0e 94 ff 05 	call	0xbfe	; 0xbfe <p18fx5xx_setDP>
	main_buff[4] = p18fx5xx_readComm(P18FX5XX_TABLE_RDPI, 0x00);
     d9e:	60 e0       	ldi	r22, 0x00	; 0
     da0:	89 e0       	ldi	r24, 0x09	; 9
     da2:	0e 94 7a 05 	call	0xaf4	; 0xaf4 <p18fx5xx_readComm>
     da6:	ca e6       	ldi	r28, 0x6A	; 106
     da8:	d1 e0       	ldi	r29, 0x01	; 1
     daa:	8c 83       	std	Y+4, r24	; 0x04
	p18fx5xx_setDP(0x3F, 0xFF, 0xFF);
     dac:	4f ef       	ldi	r20, 0xFF	; 255
     dae:	6f ef       	ldi	r22, 0xFF	; 255
     db0:	8f e3       	ldi	r24, 0x3F	; 63
     db2:	0e 94 ff 05 	call	0xbfe	; 0xbfe <p18fx5xx_setDP>
	main_buff[3] = p18fx5xx_readComm(P18FX5XX_TABLE_RDPI, 0x00);
     db6:	60 e0       	ldi	r22, 0x00	; 0
     db8:	89 e0       	ldi	r24, 0x09	; 9
     dba:	0e 94 7a 05 	call	0xaf4	; 0xaf4 <p18fx5xx_readComm>
     dbe:	8b 83       	std	Y+3, r24	; 0x03
	reset();
     dc0:	0e 94 45 06 	call	0xc8a	; 0xc8a <reset>
	#else
		//round up by default
		__ticks_dc = (uint32_t)(ceil(fabs(__tmp)));
	#endif

	__builtin_avr_delay_cycles(__ticks_dc);
     dc4:	8f e1       	ldi	r24, 0x1F	; 31
     dc6:	9e e4       	ldi	r25, 0x4E	; 78
     dc8:	01 97       	sbiw	r24, 0x01	; 1
     dca:	f1 f7       	brne	.-4      	; 0xdc8 <p18fx5xx_getId+0x3c>
     dcc:	00 c0       	rjmp	.+0      	; 0xdce <p18fx5xx_getId+0x42>
     dce:	00 00       	nop

	_delay_ms(5);

	main_buff[0] = 0xFE;
     dd0:	8e ef       	ldi	r24, 0xFE	; 254
     dd2:	88 83       	st	Y, r24
	main_buff[1] = 0x02;
     dd4:	82 e0       	ldi	r24, 0x02	; 2
     dd6:	89 83       	std	Y+1, r24	; 0x01
	main_buff[2] = 0xA0;
     dd8:	80 ea       	ldi	r24, 0xA0	; 160
     dda:	8a 83       	std	Y+2, r24	; 0x02
	send_frame(main_buff, 5);
     ddc:	65 e0       	ldi	r22, 0x05	; 5
     dde:	ce 01       	movw	r24, r28
}
     de0:	df 91       	pop	r29
     de2:	cf 91       	pop	r28
	_delay_ms(5);

	main_buff[0] = 0xFE;
	main_buff[1] = 0x02;
	main_buff[2] = 0xA0;
	send_frame(main_buff, 5);
     de4:	0c 94 25 1a 	jmp	0x344a	; 0x344a <send_frame>

00000de8 <p16f7x_readCfg>:
}


void p16f7x_readCfg(void)
{
     de8:	ef 92       	push	r14
     dea:	ff 92       	push	r15
     dec:	0f 93       	push	r16
     dee:	1f 93       	push	r17
     df0:	cf 93       	push	r28
     df2:	df 93       	push	r29
     df4:	cd b7       	in	r28, 0x3d	; 61
     df6:	de b7       	in	r29, 0x3e	; 62
     df8:	2e 97       	sbiw	r28, 0x0e	; 14
     dfa:	0f b6       	in	r0, 0x3f	; 63
     dfc:	f8 94       	cli
     dfe:	de bf       	out	0x3e, r29	; 62
     e00:	0f be       	out	0x3f, r0	; 63
     e02:	cd bf       	out	0x3d, r28	; 61
	uint16_t cfg[7];

	progMode();
     e04:	0e 94 60 05 	call	0xac0	; 0xac0 <progMode>

	p16f7x_writeComm(P16F7X_LOAD_CONF, 0x0000, 0);
     e08:	40 e0       	ldi	r20, 0x00	; 0
     e0a:	60 e0       	ldi	r22, 0x00	; 0
     e0c:	70 e0       	ldi	r23, 0x00	; 0
     e0e:	80 e0       	ldi	r24, 0x00	; 0
     e10:	0e 94 c3 01 	call	0x386	; 0x386 <p16f7x_writeComm>
     e14:	07 e0       	ldi	r16, 0x07	; 7
     e16:	10 e0       	ldi	r17, 0x00	; 0
	for(int i = 0; i < 7; i++) p16f7x_writeComm(P16F7X_INC_ADD, 0x0000, 1);
     e18:	41 e0       	ldi	r20, 0x01	; 1
     e1a:	60 e0       	ldi	r22, 0x00	; 0
     e1c:	70 e0       	ldi	r23, 0x00	; 0
     e1e:	86 e0       	ldi	r24, 0x06	; 6
     e20:	0e 94 c3 01 	call	0x386	; 0x386 <p16f7x_writeComm>
     e24:	01 50       	subi	r16, 0x01	; 1
     e26:	11 09       	sbc	r17, r1
     e28:	b9 f7       	brne	.-18     	; 0xe18 <p16f7x_readCfg+0x30>
     e2a:	ce 01       	movw	r24, r28
     e2c:	01 96       	adiw	r24, 0x01	; 1
     e2e:	7c 01       	movw	r14, r24
     e30:	00 e0       	ldi	r16, 0x00	; 0
     e32:	10 e0       	ldi	r17, 0x00	; 0

	for(int k = 0; k < conf_cnt; k++)
     e34:	80 91 16 03 	lds	r24, 0x0316	; 0x800316 <conf_cnt>
     e38:	90 e0       	ldi	r25, 0x00	; 0
     e3a:	08 17       	cp	r16, r24
     e3c:	19 07       	cpc	r17, r25
     e3e:	84 f4       	brge	.+32     	; 0xe60 <p16f7x_readCfg+0x78>
	{
		cfg[k] = p16f7x_readComm(P16F7X_READ_DATA);
     e40:	84 e0       	ldi	r24, 0x04	; 4
     e42:	0e 94 f1 03 	call	0x7e2	; 0x7e2 <p16f7x_readComm>
     e46:	f7 01       	movw	r30, r14
     e48:	81 93       	st	Z+, r24
     e4a:	91 93       	st	Z+, r25
     e4c:	7f 01       	movw	r14, r30
		p16f7x_writeComm(P16F7X_INC_ADD, 0x0000, 1);
     e4e:	41 e0       	ldi	r20, 0x01	; 1
     e50:	60 e0       	ldi	r22, 0x00	; 0
     e52:	70 e0       	ldi	r23, 0x00	; 0
     e54:	86 e0       	ldi	r24, 0x06	; 6
     e56:	0e 94 c3 01 	call	0x386	; 0x386 <p16f7x_writeComm>
	progMode();

	p16f7x_writeComm(P16F7X_LOAD_CONF, 0x0000, 0);
	for(int i = 0; i < 7; i++) p16f7x_writeComm(P16F7X_INC_ADD, 0x0000, 1);

	for(int k = 0; k < conf_cnt; k++)
     e5a:	0f 5f       	subi	r16, 0xFF	; 255
     e5c:	1f 4f       	sbci	r17, 0xFF	; 255
     e5e:	ea cf       	rjmp	.-44     	; 0xe34 <p16f7x_readCfg+0x4c>
	{
		cfg[k] = p16f7x_readComm(P16F7X_READ_DATA);
		p16f7x_writeComm(P16F7X_INC_ADD, 0x0000, 1);
	}
	reset();
     e60:	0e 94 45 06 	call	0xc8a	; 0xc8a <reset>

	main_buff[0] = 0xFE;
     e64:	8e ef       	ldi	r24, 0xFE	; 254
     e66:	80 93 6a 01 	sts	0x016A, r24	; 0x80016a <main_buff>
	main_buff[1] = 0x0E;
     e6a:	8e e0       	ldi	r24, 0x0E	; 14
     e6c:	80 93 6b 01 	sts	0x016B, r24	; 0x80016b <main_buff+0x1>
	main_buff[2] = 0xA3;
     e70:	83 ea       	ldi	r24, 0xA3	; 163
     e72:	80 93 6c 01 	sts	0x016C, r24	; 0x80016c <main_buff+0x2>
	main_buff[3] = (cfg[0] >> 8);
     e76:	89 81       	ldd	r24, Y+1	; 0x01
     e78:	9a 81       	ldd	r25, Y+2	; 0x02
     e7a:	90 93 6d 01 	sts	0x016D, r25	; 0x80016d <main_buff+0x3>
	main_buff[4] = (cfg[0] & 0xFF);
     e7e:	80 93 6e 01 	sts	0x016E, r24	; 0x80016e <main_buff+0x4>
	main_buff[5] = (cfg[1] >> 8);
     e82:	8b 81       	ldd	r24, Y+3	; 0x03
     e84:	9c 81       	ldd	r25, Y+4	; 0x04
     e86:	90 93 6f 01 	sts	0x016F, r25	; 0x80016f <main_buff+0x5>
	main_buff[6] = (cfg[1] & 0xFF);
     e8a:	80 93 70 01 	sts	0x0170, r24	; 0x800170 <main_buff+0x6>
	main_buff[7] = (cfg[2] >> 8);
     e8e:	8d 81       	ldd	r24, Y+5	; 0x05
     e90:	9e 81       	ldd	r25, Y+6	; 0x06
     e92:	90 93 71 01 	sts	0x0171, r25	; 0x800171 <main_buff+0x7>
	main_buff[8] = (cfg[2] & 0xFF);
     e96:	80 93 72 01 	sts	0x0172, r24	; 0x800172 <main_buff+0x8>
	main_buff[9] = (cfg[3] >> 8);
     e9a:	8f 81       	ldd	r24, Y+7	; 0x07
     e9c:	98 85       	ldd	r25, Y+8	; 0x08
     e9e:	90 93 73 01 	sts	0x0173, r25	; 0x800173 <main_buff+0x9>
	main_buff[10] = (cfg[3] & 0xFF);
     ea2:	80 93 74 01 	sts	0x0174, r24	; 0x800174 <main_buff+0xa>
	main_buff[11] = (cfg[4] >> 8);
     ea6:	89 85       	ldd	r24, Y+9	; 0x09
     ea8:	9a 85       	ldd	r25, Y+10	; 0x0a
     eaa:	90 93 75 01 	sts	0x0175, r25	; 0x800175 <main_buff+0xb>
	main_buff[12] = (cfg[4] & 0xFF);
     eae:	80 93 76 01 	sts	0x0176, r24	; 0x800176 <main_buff+0xc>
	main_buff[13] = (cfg[5] >> 8);
     eb2:	8b 85       	ldd	r24, Y+11	; 0x0b
     eb4:	9c 85       	ldd	r25, Y+12	; 0x0c
     eb6:	90 93 77 01 	sts	0x0177, r25	; 0x800177 <main_buff+0xd>
	main_buff[14] = (cfg[5] & 0xFF);
     eba:	80 93 78 01 	sts	0x0178, r24	; 0x800178 <main_buff+0xe>
	main_buff[15] = (cfg[6] >> 8);
     ebe:	8d 85       	ldd	r24, Y+13	; 0x0d
     ec0:	9e 85       	ldd	r25, Y+14	; 0x0e
     ec2:	90 93 79 01 	sts	0x0179, r25	; 0x800179 <main_buff+0xf>
	main_buff[16] = (cfg[6] & 0xFF);
     ec6:	80 93 7a 01 	sts	0x017A, r24	; 0x80017a <main_buff+0x10>
	send_frame(main_buff, 17);
     eca:	61 e1       	ldi	r22, 0x11	; 17
     ecc:	8a e6       	ldi	r24, 0x6A	; 106
     ece:	91 e0       	ldi	r25, 0x01	; 1
}
     ed0:	2e 96       	adiw	r28, 0x0e	; 14
     ed2:	0f b6       	in	r0, 0x3f	; 63
     ed4:	f8 94       	cli
     ed6:	de bf       	out	0x3e, r29	; 62
     ed8:	0f be       	out	0x3f, r0	; 63
     eda:	cd bf       	out	0x3d, r28	; 61
     edc:	df 91       	pop	r29
     ede:	cf 91       	pop	r28
     ee0:	1f 91       	pop	r17
     ee2:	0f 91       	pop	r16
     ee4:	ff 90       	pop	r15
     ee6:	ef 90       	pop	r14
	main_buff[12] = (cfg[4] & 0xFF);
	main_buff[13] = (cfg[5] >> 8);
	main_buff[14] = (cfg[5] & 0xFF);
	main_buff[15] = (cfg[6] >> 8);
	main_buff[16] = (cfg[6] & 0xFF);
	send_frame(main_buff, 17);
     ee8:	0c 94 25 1a 	jmp	0x344a	; 0x344a <send_frame>

00000eec <p16f184xx_readCfg>:
}

void p16f184xx_readCfg(void)
{
     eec:	cf 92       	push	r12
     eee:	df 92       	push	r13
     ef0:	ef 92       	push	r14
     ef2:	ff 92       	push	r15
     ef4:	0f 93       	push	r16
     ef6:	cf 93       	push	r28
     ef8:	df 93       	push	r29
     efa:	cd b7       	in	r28, 0x3d	; 61
     efc:	de b7       	in	r29, 0x3e	; 62
     efe:	2e 97       	sbiw	r28, 0x0e	; 14
     f00:	0f b6       	in	r0, 0x3f	; 63
     f02:	f8 94       	cli
     f04:	de bf       	out	0x3e, r29	; 62
     f06:	0f be       	out	0x3f, r0	; 63
     f08:	cd bf       	out	0x3d, r28	; 61
	uint16_t cfg[7];

	progMode();
     f0a:	0e 94 60 05 	call	0xac0	; 0xac0 <progMode>
	if(device == 0x12) p16f184xx_writeComm(0x80, 0, 0x00, 0x80, 0x07);
     f0e:	80 91 17 03 	lds	r24, 0x0317	; 0x800317 <device>
     f12:	82 31       	cpi	r24, 0x12	; 18
     f14:	39 f4       	brne	.+14     	; 0xf24 <p16f184xx_readCfg+0x38>
     f16:	07 e0       	ldi	r16, 0x07	; 7
     f18:	20 e8       	ldi	r18, 0x80	; 128
     f1a:	40 e0       	ldi	r20, 0x00	; 0
     f1c:	60 e0       	ldi	r22, 0x00	; 0
     f1e:	80 e8       	ldi	r24, 0x80	; 128
     f20:	0e 94 d4 02 	call	0x5a8	; 0x5a8 <p16f184xx_writeComm>
	if(device == 0x13) p16f184xx_writeComm(0x80, 0, 0x30, 0x00, 0x00);
     f24:	80 91 17 03 	lds	r24, 0x0317	; 0x800317 <device>
     f28:	83 31       	cpi	r24, 0x13	; 19
     f2a:	39 f4       	brne	.+14     	; 0xf3a <p16f184xx_readCfg+0x4e>
     f2c:	00 e0       	ldi	r16, 0x00	; 0
     f2e:	20 e0       	ldi	r18, 0x00	; 0
     f30:	40 e3       	ldi	r20, 0x30	; 48
     f32:	60 e0       	ldi	r22, 0x00	; 0
     f34:	80 e8       	ldi	r24, 0x80	; 128
     f36:	0e 94 d4 02 	call	0x5a8	; 0x5a8 <p16f184xx_writeComm>
     f3a:	ce 01       	movw	r24, r28
     f3c:	01 96       	adiw	r24, 0x01	; 1
     f3e:	6c 01       	movw	r12, r24
	main_buff[16] = (cfg[6] & 0xFF);
	send_frame(main_buff, 17);
}

void p16f184xx_readCfg(void)
{
     f40:	e1 2c       	mov	r14, r1
     f42:	f1 2c       	mov	r15, r1

	progMode();
	if(device == 0x12) p16f184xx_writeComm(0x80, 0, 0x00, 0x80, 0x07);
	if(device == 0x13) p16f184xx_writeComm(0x80, 0, 0x30, 0x00, 0x00);

	for(int k = 0; k < conf_cnt; k++)
     f44:	80 91 16 03 	lds	r24, 0x0316	; 0x800316 <conf_cnt>
     f48:	90 e0       	ldi	r25, 0x00	; 0
     f4a:	e8 16       	cp	r14, r24
     f4c:	f9 06       	cpc	r15, r25
     f4e:	94 f4       	brge	.+36     	; 0xf74 <p16f184xx_readCfg+0x88>
		{
			cfg[k] = p16f184xx_readComm(0xFC);
     f50:	8c ef       	ldi	r24, 0xFC	; 252
     f52:	0e 94 7c 03 	call	0x6f8	; 0x6f8 <p16f184xx_readComm>
     f56:	f6 01       	movw	r30, r12
     f58:	81 93       	st	Z+, r24
     f5a:	91 93       	st	Z+, r25
     f5c:	6f 01       	movw	r12, r30
			p16f184xx_writeComm(0xF8, 1, 0x00, 0x00, 0x00);
     f5e:	00 e0       	ldi	r16, 0x00	; 0
     f60:	20 e0       	ldi	r18, 0x00	; 0
     f62:	40 e0       	ldi	r20, 0x00	; 0
     f64:	61 e0       	ldi	r22, 0x01	; 1
     f66:	88 ef       	ldi	r24, 0xF8	; 248
     f68:	0e 94 d4 02 	call	0x5a8	; 0x5a8 <p16f184xx_writeComm>

	progMode();
	if(device == 0x12) p16f184xx_writeComm(0x80, 0, 0x00, 0x80, 0x07);
	if(device == 0x13) p16f184xx_writeComm(0x80, 0, 0x30, 0x00, 0x00);

	for(int k = 0; k < conf_cnt; k++)
     f6c:	ff ef       	ldi	r31, 0xFF	; 255
     f6e:	ef 1a       	sub	r14, r31
     f70:	ff 0a       	sbc	r15, r31
     f72:	e8 cf       	rjmp	.-48     	; 0xf44 <p16f184xx_readCfg+0x58>
		{
			cfg[k] = p16f184xx_readComm(0xFC);
			p16f184xx_writeComm(0xF8, 1, 0x00, 0x00, 0x00);
		}
	reset();
     f74:	0e 94 45 06 	call	0xc8a	; 0xc8a <reset>

	main_buff[0] = 0xFE;
     f78:	8e ef       	ldi	r24, 0xFE	; 254
     f7a:	80 93 6a 01 	sts	0x016A, r24	; 0x80016a <main_buff>
	main_buff[1] = 0x0E;
     f7e:	8e e0       	ldi	r24, 0x0E	; 14
     f80:	80 93 6b 01 	sts	0x016B, r24	; 0x80016b <main_buff+0x1>
	main_buff[2] = 0xA3;
     f84:	83 ea       	ldi	r24, 0xA3	; 163
     f86:	80 93 6c 01 	sts	0x016C, r24	; 0x80016c <main_buff+0x2>
	main_buff[3] = (cfg[0] >> 8);
     f8a:	89 81       	ldd	r24, Y+1	; 0x01
     f8c:	9a 81       	ldd	r25, Y+2	; 0x02
     f8e:	90 93 6d 01 	sts	0x016D, r25	; 0x80016d <main_buff+0x3>
	main_buff[4] = (cfg[0] & 0xFF);
     f92:	80 93 6e 01 	sts	0x016E, r24	; 0x80016e <main_buff+0x4>
	main_buff[5] = (cfg[1] >> 8);
     f96:	8b 81       	ldd	r24, Y+3	; 0x03
     f98:	9c 81       	ldd	r25, Y+4	; 0x04
     f9a:	90 93 6f 01 	sts	0x016F, r25	; 0x80016f <main_buff+0x5>
	main_buff[6] = (cfg[1] & 0xFF);
     f9e:	80 93 70 01 	sts	0x0170, r24	; 0x800170 <main_buff+0x6>
	main_buff[7] = (cfg[2] >> 8);
     fa2:	8d 81       	ldd	r24, Y+5	; 0x05
     fa4:	9e 81       	ldd	r25, Y+6	; 0x06
     fa6:	90 93 71 01 	sts	0x0171, r25	; 0x800171 <main_buff+0x7>
	main_buff[8] = (cfg[2] & 0xFF);
     faa:	80 93 72 01 	sts	0x0172, r24	; 0x800172 <main_buff+0x8>
	main_buff[9] = (cfg[3] >> 8);
     fae:	8f 81       	ldd	r24, Y+7	; 0x07
     fb0:	98 85       	ldd	r25, Y+8	; 0x08
     fb2:	90 93 73 01 	sts	0x0173, r25	; 0x800173 <main_buff+0x9>
	main_buff[10] = (cfg[3] & 0xFF);
     fb6:	80 93 74 01 	sts	0x0174, r24	; 0x800174 <main_buff+0xa>
	main_buff[11] = (cfg[4] >> 8);
     fba:	89 85       	ldd	r24, Y+9	; 0x09
     fbc:	9a 85       	ldd	r25, Y+10	; 0x0a
     fbe:	90 93 75 01 	sts	0x0175, r25	; 0x800175 <main_buff+0xb>
	main_buff[12] = (cfg[4] & 0xFF);
     fc2:	80 93 76 01 	sts	0x0176, r24	; 0x800176 <main_buff+0xc>
	main_buff[13] = (cfg[5] >> 8);
     fc6:	8b 85       	ldd	r24, Y+11	; 0x0b
     fc8:	9c 85       	ldd	r25, Y+12	; 0x0c
     fca:	90 93 77 01 	sts	0x0177, r25	; 0x800177 <main_buff+0xd>
	main_buff[14] = (cfg[5] & 0xFF);
     fce:	80 93 78 01 	sts	0x0178, r24	; 0x800178 <main_buff+0xe>
	main_buff[15] = (cfg[6] >> 8);
     fd2:	8d 85       	ldd	r24, Y+13	; 0x0d
     fd4:	9e 85       	ldd	r25, Y+14	; 0x0e
     fd6:	90 93 79 01 	sts	0x0179, r25	; 0x800179 <main_buff+0xf>
	main_buff[16] = (cfg[6] & 0xFF);
     fda:	80 93 7a 01 	sts	0x017A, r24	; 0x80017a <main_buff+0x10>
	send_frame(main_buff, 17);
     fde:	61 e1       	ldi	r22, 0x11	; 17
     fe0:	8a e6       	ldi	r24, 0x6A	; 106
     fe2:	91 e0       	ldi	r25, 0x01	; 1
}
     fe4:	2e 96       	adiw	r28, 0x0e	; 14
     fe6:	0f b6       	in	r0, 0x3f	; 63
     fe8:	f8 94       	cli
     fea:	de bf       	out	0x3e, r29	; 62
     fec:	0f be       	out	0x3f, r0	; 63
     fee:	cd bf       	out	0x3d, r28	; 61
     ff0:	df 91       	pop	r29
     ff2:	cf 91       	pop	r28
     ff4:	0f 91       	pop	r16
     ff6:	ff 90       	pop	r15
     ff8:	ef 90       	pop	r14
     ffa:	df 90       	pop	r13
     ffc:	cf 90       	pop	r12
	main_buff[12] = (cfg[4] & 0xFF);
	main_buff[13] = (cfg[5] >> 8);
	main_buff[14] = (cfg[5] & 0xFF);
	main_buff[15] = (cfg[6] >> 8);
	main_buff[16] = (cfg[6] & 0xFF);
	send_frame(main_buff, 17);
     ffe:	0c 94 25 1a 	jmp	0x344a	; 0x344a <send_frame>

00001002 <p16f5x_readCfg>:
}

#ifdef BASELINE
void p16f5x_readCfg(void)
{
    1002:	cf 93       	push	r28
    1004:	df 93       	push	r29
    1006:	00 d0       	rcall	.+0      	; 0x1008 <p16f5x_readCfg+0x6>
    1008:	cd b7       	in	r28, 0x3d	; 61
    100a:	de b7       	in	r29, 0x3e	; 62
	uint16_t cfg;

	progMode();
    100c:	0e 94 60 05 	call	0xac0	; 0xac0 <progMode>
	cfg = p16f7x_readComm(P16F7X_READ_DATA);
    1010:	84 e0       	ldi	r24, 0x04	; 4
    1012:	0e 94 f1 03 	call	0x7e2	; 0x7e2 <p16f7x_readComm>
	reset();
    1016:	89 83       	std	Y+1, r24	; 0x01
    1018:	9a 83       	std	Y+2, r25	; 0x02
    101a:	0e 94 45 06 	call	0xc8a	; 0xc8a <reset>

	main_buff[0] = 0xFE;
    101e:	ea e6       	ldi	r30, 0x6A	; 106
    1020:	f1 e0       	ldi	r31, 0x01	; 1
    1022:	2e ef       	ldi	r18, 0xFE	; 254
    1024:	20 83       	st	Z, r18
	main_buff[1] = 0x02;
    1026:	22 e0       	ldi	r18, 0x02	; 2
    1028:	21 83       	std	Z+1, r18	; 0x01
	main_buff[2] = 0xA3;
    102a:	23 ea       	ldi	r18, 0xA3	; 163
    102c:	22 83       	std	Z+2, r18	; 0x02
	main_buff[3] = (cfg >> 8);
    102e:	9a 81       	ldd	r25, Y+2	; 0x02
    1030:	93 83       	std	Z+3, r25	; 0x03
	main_buff[4] = (cfg & 0xFF);
    1032:	89 81       	ldd	r24, Y+1	; 0x01
    1034:	84 83       	std	Z+4, r24	; 0x04
	send_frame(main_buff, 5);
    1036:	65 e0       	ldi	r22, 0x05	; 5
    1038:	cf 01       	movw	r24, r30
}
    103a:	0f 90       	pop	r0
    103c:	0f 90       	pop	r0
    103e:	df 91       	pop	r29
    1040:	cf 91       	pop	r28
	main_buff[0] = 0xFE;
	main_buff[1] = 0x02;
	main_buff[2] = 0xA3;
	main_buff[3] = (cfg >> 8);
	main_buff[4] = (cfg & 0xFF);
	send_frame(main_buff, 5);
    1042:	0c 94 25 1a 	jmp	0x344a	; 0x344a <send_frame>

00001046 <p18fx5xx_readCfg>:
}
#endif

#ifdef PIC18FX5XX
void p18fx5xx_readCfg(void)
{
    1046:	0f 93       	push	r16
    1048:	1f 93       	push	r17
    104a:	cf 93       	push	r28
    104c:	df 93       	push	r29
	main_buff[0] = 0xFE;
    104e:	8e ef       	ldi	r24, 0xFE	; 254
    1050:	80 93 6a 01 	sts	0x016A, r24	; 0x80016a <main_buff>
	main_buff[1] = 0x0E;
    1054:	8e e0       	ldi	r24, 0x0E	; 14
    1056:	80 93 6b 01 	sts	0x016B, r24	; 0x80016b <main_buff+0x1>
	main_buff[2] = 0xA3;
    105a:	83 ea       	ldi	r24, 0xA3	; 163
    105c:	80 93 6c 01 	sts	0x016C, r24	; 0x80016c <main_buff+0x2>
	for(int i = 0; i < 14; i+= 2)
    1060:	c0 e0       	ldi	r28, 0x00	; 0
    1062:	d0 e0       	ldi	r29, 0x00	; 0
	{
		progMode();
    1064:	0e 94 60 05 	call	0xac0	; 0xac0 <progMode>

		p18fx5xx_setDP(0x30, 0x00, i);
    1068:	4c 2f       	mov	r20, r28
    106a:	60 e0       	ldi	r22, 0x00	; 0
    106c:	80 e3       	ldi	r24, 0x30	; 48
    106e:	0e 94 ff 05 	call	0xbfe	; 0xbfe <p18fx5xx_setDP>
		main_buff[i + 4] = p18fx5xx_readComm(P18FX5XX_TABLE_RD, 0x00);
    1072:	60 e0       	ldi	r22, 0x00	; 0
    1074:	88 e0       	ldi	r24, 0x08	; 8
    1076:	0e 94 7a 05 	call	0xaf4	; 0xaf4 <p18fx5xx_readComm>
    107a:	8e 01       	movw	r16, r28
    107c:	06 59       	subi	r16, 0x96	; 150
    107e:	1e 4f       	sbci	r17, 0xFE	; 254
    1080:	f8 01       	movw	r30, r16
    1082:	84 83       	std	Z+4, r24	; 0x04
    1084:	4c 2f       	mov	r20, r28
    1086:	4f 5f       	subi	r20, 0xFF	; 255
		p18fx5xx_setDP(0x30, 0x00, i + 1);
    1088:	60 e0       	ldi	r22, 0x00	; 0
    108a:	80 e3       	ldi	r24, 0x30	; 48
    108c:	0e 94 ff 05 	call	0xbfe	; 0xbfe <p18fx5xx_setDP>
		main_buff[i + 3] = p18fx5xx_readComm(P18FX5XX_TABLE_RD, 0x00);
    1090:	60 e0       	ldi	r22, 0x00	; 0
    1092:	88 e0       	ldi	r24, 0x08	; 8
    1094:	0e 94 7a 05 	call	0xaf4	; 0xaf4 <p18fx5xx_readComm>
    1098:	f8 01       	movw	r30, r16
    109a:	83 83       	std	Z+3, r24	; 0x03

		reset();
    109c:	0e 94 45 06 	call	0xc8a	; 0xc8a <reset>
    10a0:	8f e1       	ldi	r24, 0x1F	; 31
    10a2:	9e e4       	ldi	r25, 0x4E	; 78
    10a4:	01 97       	sbiw	r24, 0x01	; 1
    10a6:	f1 f7       	brne	.-4      	; 0x10a4 <p18fx5xx_readCfg+0x5e>
    10a8:	00 c0       	rjmp	.+0      	; 0x10aa <p18fx5xx_readCfg+0x64>
    10aa:	00 00       	nop
void p18fx5xx_readCfg(void)
{
	main_buff[0] = 0xFE;
	main_buff[1] = 0x0E;
	main_buff[2] = 0xA3;
	for(int i = 0; i < 14; i+= 2)
    10ac:	22 96       	adiw	r28, 0x02	; 2
    10ae:	ce 30       	cpi	r28, 0x0E	; 14
    10b0:	d1 05       	cpc	r29, r1
    10b2:	c1 f6       	brne	.-80     	; 0x1064 <p18fx5xx_readCfg+0x1e>

		reset();
		_delay_ms(5);
	}

	send_frame(main_buff, 17);
    10b4:	61 e1       	ldi	r22, 0x11	; 17
    10b6:	8a e6       	ldi	r24, 0x6A	; 106
    10b8:	91 e0       	ldi	r25, 0x01	; 1
}
    10ba:	df 91       	pop	r29
    10bc:	cf 91       	pop	r28
    10be:	1f 91       	pop	r17
    10c0:	0f 91       	pop	r16

		reset();
		_delay_ms(5);
	}

	send_frame(main_buff, 17);
    10c2:	0c 94 25 1a 	jmp	0x344a	; 0x344a <send_frame>

000010c6 <p16f7x_writeCfg>:
}
#endif

void p16f7x_writeCfg(void)
{
    10c6:	cf 93       	push	r28
    10c8:	df 93       	push	r29
	progMode();
    10ca:	0e 94 60 05 	call	0xac0	; 0xac0 <progMode>

	p16f7x_writeComm(P16F7X_LOAD_CONF, 0x0000, 0);
    10ce:	40 e0       	ldi	r20, 0x00	; 0
    10d0:	60 e0       	ldi	r22, 0x00	; 0
    10d2:	70 e0       	ldi	r23, 0x00	; 0
    10d4:	80 e0       	ldi	r24, 0x00	; 0
    10d6:	0e 94 c3 01 	call	0x386	; 0x386 <p16f7x_writeComm>
    10da:	c7 e0       	ldi	r28, 0x07	; 7
    10dc:	d0 e0       	ldi	r29, 0x00	; 0
	for(int i = 0; i < 7; i++) p16f7x_writeComm(P16F7X_INC_ADD, 0x0000, 1);
    10de:	41 e0       	ldi	r20, 0x01	; 1
    10e0:	60 e0       	ldi	r22, 0x00	; 0
    10e2:	70 e0       	ldi	r23, 0x00	; 0
    10e4:	86 e0       	ldi	r24, 0x06	; 6
    10e6:	0e 94 c3 01 	call	0x386	; 0x386 <p16f7x_writeComm>
    10ea:	21 97       	sbiw	r28, 0x01	; 1
    10ec:	c1 f7       	brne	.-16     	; 0x10de <p16f7x_writeCfg+0x18>
	p16f7x_writeComm(P16F7X_LOAD_DATA, (exchange[4] | (exchange[5] <<8)), 0);
    10ee:	60 91 6f 02 	lds	r22, 0x026F	; 0x80026f <exchange+0x5>
    10f2:	70 e0       	ldi	r23, 0x00	; 0
    10f4:	76 2f       	mov	r23, r22
    10f6:	66 27       	eor	r22, r22
    10f8:	80 91 6e 02 	lds	r24, 0x026E	; 0x80026e <exchange+0x4>
    10fc:	68 2b       	or	r22, r24
    10fe:	40 e0       	ldi	r20, 0x00	; 0
    1100:	82 e0       	ldi	r24, 0x02	; 2
    1102:	0e 94 c3 01 	call	0x386	; 0x386 <p16f7x_writeComm>
	if(device == 0x14) p16f7x_writeComm(0x18, 0x0000, 1);
    1106:	80 91 17 03 	lds	r24, 0x0317	; 0x800317 <device>
    110a:	41 e0       	ldi	r20, 0x01	; 1
    110c:	60 e0       	ldi	r22, 0x00	; 0
    110e:	70 e0       	ldi	r23, 0x00	; 0
    1110:	84 31       	cpi	r24, 0x14	; 20
    1112:	11 f4       	brne	.+4      	; 0x1118 <p16f7x_writeCfg+0x52>
    1114:	88 e1       	ldi	r24, 0x18	; 24
    1116:	01 c0       	rjmp	.+2      	; 0x111a <p16f7x_writeCfg+0x54>
	else p16f7x_writeComm(P16F7X_BEGIN_PROG, 0x0000, 1);
    1118:	88 e0       	ldi	r24, 0x08	; 8
    111a:	0e 94 c3 01 	call	0x386	; 0x386 <p16f7x_writeComm>
    111e:	8f e1       	ldi	r24, 0x1F	; 31
    1120:	9e e4       	ldi	r25, 0x4E	; 78
    1122:	01 97       	sbiw	r24, 0x01	; 1
    1124:	f1 f7       	brne	.-4      	; 0x1122 <p16f7x_writeCfg+0x5c>
    1126:	00 c0       	rjmp	.+0      	; 0x1128 <p16f7x_writeCfg+0x62>
    1128:	00 00       	nop
	_delay_ms(5);
	p16f7x_writeComm(P16F7X_END_PROG, 0x0000, 1);
    112a:	41 e0       	ldi	r20, 0x01	; 1
    112c:	60 e0       	ldi	r22, 0x00	; 0
    112e:	70 e0       	ldi	r23, 0x00	; 0
    1130:	8e e0       	ldi	r24, 0x0E	; 14
    1132:	0e 94 c3 01 	call	0x386	; 0x386 <p16f7x_writeComm>
    1136:	8f e1       	ldi	r24, 0x1F	; 31
    1138:	9e e4       	ldi	r25, 0x4E	; 78
    113a:	01 97       	sbiw	r24, 0x01	; 1
    113c:	f1 f7       	brne	.-4      	; 0x113a <p16f7x_writeCfg+0x74>
    113e:	00 c0       	rjmp	.+0      	; 0x1140 <p16f7x_writeCfg+0x7a>
    1140:	00 00       	nop
	_delay_ms(5);
	reset();
}
    1142:	df 91       	pop	r29
    1144:	cf 91       	pop	r28
	if(device == 0x14) p16f7x_writeComm(0x18, 0x0000, 1);
	else p16f7x_writeComm(P16F7X_BEGIN_PROG, 0x0000, 1);
	_delay_ms(5);
	p16f7x_writeComm(P16F7X_END_PROG, 0x0000, 1);
	_delay_ms(5);
	reset();
    1146:	0c 94 45 06 	jmp	0xc8a	; 0xc8a <reset>

0000114a <p16f184xx_writeCfg>:
}

void p16f184xx_writeCfg(void)
{
    114a:	0f 93       	push	r16
    114c:	cf 93       	push	r28
    114e:	df 93       	push	r29
	progMode();
    1150:	0e 94 60 05 	call	0xac0	; 0xac0 <progMode>
	if(device == 0x12) p16f184xx_writeComm(0x80, 0, 0x00, 0x80, 0x07);
    1154:	80 91 17 03 	lds	r24, 0x0317	; 0x800317 <device>
    1158:	82 31       	cpi	r24, 0x12	; 18
    115a:	39 f4       	brne	.+14     	; 0x116a <p16f184xx_writeCfg+0x20>
    115c:	07 e0       	ldi	r16, 0x07	; 7
    115e:	20 e8       	ldi	r18, 0x80	; 128
    1160:	40 e0       	ldi	r20, 0x00	; 0
    1162:	60 e0       	ldi	r22, 0x00	; 0
    1164:	80 e8       	ldi	r24, 0x80	; 128
    1166:	0e 94 d4 02 	call	0x5a8	; 0x5a8 <p16f184xx_writeComm>
	if(device == 0x13) p16f184xx_writeComm(0x80, 0, 0x30, 0x00, 0x00);
    116a:	80 91 17 03 	lds	r24, 0x0317	; 0x800317 <device>
    116e:	83 31       	cpi	r24, 0x13	; 19
    1170:	39 f4       	brne	.+14     	; 0x1180 <p16f184xx_writeCfg+0x36>
    1172:	00 e0       	ldi	r16, 0x00	; 0
    1174:	20 e0       	ldi	r18, 0x00	; 0
    1176:	40 e3       	ldi	r20, 0x30	; 48
    1178:	60 e0       	ldi	r22, 0x00	; 0
    117a:	80 e8       	ldi	r24, 0x80	; 128
    117c:	0e 94 d4 02 	call	0x5a8	; 0x5a8 <p16f184xx_writeComm>
	_delay_ms(5);
	reset();
}

void p16f184xx_writeCfg(void)
{
    1180:	c0 e0       	ldi	r28, 0x00	; 0
    1182:	d0 e0       	ldi	r29, 0x00	; 0
	progMode();
	if(device == 0x12) p16f184xx_writeComm(0x80, 0, 0x00, 0x80, 0x07);
	if(device == 0x13) p16f184xx_writeComm(0x80, 0, 0x30, 0x00, 0x00);

	for(int k = 0; k < conf_cnt*2; k+=2)
    1184:	80 91 16 03 	lds	r24, 0x0316	; 0x800316 <conf_cnt>
    1188:	90 e0       	ldi	r25, 0x00	; 0
    118a:	88 0f       	add	r24, r24
    118c:	99 1f       	adc	r25, r25
    118e:	c8 17       	cp	r28, r24
    1190:	d9 07       	cpc	r29, r25
    1192:	ac f5       	brge	.+106    	; 0x11fe <p16f184xx_writeCfg+0xb4>
	{
		if(device == 0x12)
    1194:	80 91 17 03 	lds	r24, 0x0317	; 0x800317 <device>
    1198:	82 31       	cpi	r24, 0x12	; 18
    119a:	89 f4       	brne	.+34     	; 0x11be <p16f184xx_writeCfg+0x74>
    119c:	fe 01       	movw	r30, r28
    119e:	e6 59       	subi	r30, 0x96	; 150
    11a0:	fd 4f       	sbci	r31, 0xFD	; 253
		{
			p16f184xx_writeComm(0x00, 0, 0x00, exchange[5 + k], exchange[4 + k]);
    11a2:	04 81       	ldd	r16, Z+4	; 0x04
    11a4:	25 81       	ldd	r18, Z+5	; 0x05
    11a6:	40 e0       	ldi	r20, 0x00	; 0
    11a8:	60 e0       	ldi	r22, 0x00	; 0
    11aa:	80 e0       	ldi	r24, 0x00	; 0
    11ac:	0e 94 d4 02 	call	0x5a8	; 0x5a8 <p16f184xx_writeComm>
			p16f184xx_writeComm(0xE0, 1, 0x00, 0x00, 0x00);
    11b0:	00 e0       	ldi	r16, 0x00	; 0
    11b2:	20 e0       	ldi	r18, 0x00	; 0
    11b4:	40 e0       	ldi	r20, 0x00	; 0
    11b6:	61 e0       	ldi	r22, 0x01	; 1
    11b8:	80 ee       	ldi	r24, 0xE0	; 224
    11ba:	0e 94 d4 02 	call	0x5a8	; 0x5a8 <p16f184xx_writeComm>
		}
		if(device == 0x13)
    11be:	80 91 17 03 	lds	r24, 0x0317	; 0x800317 <device>
    11c2:	83 31       	cpi	r24, 0x13	; 19
    11c4:	51 f4       	brne	.+20     	; 0x11da <p16f184xx_writeCfg+0x90>
    11c6:	fe 01       	movw	r30, r28
    11c8:	e6 59       	subi	r30, 0x96	; 150
    11ca:	fd 4f       	sbci	r31, 0xFD	; 253
		{
			p16f184xx_writeComm(0xC0, 0, 0x00, exchange[5 + k], exchange[4 + k]);
    11cc:	04 81       	ldd	r16, Z+4	; 0x04
    11ce:	25 81       	ldd	r18, Z+5	; 0x05
    11d0:	40 e0       	ldi	r20, 0x00	; 0
    11d2:	60 e0       	ldi	r22, 0x00	; 0
    11d4:	80 ec       	ldi	r24, 0xC0	; 192
    11d6:	0e 94 d4 02 	call	0x5a8	; 0x5a8 <p16f184xx_writeComm>
    11da:	2f ef       	ldi	r18, 0xFF	; 255
    11dc:	86 e7       	ldi	r24, 0x76	; 118
    11de:	91 e0       	ldi	r25, 0x01	; 1
    11e0:	21 50       	subi	r18, 0x01	; 1
    11e2:	80 40       	sbci	r24, 0x00	; 0
    11e4:	90 40       	sbci	r25, 0x00	; 0
    11e6:	e1 f7       	brne	.-8      	; 0x11e0 <p16f184xx_writeCfg+0x96>
    11e8:	00 c0       	rjmp	.+0      	; 0x11ea <p16f184xx_writeCfg+0xa0>
    11ea:	00 00       	nop
		}
		_delay_ms(30);
		p16f184xx_writeComm(0xF8, 1, 0x00, 0x00, 0x00);
    11ec:	00 e0       	ldi	r16, 0x00	; 0
    11ee:	20 e0       	ldi	r18, 0x00	; 0
    11f0:	40 e0       	ldi	r20, 0x00	; 0
    11f2:	61 e0       	ldi	r22, 0x01	; 1
    11f4:	88 ef       	ldi	r24, 0xF8	; 248
    11f6:	0e 94 d4 02 	call	0x5a8	; 0x5a8 <p16f184xx_writeComm>
{
	progMode();
	if(device == 0x12) p16f184xx_writeComm(0x80, 0, 0x00, 0x80, 0x07);
	if(device == 0x13) p16f184xx_writeComm(0x80, 0, 0x30, 0x00, 0x00);

	for(int k = 0; k < conf_cnt*2; k+=2)
    11fa:	22 96       	adiw	r28, 0x02	; 2
    11fc:	c3 cf       	rjmp	.-122    	; 0x1184 <p16f184xx_writeCfg+0x3a>
		}
		_delay_ms(30);
		p16f184xx_writeComm(0xF8, 1, 0x00, 0x00, 0x00);
	}
	reset();
}
    11fe:	df 91       	pop	r29
    1200:	cf 91       	pop	r28
    1202:	0f 91       	pop	r16
			p16f184xx_writeComm(0xC0, 0, 0x00, exchange[5 + k], exchange[4 + k]);
		}
		_delay_ms(30);
		p16f184xx_writeComm(0xF8, 1, 0x00, 0x00, 0x00);
	}
	reset();
    1204:	0c 94 45 06 	jmp	0xc8a	; 0xc8a <reset>

00001208 <p16f5x_writeCfg>:
}

#ifdef BASELINE
void p16f5x_writeCfg(void)
{
	progMode();
    1208:	0e 94 60 05 	call	0xac0	; 0xac0 <progMode>
	p16f7x_writeComm(P16F7X_LOAD_DATA, (exchange[4] | (exchange[5] <<8)), 0);
    120c:	ea e6       	ldi	r30, 0x6A	; 106
    120e:	f2 e0       	ldi	r31, 0x02	; 2
    1210:	65 81       	ldd	r22, Z+5	; 0x05
    1212:	70 e0       	ldi	r23, 0x00	; 0
    1214:	76 2f       	mov	r23, r22
    1216:	66 27       	eor	r22, r22
    1218:	84 81       	ldd	r24, Z+4	; 0x04
    121a:	68 2b       	or	r22, r24
    121c:	40 e0       	ldi	r20, 0x00	; 0
    121e:	82 e0       	ldi	r24, 0x02	; 2
    1220:	0e 94 c3 01 	call	0x386	; 0x386 <p16f7x_writeComm>
	p16f7x_writeComm(P16F7X_BEGIN_PROG, 0x0000, 1);
    1224:	41 e0       	ldi	r20, 0x01	; 1
    1226:	60 e0       	ldi	r22, 0x00	; 0
    1228:	70 e0       	ldi	r23, 0x00	; 0
    122a:	88 e0       	ldi	r24, 0x08	; 8
    122c:	0e 94 c3 01 	call	0x386	; 0x386 <p16f7x_writeComm>
    1230:	8f e1       	ldi	r24, 0x1F	; 31
    1232:	9e e4       	ldi	r25, 0x4E	; 78
    1234:	01 97       	sbiw	r24, 0x01	; 1
    1236:	f1 f7       	brne	.-4      	; 0x1234 <p16f5x_writeCfg+0x2c>
    1238:	00 c0       	rjmp	.+0      	; 0x123a <p16f5x_writeCfg+0x32>
    123a:	00 00       	nop
	_delay_ms(5);
	p16f7x_writeComm(P16F7X_END_PROG, 0x0000, 1);
    123c:	41 e0       	ldi	r20, 0x01	; 1
    123e:	60 e0       	ldi	r22, 0x00	; 0
    1240:	70 e0       	ldi	r23, 0x00	; 0
    1242:	8e e0       	ldi	r24, 0x0E	; 14
    1244:	0e 94 c3 01 	call	0x386	; 0x386 <p16f7x_writeComm>
	#else
		//round up by default
		__ticks_dc = (uint32_t)(ceil(fabs(__tmp)));
	#endif

	__builtin_avr_delay_cycles(__ticks_dc);
    1248:	8f e8       	ldi	r24, 0x8F	; 143
    124a:	91 e0       	ldi	r25, 0x01	; 1
    124c:	01 97       	sbiw	r24, 0x01	; 1
    124e:	f1 f7       	brne	.-4      	; 0x124c <p16f5x_writeCfg+0x44>
    1250:	00 c0       	rjmp	.+0      	; 0x1252 <p16f5x_writeCfg+0x4a>
    1252:	00 00       	nop
	_delay_us(100);
	reset();
    1254:	0c 94 45 06 	jmp	0xc8a	; 0xc8a <reset>

00001258 <p12f1840_writeCfg>:
}
#endif

void p12f1840_writeCfg(void)
{
    1258:	cf 93       	push	r28
    125a:	df 93       	push	r29
	progMode();
    125c:	0e 94 60 05 	call	0xac0	; 0xac0 <progMode>

	p16f7x_writeComm(P16F7X_LOAD_CONF, 0x0000, 0);
    1260:	40 e0       	ldi	r20, 0x00	; 0
    1262:	60 e0       	ldi	r22, 0x00	; 0
    1264:	70 e0       	ldi	r23, 0x00	; 0
    1266:	80 e0       	ldi	r24, 0x00	; 0
    1268:	0e 94 c3 01 	call	0x386	; 0x386 <p16f7x_writeComm>
    126c:	c7 e0       	ldi	r28, 0x07	; 7
    126e:	d0 e0       	ldi	r29, 0x00	; 0
	for(int c = 0; c < 7; c++) p16f7x_writeComm(P16F7X_INC_ADD, 0x0000, 1);
    1270:	41 e0       	ldi	r20, 0x01	; 1
    1272:	60 e0       	ldi	r22, 0x00	; 0
    1274:	70 e0       	ldi	r23, 0x00	; 0
    1276:	86 e0       	ldi	r24, 0x06	; 6
    1278:	0e 94 c3 01 	call	0x386	; 0x386 <p16f7x_writeComm>
    127c:	21 97       	sbiw	r28, 0x01	; 1
    127e:	c1 f7       	brne	.-16     	; 0x1270 <p12f1840_writeCfg+0x18>
    1280:	c0 e0       	ldi	r28, 0x00	; 0
    1282:	d0 e0       	ldi	r29, 0x00	; 0

	for(int k = 0; k < conf_cnt*2; k+=2)
    1284:	80 91 16 03 	lds	r24, 0x0316	; 0x800316 <conf_cnt>
    1288:	90 e0       	ldi	r25, 0x00	; 0
    128a:	88 0f       	add	r24, r24
    128c:	99 1f       	adc	r25, r25
    128e:	c8 17       	cp	r28, r24
    1290:	d9 07       	cpc	r29, r25
    1292:	0c f5       	brge	.+66     	; 0x12d6 <p12f1840_writeCfg+0x7e>
    1294:	fe 01       	movw	r30, r28
    1296:	e6 59       	subi	r30, 0x96	; 150
    1298:	fd 4f       	sbci	r31, 0xFD	; 253
	{
		p16f7x_writeComm(P16F7X_LOAD_DATA, (exchange[4 + k] | (exchange[5 + k] <<8)), 0);
    129a:	65 81       	ldd	r22, Z+5	; 0x05
    129c:	70 e0       	ldi	r23, 0x00	; 0
    129e:	76 2f       	mov	r23, r22
    12a0:	66 27       	eor	r22, r22
    12a2:	84 81       	ldd	r24, Z+4	; 0x04
    12a4:	68 2b       	or	r22, r24
    12a6:	40 e0       	ldi	r20, 0x00	; 0
    12a8:	82 e0       	ldi	r24, 0x02	; 2
    12aa:	0e 94 c3 01 	call	0x386	; 0x386 <p16f7x_writeComm>
		p16f7x_writeComm(P16F7X_BEGIN_PROG, 0x0000, 1);
    12ae:	41 e0       	ldi	r20, 0x01	; 1
    12b0:	60 e0       	ldi	r22, 0x00	; 0
    12b2:	70 e0       	ldi	r23, 0x00	; 0
    12b4:	88 e0       	ldi	r24, 0x08	; 8
    12b6:	0e 94 c3 01 	call	0x386	; 0x386 <p16f7x_writeComm>
	#else
		//round up by default
		__ticks_dc = (uint32_t)(ceil(fabs(__tmp)));
	#endif

	__builtin_avr_delay_cycles(__ticks_dc);
    12ba:	8f e1       	ldi	r24, 0x1F	; 31
    12bc:	9e e4       	ldi	r25, 0x4E	; 78
    12be:	01 97       	sbiw	r24, 0x01	; 1
    12c0:	f1 f7       	brne	.-4      	; 0x12be <p12f1840_writeCfg+0x66>
    12c2:	00 c0       	rjmp	.+0      	; 0x12c4 <p12f1840_writeCfg+0x6c>
    12c4:	00 00       	nop
		_delay_ms(5);
		p16f7x_writeComm(P16F7X_INC_ADD, 0x0000, 1);
    12c6:	41 e0       	ldi	r20, 0x01	; 1
    12c8:	60 e0       	ldi	r22, 0x00	; 0
    12ca:	70 e0       	ldi	r23, 0x00	; 0
    12cc:	86 e0       	ldi	r24, 0x06	; 6
    12ce:	0e 94 c3 01 	call	0x386	; 0x386 <p16f7x_writeComm>
	progMode();

	p16f7x_writeComm(P16F7X_LOAD_CONF, 0x0000, 0);
	for(int c = 0; c < 7; c++) p16f7x_writeComm(P16F7X_INC_ADD, 0x0000, 1);

	for(int k = 0; k < conf_cnt*2; k+=2)
    12d2:	22 96       	adiw	r28, 0x02	; 2
    12d4:	d7 cf       	rjmp	.-82     	; 0x1284 <p12f1840_writeCfg+0x2c>
		p16f7x_writeComm(P16F7X_BEGIN_PROG, 0x0000, 1);
		_delay_ms(5);
		p16f7x_writeComm(P16F7X_INC_ADD, 0x0000, 1);
	}
	reset();
}
    12d6:	df 91       	pop	r29
    12d8:	cf 91       	pop	r28
		p16f7x_writeComm(P16F7X_LOAD_DATA, (exchange[4 + k] | (exchange[5 + k] <<8)), 0);
		p16f7x_writeComm(P16F7X_BEGIN_PROG, 0x0000, 1);
		_delay_ms(5);
		p16f7x_writeComm(P16F7X_INC_ADD, 0x0000, 1);
	}
	reset();
    12da:	0c 94 45 06 	jmp	0xc8a	; 0xc8a <reset>

000012de <p16f84a_writeCfg>:
}

void p16f84a_writeCfg(void)
{
    12de:	cf 93       	push	r28
    12e0:	df 93       	push	r29
	progMode();
    12e2:	0e 94 60 05 	call	0xac0	; 0xac0 <progMode>

	p16f7x_writeComm(P16F7X_LOAD_CONF, 0x0000, 0);
    12e6:	40 e0       	ldi	r20, 0x00	; 0
    12e8:	60 e0       	ldi	r22, 0x00	; 0
    12ea:	70 e0       	ldi	r23, 0x00	; 0
    12ec:	80 e0       	ldi	r24, 0x00	; 0
    12ee:	0e 94 c3 01 	call	0x386	; 0x386 <p16f7x_writeComm>
    12f2:	c7 e0       	ldi	r28, 0x07	; 7
    12f4:	d0 e0       	ldi	r29, 0x00	; 0
	for(int i = 0; i < 7; i++) p16f7x_writeComm(P16F7X_INC_ADD, 0x0000, 1);
    12f6:	41 e0       	ldi	r20, 0x01	; 1
    12f8:	60 e0       	ldi	r22, 0x00	; 0
    12fa:	70 e0       	ldi	r23, 0x00	; 0
    12fc:	86 e0       	ldi	r24, 0x06	; 6
    12fe:	0e 94 c3 01 	call	0x386	; 0x386 <p16f7x_writeComm>
    1302:	21 97       	sbiw	r28, 0x01	; 1
    1304:	c1 f7       	brne	.-16     	; 0x12f6 <p16f84a_writeCfg+0x18>
	p16f7x_writeComm(P16F7X_LOAD_DATA, (exchange[4] | (exchange[5] <<8)), 0);
    1306:	60 91 6f 02 	lds	r22, 0x026F	; 0x80026f <exchange+0x5>
    130a:	70 e0       	ldi	r23, 0x00	; 0
    130c:	76 2f       	mov	r23, r22
    130e:	66 27       	eor	r22, r22
    1310:	80 91 6e 02 	lds	r24, 0x026E	; 0x80026e <exchange+0x4>
    1314:	68 2b       	or	r22, r24
    1316:	40 e0       	ldi	r20, 0x00	; 0
    1318:	82 e0       	ldi	r24, 0x02	; 2
    131a:	0e 94 c3 01 	call	0x386	; 0x386 <p16f7x_writeComm>
	p16f7x_writeComm(0x18, 0x0000, 1);
    131e:	41 e0       	ldi	r20, 0x01	; 1
    1320:	60 e0       	ldi	r22, 0x00	; 0
    1322:	70 e0       	ldi	r23, 0x00	; 0
    1324:	88 e1       	ldi	r24, 0x18	; 24
    1326:	0e 94 c3 01 	call	0x386	; 0x386 <p16f7x_writeComm>
    132a:	8f e1       	ldi	r24, 0x1F	; 31
    132c:	9e e4       	ldi	r25, 0x4E	; 78
    132e:	01 97       	sbiw	r24, 0x01	; 1
    1330:	f1 f7       	brne	.-4      	; 0x132e <p16f84a_writeCfg+0x50>
    1332:	00 c0       	rjmp	.+0      	; 0x1334 <p16f84a_writeCfg+0x56>
    1334:	00 00       	nop
	_delay_ms(5);
	reset();
}
    1336:	df 91       	pop	r29
    1338:	cf 91       	pop	r28
	p16f7x_writeComm(P16F7X_LOAD_CONF, 0x0000, 0);
	for(int i = 0; i < 7; i++) p16f7x_writeComm(P16F7X_INC_ADD, 0x0000, 1);
	p16f7x_writeComm(P16F7X_LOAD_DATA, (exchange[4] | (exchange[5] <<8)), 0);
	p16f7x_writeComm(0x18, 0x0000, 1);
	_delay_ms(5);
	reset();
    133a:	0c 94 45 06 	jmp	0xc8a	; 0xc8a <reset>

0000133e <p18fx5xx_writeCfg>:
}
#endif

#ifdef PIC18FX5XX
void p18fx5xx_writeCfg(void)
{
    133e:	cf 93       	push	r28
    1340:	df 93       	push	r29
	for(int i = 0; i < 14; i++)
    1342:	c0 e0       	ldi	r28, 0x00	; 0
    1344:	d0 e0       	ldi	r29, 0x00	; 0
	{
		progMode();
    1346:	0e 94 60 05 	call	0xac0	; 0xac0 <progMode>

		p18fx5xx_setDP(0x30, 0x00, (i));
    134a:	4c 2f       	mov	r20, r28
    134c:	60 e0       	ldi	r22, 0x00	; 0
    134e:	80 e3       	ldi	r24, 0x30	; 48
    1350:	0e 94 ff 05 	call	0xbfe	; 0xbfe <p18fx5xx_setDP>
    1354:	fe 01       	movw	r30, r28
    1356:	e6 59       	subi	r30, 0x96	; 150
    1358:	fd 4f       	sbci	r31, 0xFD	; 253
		p18fx5xx_writeComm(P18FX5XX_START_PR, (exchange[i + 4] | (exchange[i + 4] << 8)));
    135a:	64 81       	ldd	r22, Z+4	; 0x04
    135c:	70 e0       	ldi	r23, 0x00	; 0
    135e:	96 2f       	mov	r25, r22
    1360:	88 27       	eor	r24, r24
    1362:	68 2b       	or	r22, r24
    1364:	79 2b       	or	r23, r25
    1366:	8f e0       	ldi	r24, 0x0F	; 15
    1368:	0e 94 6b 04 	call	0x8d6	; 0x8d6 <p18fx5xx_writeComm>
		p18fx5xx_writeNop();
    136c:	0e 94 ce 04 	call	0x99c	; 0x99c <p18fx5xx_writeNop>
		p18fx5xx_writeComm(P18FX5XX_CORE_INSTR, 0x0000);
    1370:	60 e0       	ldi	r22, 0x00	; 0
    1372:	70 e0       	ldi	r23, 0x00	; 0
    1374:	80 e0       	ldi	r24, 0x00	; 0
    1376:	0e 94 6b 04 	call	0x8d6	; 0x8d6 <p18fx5xx_writeComm>
		p18fx5xx_writeComm(P18FX5XX_CORE_INSTR, 0x0000);
    137a:	60 e0       	ldi	r22, 0x00	; 0
    137c:	70 e0       	ldi	r23, 0x00	; 0
    137e:	80 e0       	ldi	r24, 0x00	; 0
    1380:	0e 94 6b 04 	call	0x8d6	; 0x8d6 <p18fx5xx_writeComm>
    1384:	2f ef       	ldi	r18, 0xFF	; 255
    1386:	80 e7       	ldi	r24, 0x70	; 112
    1388:	92 e0       	ldi	r25, 0x02	; 2
    138a:	21 50       	subi	r18, 0x01	; 1
    138c:	80 40       	sbci	r24, 0x00	; 0
    138e:	90 40       	sbci	r25, 0x00	; 0
    1390:	e1 f7       	brne	.-8      	; 0x138a <p18fx5xx_writeCfg+0x4c>
    1392:	00 c0       	rjmp	.+0      	; 0x1394 <p18fx5xx_writeCfg+0x56>
    1394:	00 00       	nop
		_delay_ms(50);
		reset();
    1396:	0e 94 45 06 	call	0xc8a	; 0xc8a <reset>
    139a:	2f ef       	ldi	r18, 0xFF	; 255
    139c:	80 e7       	ldi	r24, 0x70	; 112
    139e:	92 e0       	ldi	r25, 0x02	; 2
    13a0:	21 50       	subi	r18, 0x01	; 1
    13a2:	80 40       	sbci	r24, 0x00	; 0
    13a4:	90 40       	sbci	r25, 0x00	; 0
    13a6:	e1 f7       	brne	.-8      	; 0x13a0 <p18fx5xx_writeCfg+0x62>
    13a8:	00 c0       	rjmp	.+0      	; 0x13aa <p18fx5xx_writeCfg+0x6c>
    13aa:	00 00       	nop
#endif

#ifdef PIC18FX5XX
void p18fx5xx_writeCfg(void)
{
	for(int i = 0; i < 14; i++)
    13ac:	21 96       	adiw	r28, 0x01	; 1
    13ae:	ce 30       	cpi	r28, 0x0E	; 14
    13b0:	d1 05       	cpc	r29, r1
    13b2:	49 f6       	brne	.-110    	; 0x1346 <p18fx5xx_writeCfg+0x8>
		p18fx5xx_writeComm(P18FX5XX_CORE_INSTR, 0x0000);
		_delay_ms(50);
		reset();
		_delay_ms(50);
	}
}
    13b4:	df 91       	pop	r29
    13b6:	cf 91       	pop	r28
    13b8:	08 95       	ret

000013ba <p18fxxk80_writeCfg>:
#endif

#ifdef PIC18FXXK80
void p18fxxk80_writeCfg(void)
{
    13ba:	cf 93       	push	r28
    13bc:	df 93       	push	r29
	for(int i = 0; i < 14; i++)
    13be:	c0 e0       	ldi	r28, 0x00	; 0
    13c0:	d0 e0       	ldi	r29, 0x00	; 0
	{
		progMode();
    13c2:	0e 94 60 05 	call	0xac0	; 0xac0 <progMode>

		//Access to code memory
		p18fx5xx_writeComm(P18FX5XX_CORE_INSTR, 0x8E7F);
    13c6:	6f e7       	ldi	r22, 0x7F	; 127
    13c8:	7e e8       	ldi	r23, 0x8E	; 142
    13ca:	80 e0       	ldi	r24, 0x00	; 0
    13cc:	0e 94 6b 04 	call	0x8d6	; 0x8d6 <p18fx5xx_writeComm>
		p18fx5xx_writeComm(P18FX5XX_CORE_INSTR, 0x9C7F);
    13d0:	6f e7       	ldi	r22, 0x7F	; 127
    13d2:	7c e9       	ldi	r23, 0x9C	; 156
    13d4:	80 e0       	ldi	r24, 0x00	; 0
    13d6:	0e 94 6b 04 	call	0x8d6	; 0x8d6 <p18fx5xx_writeComm>

		p18fx5xx_setDP(0x30, 0x00, (i));
    13da:	4c 2f       	mov	r20, r28
    13dc:	60 e0       	ldi	r22, 0x00	; 0
    13de:	80 e3       	ldi	r24, 0x30	; 48
    13e0:	0e 94 ff 05 	call	0xbfe	; 0xbfe <p18fx5xx_setDP>
    13e4:	fe 01       	movw	r30, r28
    13e6:	e6 59       	subi	r30, 0x96	; 150
    13e8:	fd 4f       	sbci	r31, 0xFD	; 253
		p18fx5xx_writeComm(P18FX5XX_START_PR, (exchange[i + 4] | (exchange[i + 4] << 8)));
    13ea:	64 81       	ldd	r22, Z+4	; 0x04
    13ec:	70 e0       	ldi	r23, 0x00	; 0
    13ee:	96 2f       	mov	r25, r22
    13f0:	88 27       	eor	r24, r24
    13f2:	68 2b       	or	r22, r24
    13f4:	79 2b       	or	r23, r25
    13f6:	8f e0       	ldi	r24, 0x0F	; 15
    13f8:	0e 94 6b 04 	call	0x8d6	; 0x8d6 <p18fx5xx_writeComm>
		p18fx5xx_writeNop();
    13fc:	0e 94 ce 04 	call	0x99c	; 0x99c <p18fx5xx_writeNop>
		p18fx5xx_writeComm(P18FX5XX_CORE_INSTR, 0x0000);
    1400:	60 e0       	ldi	r22, 0x00	; 0
    1402:	70 e0       	ldi	r23, 0x00	; 0
    1404:	80 e0       	ldi	r24, 0x00	; 0
    1406:	0e 94 6b 04 	call	0x8d6	; 0x8d6 <p18fx5xx_writeComm>
		p18fx5xx_writeComm(P18FX5XX_CORE_INSTR, 0x0000);
    140a:	60 e0       	ldi	r22, 0x00	; 0
    140c:	70 e0       	ldi	r23, 0x00	; 0
    140e:	80 e0       	ldi	r24, 0x00	; 0
    1410:	0e 94 6b 04 	call	0x8d6	; 0x8d6 <p18fx5xx_writeComm>
    1414:	2f ef       	ldi	r18, 0xFF	; 255
    1416:	80 e7       	ldi	r24, 0x70	; 112
    1418:	92 e0       	ldi	r25, 0x02	; 2
    141a:	21 50       	subi	r18, 0x01	; 1
    141c:	80 40       	sbci	r24, 0x00	; 0
    141e:	90 40       	sbci	r25, 0x00	; 0
    1420:	e1 f7       	brne	.-8      	; 0x141a <p18fxxk80_writeCfg+0x60>
    1422:	00 c0       	rjmp	.+0      	; 0x1424 <p18fxxk80_writeCfg+0x6a>
    1424:	00 00       	nop
		_delay_ms(50);
		reset();
    1426:	0e 94 45 06 	call	0xc8a	; 0xc8a <reset>
    142a:	2f ef       	ldi	r18, 0xFF	; 255
    142c:	80 e7       	ldi	r24, 0x70	; 112
    142e:	92 e0       	ldi	r25, 0x02	; 2
    1430:	21 50       	subi	r18, 0x01	; 1
    1432:	80 40       	sbci	r24, 0x00	; 0
    1434:	90 40       	sbci	r25, 0x00	; 0
    1436:	e1 f7       	brne	.-8      	; 0x1430 <p18fxxk80_writeCfg+0x76>
    1438:	00 c0       	rjmp	.+0      	; 0x143a <p18fxxk80_writeCfg+0x80>
    143a:	00 00       	nop
#endif

#ifdef PIC18FXXK80
void p18fxxk80_writeCfg(void)
{
	for(int i = 0; i < 14; i++)
    143c:	21 96       	adiw	r28, 0x01	; 1
    143e:	ce 30       	cpi	r28, 0x0E	; 14
    1440:	d1 05       	cpc	r29, r1
    1442:	09 f0       	breq	.+2      	; 0x1446 <p18fxxk80_writeCfg+0x8c>
    1444:	be cf       	rjmp	.-132    	; 0x13c2 <p18fxxk80_writeCfg+0x8>
		p18fx5xx_writeComm(P18FX5XX_CORE_INSTR, 0x0000);
		_delay_ms(50);
		reset();
		_delay_ms(50);
	}
}
    1446:	df 91       	pop	r29
    1448:	cf 91       	pop	r28
    144a:	08 95       	ret

0000144c <p16f7x_read>:
#endif

void p16f7x_read(void)
{
    144c:	bf 92       	push	r11
    144e:	cf 92       	push	r12
    1450:	df 92       	push	r13
    1452:	ef 92       	push	r14
    1454:	ff 92       	push	r15
    1456:	0f 93       	push	r16
    1458:	1f 93       	push	r17
    145a:	cf 93       	push	r28
    145c:	df 93       	push	r29
	uint16_t data;

	progMode();
    145e:	0e 94 60 05 	call	0xac0	; 0xac0 <progMode>

	if(device == 0x09 || device == 0x0A || device == 0x0B || device == 0x0C) p16f7x_writeComm(P16F7X_INC_ADD, 0x0000, 1);
    1462:	80 91 17 03 	lds	r24, 0x0317	; 0x800317 <device>
    1466:	89 50       	subi	r24, 0x09	; 9
    1468:	84 30       	cpi	r24, 0x04	; 4
    146a:	30 f4       	brcc	.+12     	; 0x1478 <p16f7x_read+0x2c>
    146c:	41 e0       	ldi	r20, 0x01	; 1
    146e:	60 e0       	ldi	r22, 0x00	; 0
    1470:	70 e0       	ldi	r23, 0x00	; 0
    1472:	86 e0       	ldi	r24, 0x06	; 6
    1474:	0e 94 c3 01 	call	0x386	; 0x386 <p16f7x_writeComm>
    1478:	c1 2c       	mov	r12, r1
    147a:	d1 2c       	mov	r13, r1
    147c:	76 01       	movw	r14, r12
			data = p16f7x_readComm(P16F7X_READ_DATA);
			main_buff[k + 3] = (data >> 8);
			main_buff[k + 4] = (data & 0xFF);
			p16f7x_writeComm(P16F7X_INC_ADD, 0x0000, 1);
		}
		main_buff[0] = 0xFE;
    147e:	1e ef       	ldi	r17, 0xFE	; 254
		main_buff[1] = 0x80;
    1480:	00 e8       	ldi	r16, 0x80	; 128
		main_buff[2] = 0xA1;
    1482:	81 ea       	ldi	r24, 0xA1	; 161
    1484:	b8 2e       	mov	r11, r24

	progMode();

	if(device == 0x09 || device == 0x0A || device == 0x0B || device == 0x0C) p16f7x_writeComm(P16F7X_INC_ADD, 0x0000, 1);

	for(uint32_t b = 0; b < f_size; b+= 128)
    1486:	80 91 0a 03 	lds	r24, 0x030A	; 0x80030a <f_size>
    148a:	90 91 0b 03 	lds	r25, 0x030B	; 0x80030b <f_size+0x1>
    148e:	a0 91 0c 03 	lds	r26, 0x030C	; 0x80030c <f_size+0x2>
    1492:	b0 91 0d 03 	lds	r27, 0x030D	; 0x80030d <f_size+0x3>
    1496:	c8 16       	cp	r12, r24
    1498:	d9 06       	cpc	r13, r25
    149a:	ea 06       	cpc	r14, r26
    149c:	fb 06       	cpc	r15, r27
    149e:	58 f5       	brcc	.+86     	; 0x14f6 <p16f7x_read+0xaa>
    14a0:	c0 e0       	ldi	r28, 0x00	; 0
    14a2:	d0 e0       	ldi	r29, 0x00	; 0
	{
		for(int k = 0; k < 128; k+= 2)
		{
			data = p16f7x_readComm(P16F7X_READ_DATA);
    14a4:	84 e0       	ldi	r24, 0x04	; 4
    14a6:	0e 94 f1 03 	call	0x7e2	; 0x7e2 <p16f7x_readComm>
    14aa:	fe 01       	movw	r30, r28
    14ac:	e6 59       	subi	r30, 0x96	; 150
    14ae:	fe 4f       	sbci	r31, 0xFE	; 254
			main_buff[k + 3] = (data >> 8);
    14b0:	93 83       	std	Z+3, r25	; 0x03
			main_buff[k + 4] = (data & 0xFF);
    14b2:	84 83       	std	Z+4, r24	; 0x04
			p16f7x_writeComm(P16F7X_INC_ADD, 0x0000, 1);
    14b4:	41 e0       	ldi	r20, 0x01	; 1
    14b6:	60 e0       	ldi	r22, 0x00	; 0
    14b8:	70 e0       	ldi	r23, 0x00	; 0
    14ba:	86 e0       	ldi	r24, 0x06	; 6
    14bc:	0e 94 c3 01 	call	0x386	; 0x386 <p16f7x_writeComm>

	if(device == 0x09 || device == 0x0A || device == 0x0B || device == 0x0C) p16f7x_writeComm(P16F7X_INC_ADD, 0x0000, 1);

	for(uint32_t b = 0; b < f_size; b+= 128)
	{
		for(int k = 0; k < 128; k+= 2)
    14c0:	22 96       	adiw	r28, 0x02	; 2
    14c2:	c0 38       	cpi	r28, 0x80	; 128
    14c4:	d1 05       	cpc	r29, r1
    14c6:	71 f7       	brne	.-36     	; 0x14a4 <p16f7x_read+0x58>
			data = p16f7x_readComm(P16F7X_READ_DATA);
			main_buff[k + 3] = (data >> 8);
			main_buff[k + 4] = (data & 0xFF);
			p16f7x_writeComm(P16F7X_INC_ADD, 0x0000, 1);
		}
		main_buff[0] = 0xFE;
    14c8:	10 93 6a 01 	sts	0x016A, r17	; 0x80016a <main_buff>
		main_buff[1] = 0x80;
    14cc:	00 93 6b 01 	sts	0x016B, r16	; 0x80016b <main_buff+0x1>
		main_buff[2] = 0xA1;
    14d0:	b0 92 6c 01 	sts	0x016C, r11	; 0x80016c <main_buff+0x2>
		send_frame(main_buff, 131);
    14d4:	63 e8       	ldi	r22, 0x83	; 131
    14d6:	8a e6       	ldi	r24, 0x6A	; 106
    14d8:	91 e0       	ldi	r25, 0x01	; 1
    14da:	0e 94 25 1a 	call	0x344a	; 0x344a <send_frame>

		while(!read_bsy);
    14de:	80 91 66 01 	lds	r24, 0x0166	; 0x800166 <__data_end>
    14e2:	88 23       	and	r24, r24
    14e4:	e1 f3       	breq	.-8      	; 0x14de <p16f7x_read+0x92>
		read_bsy = 0;
    14e6:	10 92 66 01 	sts	0x0166, r1	; 0x800166 <__data_end>

	progMode();

	if(device == 0x09 || device == 0x0A || device == 0x0B || device == 0x0C) p16f7x_writeComm(P16F7X_INC_ADD, 0x0000, 1);

	for(uint32_t b = 0; b < f_size; b+= 128)
    14ea:	80 e8       	ldi	r24, 0x80	; 128
    14ec:	c8 0e       	add	r12, r24
    14ee:	d1 1c       	adc	r13, r1
    14f0:	e1 1c       	adc	r14, r1
    14f2:	f1 1c       	adc	r15, r1
    14f4:	c8 cf       	rjmp	.-112    	; 0x1486 <p16f7x_read+0x3a>

		while(!read_bsy);
		read_bsy = 0;
	}
	reset();
}
    14f6:	df 91       	pop	r29
    14f8:	cf 91       	pop	r28
    14fa:	1f 91       	pop	r17
    14fc:	0f 91       	pop	r16
    14fe:	ff 90       	pop	r15
    1500:	ef 90       	pop	r14
    1502:	df 90       	pop	r13
    1504:	cf 90       	pop	r12
    1506:	bf 90       	pop	r11
		send_frame(main_buff, 131);

		while(!read_bsy);
		read_bsy = 0;
	}
	reset();
    1508:	0c 94 45 06 	jmp	0xc8a	; 0xc8a <reset>

0000150c <p16f183xx_read>:
}

void p16f183xx_read(void)
{
    150c:	bf 92       	push	r11
    150e:	cf 92       	push	r12
    1510:	df 92       	push	r13
    1512:	ef 92       	push	r14
    1514:	ff 92       	push	r15
    1516:	0f 93       	push	r16
    1518:	1f 93       	push	r17
    151a:	cf 93       	push	r28
    151c:	df 93       	push	r29
	uint16_t data;

	progMode();
    151e:	0e 94 60 05 	call	0xac0	; 0xac0 <progMode>

	for(uint32_t y = 0; y < f_size; y+= 128)
    1522:	c1 2c       	mov	r12, r1
    1524:	d1 2c       	mov	r13, r1
    1526:	76 01       	movw	r14, r12
		{
			data = p16f7x_readComm(0x24); //READ POST INCREMENT
			main_buff[k + 3] = (data >> 8);
			main_buff[k + 4] = (data & 0xFF);
		}
		main_buff[0] = 0xFE;
    1528:	1e ef       	ldi	r17, 0xFE	; 254
		main_buff[1] = 0x80;
    152a:	00 e8       	ldi	r16, 0x80	; 128
		main_buff[2] = 0xA1;
    152c:	31 ea       	ldi	r19, 0xA1	; 161
    152e:	b3 2e       	mov	r11, r19
{
	uint16_t data;

	progMode();

	for(uint32_t y = 0; y < f_size; y+= 128)
    1530:	80 91 0a 03 	lds	r24, 0x030A	; 0x80030a <f_size>
    1534:	90 91 0b 03 	lds	r25, 0x030B	; 0x80030b <f_size+0x1>
    1538:	a0 91 0c 03 	lds	r26, 0x030C	; 0x80030c <f_size+0x2>
    153c:	b0 91 0d 03 	lds	r27, 0x030D	; 0x80030d <f_size+0x3>
    1540:	c8 16       	cp	r12, r24
    1542:	d9 06       	cpc	r13, r25
    1544:	ea 06       	cpc	r14, r26
    1546:	fb 06       	cpc	r15, r27
    1548:	28 f5       	brcc	.+74     	; 0x1594 <p16f183xx_read+0x88>
    154a:	c0 e0       	ldi	r28, 0x00	; 0
    154c:	d0 e0       	ldi	r29, 0x00	; 0
	{
		for(int k = 0; k < 128; k+= 2)
		{
			data = p16f7x_readComm(0x24); //READ POST INCREMENT
    154e:	84 e2       	ldi	r24, 0x24	; 36
    1550:	0e 94 f1 03 	call	0x7e2	; 0x7e2 <p16f7x_readComm>
    1554:	fe 01       	movw	r30, r28
    1556:	e6 59       	subi	r30, 0x96	; 150
    1558:	fe 4f       	sbci	r31, 0xFE	; 254
			main_buff[k + 3] = (data >> 8);
    155a:	93 83       	std	Z+3, r25	; 0x03
			main_buff[k + 4] = (data & 0xFF);
    155c:	84 83       	std	Z+4, r24	; 0x04

	progMode();

	for(uint32_t y = 0; y < f_size; y+= 128)
	{
		for(int k = 0; k < 128; k+= 2)
    155e:	22 96       	adiw	r28, 0x02	; 2
    1560:	c0 38       	cpi	r28, 0x80	; 128
    1562:	d1 05       	cpc	r29, r1
    1564:	a1 f7       	brne	.-24     	; 0x154e <p16f183xx_read+0x42>
		{
			data = p16f7x_readComm(0x24); //READ POST INCREMENT
			main_buff[k + 3] = (data >> 8);
			main_buff[k + 4] = (data & 0xFF);
		}
		main_buff[0] = 0xFE;
    1566:	10 93 6a 01 	sts	0x016A, r17	; 0x80016a <main_buff>
		main_buff[1] = 0x80;
    156a:	00 93 6b 01 	sts	0x016B, r16	; 0x80016b <main_buff+0x1>
		main_buff[2] = 0xA1;
    156e:	b0 92 6c 01 	sts	0x016C, r11	; 0x80016c <main_buff+0x2>
		send_frame(main_buff, 131);
    1572:	63 e8       	ldi	r22, 0x83	; 131
    1574:	8a e6       	ldi	r24, 0x6A	; 106
    1576:	91 e0       	ldi	r25, 0x01	; 1
    1578:	0e 94 25 1a 	call	0x344a	; 0x344a <send_frame>

		while(!read_bsy);
    157c:	80 91 66 01 	lds	r24, 0x0166	; 0x800166 <__data_end>
    1580:	88 23       	and	r24, r24
    1582:	e1 f3       	breq	.-8      	; 0x157c <p16f183xx_read+0x70>
		read_bsy = 0;
    1584:	10 92 66 01 	sts	0x0166, r1	; 0x800166 <__data_end>
{
	uint16_t data;

	progMode();

	for(uint32_t y = 0; y < f_size; y+= 128)
    1588:	80 e8       	ldi	r24, 0x80	; 128
    158a:	c8 0e       	add	r12, r24
    158c:	d1 1c       	adc	r13, r1
    158e:	e1 1c       	adc	r14, r1
    1590:	f1 1c       	adc	r15, r1
    1592:	ce cf       	rjmp	.-100    	; 0x1530 <p16f183xx_read+0x24>
		send_frame(main_buff, 131);

		while(!read_bsy);
		read_bsy = 0;
	}
	reset();
    1594:	0e 94 45 06 	call	0xc8a	; 0xc8a <reset>

	progMode();
    1598:	0e 94 60 05 	call	0xac0	; 0xac0 <progMode>

	p16f183xx_setAdd(0x1D, 0x00, 0xF0, 0x00); //Load ADD to 0xF000
    159c:	20 e0       	ldi	r18, 0x00	; 0
    159e:	40 ef       	ldi	r20, 0xF0	; 240
    15a0:	60 e0       	ldi	r22, 0x00	; 0
    15a2:	8d e1       	ldi	r24, 0x1D	; 29
    15a4:	0e 94 31 02 	call	0x462	; 0x462 <p16f183xx_setAdd>

	for(int i = 0; i < ee_size; i+= 64)
    15a8:	00 e0       	ldi	r16, 0x00	; 0
    15aa:	10 e0       	ldi	r17, 0x00	; 0
	{
		for(int k = 0; k < 64; k++)
		{
			main_buff[k + 3] = (p16f7x_readComm(0x24) & 0xFF);
		}
		main_buff[0] = 0xFE;
    15ac:	8e ef       	ldi	r24, 0xFE	; 254
    15ae:	f8 2e       	mov	r15, r24
		main_buff[1] = 0x40;
    15b0:	90 e4       	ldi	r25, 0x40	; 64
    15b2:	e9 2e       	mov	r14, r25
		main_buff[2] = 0xA9;
    15b4:	29 ea       	ldi	r18, 0xA9	; 169
    15b6:	d2 2e       	mov	r13, r18

	progMode();

	p16f183xx_setAdd(0x1D, 0x00, 0xF0, 0x00); //Load ADD to 0xF000

	for(int i = 0; i < ee_size; i+= 64)
    15b8:	80 91 10 03 	lds	r24, 0x0310	; 0x800310 <ee_size>
    15bc:	90 91 11 03 	lds	r25, 0x0311	; 0x800311 <ee_size+0x1>
    15c0:	08 17       	cp	r16, r24
    15c2:	19 07       	cpc	r17, r25
    15c4:	f0 f4       	brcc	.+60     	; 0x1602 <p16f183xx_read+0xf6>
    15c6:	cd e6       	ldi	r28, 0x6D	; 109
    15c8:	d1 e0       	ldi	r29, 0x01	; 1
	{
		for(int k = 0; k < 64; k++)
		{
			main_buff[k + 3] = (p16f7x_readComm(0x24) & 0xFF);
    15ca:	84 e2       	ldi	r24, 0x24	; 36
    15cc:	0e 94 f1 03 	call	0x7e2	; 0x7e2 <p16f7x_readComm>
    15d0:	89 93       	st	Y+, r24

	p16f183xx_setAdd(0x1D, 0x00, 0xF0, 0x00); //Load ADD to 0xF000

	for(int i = 0; i < ee_size; i+= 64)
	{
		for(int k = 0; k < 64; k++)
    15d2:	81 e0       	ldi	r24, 0x01	; 1
    15d4:	cd 3a       	cpi	r28, 0xAD	; 173
    15d6:	d8 07       	cpc	r29, r24
    15d8:	c1 f7       	brne	.-16     	; 0x15ca <p16f183xx_read+0xbe>
		{
			main_buff[k + 3] = (p16f7x_readComm(0x24) & 0xFF);
		}
		main_buff[0] = 0xFE;
    15da:	f0 92 6a 01 	sts	0x016A, r15	; 0x80016a <main_buff>
		main_buff[1] = 0x40;
    15de:	e0 92 6b 01 	sts	0x016B, r14	; 0x80016b <main_buff+0x1>
		main_buff[2] = 0xA9;
    15e2:	d0 92 6c 01 	sts	0x016C, r13	; 0x80016c <main_buff+0x2>
		send_frame(main_buff, 67);
    15e6:	63 e4       	ldi	r22, 0x43	; 67
    15e8:	8a e6       	ldi	r24, 0x6A	; 106
    15ea:	91 e0       	ldi	r25, 0x01	; 1
    15ec:	0e 94 25 1a 	call	0x344a	; 0x344a <send_frame>

		while(!read_bsy);
    15f0:	80 91 66 01 	lds	r24, 0x0166	; 0x800166 <__data_end>
    15f4:	88 23       	and	r24, r24
    15f6:	e1 f3       	breq	.-8      	; 0x15f0 <p16f183xx_read+0xe4>
		read_bsy = 0;
    15f8:	10 92 66 01 	sts	0x0166, r1	; 0x800166 <__data_end>

	progMode();

	p16f183xx_setAdd(0x1D, 0x00, 0xF0, 0x00); //Load ADD to 0xF000

	for(int i = 0; i < ee_size; i+= 64)
    15fc:	00 5c       	subi	r16, 0xC0	; 192
    15fe:	1f 4f       	sbci	r17, 0xFF	; 255
    1600:	db cf       	rjmp	.-74     	; 0x15b8 <p16f183xx_read+0xac>

		while(!read_bsy);
		read_bsy = 0;
	}
	reset();
}
    1602:	df 91       	pop	r29
    1604:	cf 91       	pop	r28
    1606:	1f 91       	pop	r17
    1608:	0f 91       	pop	r16
    160a:	ff 90       	pop	r15
    160c:	ef 90       	pop	r14
    160e:	df 90       	pop	r13
    1610:	cf 90       	pop	r12
    1612:	bf 90       	pop	r11
		send_frame(main_buff, 67);

		while(!read_bsy);
		read_bsy = 0;
	}
	reset();
    1614:	0c 94 45 06 	jmp	0xc8a	; 0xc8a <reset>

00001618 <p16f184xx_read>:
}

void p16f184xx_read(void)
{
    1618:	cf 92       	push	r12
    161a:	df 92       	push	r13
    161c:	ef 92       	push	r14
    161e:	ff 92       	push	r15
    1620:	0f 93       	push	r16
    1622:	1f 93       	push	r17
    1624:	cf 93       	push	r28
    1626:	df 93       	push	r29
	uint16_t data;

		progMode();
    1628:	0e 94 60 05 	call	0xac0	; 0xac0 <progMode>

		for(uint32_t y = 0; y < f_size; y+= 128)
    162c:	c1 2c       	mov	r12, r1
    162e:	d1 2c       	mov	r13, r1
    1630:	76 01       	movw	r14, r12
				data = p16f184xx_readComm(0xFE); //READ POST INCREMENT
				main_buff[k + 3] = (data >> 8);
				main_buff[k + 4] = (data & 0xFF);
			}
			main_buff[0] = 0xFE;
			main_buff[1] = 0x80;
    1632:	10 e8       	ldi	r17, 0x80	; 128
			main_buff[2] = 0xA1;
    1634:	01 ea       	ldi	r16, 0xA1	; 161
{
	uint16_t data;

		progMode();

		for(uint32_t y = 0; y < f_size; y+= 128)
    1636:	80 91 0a 03 	lds	r24, 0x030A	; 0x80030a <f_size>
    163a:	90 91 0b 03 	lds	r25, 0x030B	; 0x80030b <f_size+0x1>
    163e:	a0 91 0c 03 	lds	r26, 0x030C	; 0x80030c <f_size+0x2>
    1642:	b0 91 0d 03 	lds	r27, 0x030D	; 0x80030d <f_size+0x3>
    1646:	c8 16       	cp	r12, r24
    1648:	d9 06       	cpc	r13, r25
    164a:	ea 06       	cpc	r14, r26
    164c:	fb 06       	cpc	r15, r27
    164e:	30 f5       	brcc	.+76     	; 0x169c <p16f184xx_read+0x84>
    1650:	c0 e0       	ldi	r28, 0x00	; 0
    1652:	d0 e0       	ldi	r29, 0x00	; 0
		{
			for(int k = 0; k < 128; k+= 2)
			{
				data = p16f184xx_readComm(0xFE); //READ POST INCREMENT
    1654:	8e ef       	ldi	r24, 0xFE	; 254
    1656:	0e 94 7c 03 	call	0x6f8	; 0x6f8 <p16f184xx_readComm>
    165a:	fe 01       	movw	r30, r28
    165c:	e6 59       	subi	r30, 0x96	; 150
    165e:	fe 4f       	sbci	r31, 0xFE	; 254
				main_buff[k + 3] = (data >> 8);
    1660:	93 83       	std	Z+3, r25	; 0x03
				main_buff[k + 4] = (data & 0xFF);
    1662:	84 83       	std	Z+4, r24	; 0x04

		progMode();

		for(uint32_t y = 0; y < f_size; y+= 128)
		{
			for(int k = 0; k < 128; k+= 2)
    1664:	22 96       	adiw	r28, 0x02	; 2
    1666:	c0 38       	cpi	r28, 0x80	; 128
    1668:	d1 05       	cpc	r29, r1
    166a:	a1 f7       	brne	.-24     	; 0x1654 <p16f184xx_read+0x3c>
			{
				data = p16f184xx_readComm(0xFE); //READ POST INCREMENT
				main_buff[k + 3] = (data >> 8);
				main_buff[k + 4] = (data & 0xFF);
			}
			main_buff[0] = 0xFE;
    166c:	8e ef       	ldi	r24, 0xFE	; 254
    166e:	80 93 6a 01 	sts	0x016A, r24	; 0x80016a <main_buff>
			main_buff[1] = 0x80;
    1672:	10 93 6b 01 	sts	0x016B, r17	; 0x80016b <main_buff+0x1>
			main_buff[2] = 0xA1;
    1676:	00 93 6c 01 	sts	0x016C, r16	; 0x80016c <main_buff+0x2>
			send_frame(main_buff, 131);
    167a:	63 e8       	ldi	r22, 0x83	; 131
    167c:	8a e6       	ldi	r24, 0x6A	; 106
    167e:	91 e0       	ldi	r25, 0x01	; 1
    1680:	0e 94 25 1a 	call	0x344a	; 0x344a <send_frame>

			while(!read_bsy);
    1684:	80 91 66 01 	lds	r24, 0x0166	; 0x800166 <__data_end>
    1688:	88 23       	and	r24, r24
    168a:	e1 f3       	breq	.-8      	; 0x1684 <p16f184xx_read+0x6c>
			read_bsy = 0;
    168c:	10 92 66 01 	sts	0x0166, r1	; 0x800166 <__data_end>
{
	uint16_t data;

		progMode();

		for(uint32_t y = 0; y < f_size; y+= 128)
    1690:	80 e8       	ldi	r24, 0x80	; 128
    1692:	c8 0e       	add	r12, r24
    1694:	d1 1c       	adc	r13, r1
    1696:	e1 1c       	adc	r14, r1
    1698:	f1 1c       	adc	r15, r1
    169a:	cd cf       	rjmp	.-102    	; 0x1636 <p16f184xx_read+0x1e>
			send_frame(main_buff, 131);

			while(!read_bsy);
			read_bsy = 0;
		}
		reset();
    169c:	0e 94 45 06 	call	0xc8a	; 0xc8a <reset>

		progMode();
    16a0:	0e 94 60 05 	call	0xac0	; 0xac0 <progMode>

		if(device == 0x12) p16f184xx_writeComm(0x80, 0, 0x00, 0xF0, 0x00); //Load ADD to 0xF000
    16a4:	80 91 17 03 	lds	r24, 0x0317	; 0x800317 <device>
    16a8:	82 31       	cpi	r24, 0x12	; 18
    16aa:	39 f4       	brne	.+14     	; 0x16ba <p16f184xx_read+0xa2>
    16ac:	00 e0       	ldi	r16, 0x00	; 0
    16ae:	20 ef       	ldi	r18, 0xF0	; 240
    16b0:	40 e0       	ldi	r20, 0x00	; 0
    16b2:	60 e0       	ldi	r22, 0x00	; 0
    16b4:	80 e8       	ldi	r24, 0x80	; 128
    16b6:	0e 94 d4 02 	call	0x5a8	; 0x5a8 <p16f184xx_writeComm>
		if(device == 0x13) p16f184xx_writeComm(0x80, 0, 0x31, 0x00, 0x00);
    16ba:	80 91 17 03 	lds	r24, 0x0317	; 0x800317 <device>
    16be:	83 31       	cpi	r24, 0x13	; 19
    16c0:	39 f4       	brne	.+14     	; 0x16d0 <p16f184xx_read+0xb8>
    16c2:	00 e0       	ldi	r16, 0x00	; 0
    16c4:	20 e0       	ldi	r18, 0x00	; 0
    16c6:	41 e3       	ldi	r20, 0x31	; 49
    16c8:	60 e0       	ldi	r22, 0x00	; 0
    16ca:	80 e8       	ldi	r24, 0x80	; 128
    16cc:	0e 94 d4 02 	call	0x5a8	; 0x5a8 <p16f184xx_writeComm>
{
	uint16_t data;

		progMode();

		for(uint32_t y = 0; y < f_size; y+= 128)
    16d0:	00 e0       	ldi	r16, 0x00	; 0
    16d2:	10 e0       	ldi	r17, 0x00	; 0
			for(int k = 0; k < 64; k++)
			{
				main_buff[k + 3] = (p16f184xx_readComm(0xFE) & 0xFF);
			}
			main_buff[0] = 0xFE;
			main_buff[1] = 0x40;
    16d4:	80 e4       	ldi	r24, 0x40	; 64
    16d6:	f8 2e       	mov	r15, r24
			main_buff[2] = 0xA9;
    16d8:	99 ea       	ldi	r25, 0xA9	; 169
    16da:	e9 2e       	mov	r14, r25
		progMode();

		if(device == 0x12) p16f184xx_writeComm(0x80, 0, 0x00, 0xF0, 0x00); //Load ADD to 0xF000
		if(device == 0x13) p16f184xx_writeComm(0x80, 0, 0x31, 0x00, 0x00);

		for(int i = 0; i < ee_size; i+= 64)
    16dc:	80 91 10 03 	lds	r24, 0x0310	; 0x800310 <ee_size>
    16e0:	90 91 11 03 	lds	r25, 0x0311	; 0x800311 <ee_size+0x1>
    16e4:	08 17       	cp	r16, r24
    16e6:	19 07       	cpc	r17, r25
    16e8:	f8 f4       	brcc	.+62     	; 0x1728 <p16f184xx_read+0x110>
    16ea:	cd e6       	ldi	r28, 0x6D	; 109
    16ec:	d1 e0       	ldi	r29, 0x01	; 1
		{
			for(int k = 0; k < 64; k++)
			{
				main_buff[k + 3] = (p16f184xx_readComm(0xFE) & 0xFF);
    16ee:	8e ef       	ldi	r24, 0xFE	; 254
    16f0:	0e 94 7c 03 	call	0x6f8	; 0x6f8 <p16f184xx_readComm>
    16f4:	89 93       	st	Y+, r24
		if(device == 0x12) p16f184xx_writeComm(0x80, 0, 0x00, 0xF0, 0x00); //Load ADD to 0xF000
		if(device == 0x13) p16f184xx_writeComm(0x80, 0, 0x31, 0x00, 0x00);

		for(int i = 0; i < ee_size; i+= 64)
		{
			for(int k = 0; k < 64; k++)
    16f6:	81 e0       	ldi	r24, 0x01	; 1
    16f8:	cd 3a       	cpi	r28, 0xAD	; 173
    16fa:	d8 07       	cpc	r29, r24
    16fc:	c1 f7       	brne	.-16     	; 0x16ee <p16f184xx_read+0xd6>
			{
				main_buff[k + 3] = (p16f184xx_readComm(0xFE) & 0xFF);
			}
			main_buff[0] = 0xFE;
    16fe:	8e ef       	ldi	r24, 0xFE	; 254
    1700:	80 93 6a 01 	sts	0x016A, r24	; 0x80016a <main_buff>
			main_buff[1] = 0x40;
    1704:	f0 92 6b 01 	sts	0x016B, r15	; 0x80016b <main_buff+0x1>
			main_buff[2] = 0xA9;
    1708:	e0 92 6c 01 	sts	0x016C, r14	; 0x80016c <main_buff+0x2>
			send_frame(main_buff, 67);
    170c:	63 e4       	ldi	r22, 0x43	; 67
    170e:	8a e6       	ldi	r24, 0x6A	; 106
    1710:	91 e0       	ldi	r25, 0x01	; 1
    1712:	0e 94 25 1a 	call	0x344a	; 0x344a <send_frame>

			while(!read_bsy);
    1716:	80 91 66 01 	lds	r24, 0x0166	; 0x800166 <__data_end>
    171a:	88 23       	and	r24, r24
    171c:	e1 f3       	breq	.-8      	; 0x1716 <p16f184xx_read+0xfe>
			read_bsy = 0;
    171e:	10 92 66 01 	sts	0x0166, r1	; 0x800166 <__data_end>
		progMode();

		if(device == 0x12) p16f184xx_writeComm(0x80, 0, 0x00, 0xF0, 0x00); //Load ADD to 0xF000
		if(device == 0x13) p16f184xx_writeComm(0x80, 0, 0x31, 0x00, 0x00);

		for(int i = 0; i < ee_size; i+= 64)
    1722:	00 5c       	subi	r16, 0xC0	; 192
    1724:	1f 4f       	sbci	r17, 0xFF	; 255
    1726:	da cf       	rjmp	.-76     	; 0x16dc <p16f184xx_read+0xc4>

			while(!read_bsy);
			read_bsy = 0;
		}
		reset();
}
    1728:	df 91       	pop	r29
    172a:	cf 91       	pop	r28
    172c:	1f 91       	pop	r17
    172e:	0f 91       	pop	r16
    1730:	ff 90       	pop	r15
    1732:	ef 90       	pop	r14
    1734:	df 90       	pop	r13
    1736:	cf 90       	pop	r12
			send_frame(main_buff, 67);

			while(!read_bsy);
			read_bsy = 0;
		}
		reset();
    1738:	0c 94 45 06 	jmp	0xc8a	; 0xc8a <reset>

0000173c <p16f628a_read>:
}

void p16f628a_read(void)
{
    173c:	bf 92       	push	r11
    173e:	cf 92       	push	r12
    1740:	df 92       	push	r13
    1742:	ef 92       	push	r14
    1744:	ff 92       	push	r15
    1746:	0f 93       	push	r16
    1748:	1f 93       	push	r17
    174a:	cf 93       	push	r28
    174c:	df 93       	push	r29
	uint16_t data;

	progMode();
    174e:	0e 94 60 05 	call	0xac0	; 0xac0 <progMode>

	for(uint32_t m = 0; m < f_size; m+= 128)
    1752:	c1 2c       	mov	r12, r1
    1754:	d1 2c       	mov	r13, r1
    1756:	76 01       	movw	r14, r12
			data = p16f7x_readComm(P16F628A_READ_CODE);
			main_buff[k + 3] = (data >> 8);
			main_buff[k + 4] = (data & 0xFF);
			p16f7x_writeComm(P16F628A_INC_ADD, 0x0000, 1);
		}
		main_buff[0] = 0xFE;
    1758:	1e ef       	ldi	r17, 0xFE	; 254
		main_buff[1] = 0x80;
    175a:	00 e8       	ldi	r16, 0x80	; 128
		main_buff[2] = 0xA1;
    175c:	31 ea       	ldi	r19, 0xA1	; 161
    175e:	b3 2e       	mov	r11, r19
{
	uint16_t data;

	progMode();

	for(uint32_t m = 0; m < f_size; m+= 128)
    1760:	80 91 0a 03 	lds	r24, 0x030A	; 0x80030a <f_size>
    1764:	90 91 0b 03 	lds	r25, 0x030B	; 0x80030b <f_size+0x1>
    1768:	a0 91 0c 03 	lds	r26, 0x030C	; 0x80030c <f_size+0x2>
    176c:	b0 91 0d 03 	lds	r27, 0x030D	; 0x80030d <f_size+0x3>
    1770:	c8 16       	cp	r12, r24
    1772:	d9 06       	cpc	r13, r25
    1774:	ea 06       	cpc	r14, r26
    1776:	fb 06       	cpc	r15, r27
    1778:	58 f5       	brcc	.+86     	; 0x17d0 <p16f628a_read+0x94>
    177a:	c0 e0       	ldi	r28, 0x00	; 0
    177c:	d0 e0       	ldi	r29, 0x00	; 0
	{
		for(int k = 0; k < 128; k+= 2)
		{
			data = p16f7x_readComm(P16F628A_READ_CODE);
    177e:	84 e0       	ldi	r24, 0x04	; 4
    1780:	0e 94 f1 03 	call	0x7e2	; 0x7e2 <p16f7x_readComm>
    1784:	fe 01       	movw	r30, r28
    1786:	e6 59       	subi	r30, 0x96	; 150
    1788:	fe 4f       	sbci	r31, 0xFE	; 254
			main_buff[k + 3] = (data >> 8);
    178a:	93 83       	std	Z+3, r25	; 0x03
			main_buff[k + 4] = (data & 0xFF);
    178c:	84 83       	std	Z+4, r24	; 0x04
			p16f7x_writeComm(P16F628A_INC_ADD, 0x0000, 1);
    178e:	41 e0       	ldi	r20, 0x01	; 1
    1790:	60 e0       	ldi	r22, 0x00	; 0
    1792:	70 e0       	ldi	r23, 0x00	; 0
    1794:	86 e0       	ldi	r24, 0x06	; 6
    1796:	0e 94 c3 01 	call	0x386	; 0x386 <p16f7x_writeComm>

	progMode();

	for(uint32_t m = 0; m < f_size; m+= 128)
	{
		for(int k = 0; k < 128; k+= 2)
    179a:	22 96       	adiw	r28, 0x02	; 2
    179c:	c0 38       	cpi	r28, 0x80	; 128
    179e:	d1 05       	cpc	r29, r1
    17a0:	71 f7       	brne	.-36     	; 0x177e <p16f628a_read+0x42>
			data = p16f7x_readComm(P16F628A_READ_CODE);
			main_buff[k + 3] = (data >> 8);
			main_buff[k + 4] = (data & 0xFF);
			p16f7x_writeComm(P16F628A_INC_ADD, 0x0000, 1);
		}
		main_buff[0] = 0xFE;
    17a2:	10 93 6a 01 	sts	0x016A, r17	; 0x80016a <main_buff>
		main_buff[1] = 0x80;
    17a6:	00 93 6b 01 	sts	0x016B, r16	; 0x80016b <main_buff+0x1>
		main_buff[2] = 0xA1;
    17aa:	b0 92 6c 01 	sts	0x016C, r11	; 0x80016c <main_buff+0x2>
		send_frame(main_buff, 131);
    17ae:	63 e8       	ldi	r22, 0x83	; 131
    17b0:	8a e6       	ldi	r24, 0x6A	; 106
    17b2:	91 e0       	ldi	r25, 0x01	; 1
    17b4:	0e 94 25 1a 	call	0x344a	; 0x344a <send_frame>

		while(!read_bsy);
    17b8:	80 91 66 01 	lds	r24, 0x0166	; 0x800166 <__data_end>
    17bc:	88 23       	and	r24, r24
    17be:	e1 f3       	breq	.-8      	; 0x17b8 <p16f628a_read+0x7c>
		read_bsy = 0;
    17c0:	10 92 66 01 	sts	0x0166, r1	; 0x800166 <__data_end>
{
	uint16_t data;

	progMode();

	for(uint32_t m = 0; m < f_size; m+= 128)
    17c4:	20 e8       	ldi	r18, 0x80	; 128
    17c6:	c2 0e       	add	r12, r18
    17c8:	d1 1c       	adc	r13, r1
    17ca:	e1 1c       	adc	r14, r1
    17cc:	f1 1c       	adc	r15, r1
    17ce:	c8 cf       	rjmp	.-112    	; 0x1760 <p16f628a_read+0x24>
		send_frame(main_buff, 131);

		while(!read_bsy);
		read_bsy = 0;
	}
	reset();
    17d0:	0e 94 45 06 	call	0xc8a	; 0xc8a <reset>
    17d4:	8f ef       	ldi	r24, 0xFF	; 255
    17d6:	90 e7       	ldi	r25, 0x70	; 112
    17d8:	22 e0       	ldi	r18, 0x02	; 2
    17da:	81 50       	subi	r24, 0x01	; 1
    17dc:	90 40       	sbci	r25, 0x00	; 0
    17de:	20 40       	sbci	r18, 0x00	; 0
    17e0:	e1 f7       	brne	.-8      	; 0x17da <p16f628a_read+0x9e>
    17e2:	00 c0       	rjmp	.+0      	; 0x17e4 <p16f628a_read+0xa8>
    17e4:	00 00       	nop

	_delay_ms(50);

	progMode();
    17e6:	0e 94 60 05 	call	0xac0	; 0xac0 <progMode>

	for(int i = 0; i < ee_size; i+= 64)
    17ea:	00 e0       	ldi	r16, 0x00	; 0
    17ec:	10 e0       	ldi	r17, 0x00	; 0
		for(int k = 0; k < 64; k++)
		{
			main_buff[k + 3] = (p16f7x_readComm(P16F628A_READ_DATA) & 0xFF);
			p16f7x_writeComm(P16F628A_INC_ADD, 0x0000, 1);
		}
		main_buff[0] = 0xFE;
    17ee:	8e ef       	ldi	r24, 0xFE	; 254
    17f0:	f8 2e       	mov	r15, r24
		main_buff[1] = 0x40;
    17f2:	90 e4       	ldi	r25, 0x40	; 64
    17f4:	e9 2e       	mov	r14, r25
		main_buff[2] = 0xA9;
    17f6:	29 ea       	ldi	r18, 0xA9	; 169
    17f8:	d2 2e       	mov	r13, r18

	_delay_ms(50);

	progMode();

	for(int i = 0; i < ee_size; i+= 64)
    17fa:	80 91 10 03 	lds	r24, 0x0310	; 0x800310 <ee_size>
    17fe:	90 91 11 03 	lds	r25, 0x0311	; 0x800311 <ee_size+0x1>
    1802:	08 17       	cp	r16, r24
    1804:	19 07       	cpc	r17, r25
    1806:	20 f5       	brcc	.+72     	; 0x1850 <p16f628a_read+0x114>
    1808:	cd e6       	ldi	r28, 0x6D	; 109
    180a:	d1 e0       	ldi	r29, 0x01	; 1
	{
		for(int k = 0; k < 64; k++)
		{
			main_buff[k + 3] = (p16f7x_readComm(P16F628A_READ_DATA) & 0xFF);
    180c:	85 e0       	ldi	r24, 0x05	; 5
    180e:	0e 94 f1 03 	call	0x7e2	; 0x7e2 <p16f7x_readComm>
    1812:	89 93       	st	Y+, r24
			p16f7x_writeComm(P16F628A_INC_ADD, 0x0000, 1);
    1814:	41 e0       	ldi	r20, 0x01	; 1
    1816:	60 e0       	ldi	r22, 0x00	; 0
    1818:	70 e0       	ldi	r23, 0x00	; 0
    181a:	86 e0       	ldi	r24, 0x06	; 6
    181c:	0e 94 c3 01 	call	0x386	; 0x386 <p16f7x_writeComm>

	progMode();

	for(int i = 0; i < ee_size; i+= 64)
	{
		for(int k = 0; k < 64; k++)
    1820:	81 e0       	ldi	r24, 0x01	; 1
    1822:	cd 3a       	cpi	r28, 0xAD	; 173
    1824:	d8 07       	cpc	r29, r24
    1826:	91 f7       	brne	.-28     	; 0x180c <p16f628a_read+0xd0>
		{
			main_buff[k + 3] = (p16f7x_readComm(P16F628A_READ_DATA) & 0xFF);
			p16f7x_writeComm(P16F628A_INC_ADD, 0x0000, 1);
		}
		main_buff[0] = 0xFE;
    1828:	f0 92 6a 01 	sts	0x016A, r15	; 0x80016a <main_buff>
		main_buff[1] = 0x40;
    182c:	e0 92 6b 01 	sts	0x016B, r14	; 0x80016b <main_buff+0x1>
		main_buff[2] = 0xA9;
    1830:	d0 92 6c 01 	sts	0x016C, r13	; 0x80016c <main_buff+0x2>
		send_frame(main_buff, 67);
    1834:	63 e4       	ldi	r22, 0x43	; 67
    1836:	8a e6       	ldi	r24, 0x6A	; 106
    1838:	91 e0       	ldi	r25, 0x01	; 1
    183a:	0e 94 25 1a 	call	0x344a	; 0x344a <send_frame>

		while(!read_bsy);
    183e:	80 91 66 01 	lds	r24, 0x0166	; 0x800166 <__data_end>
    1842:	88 23       	and	r24, r24
    1844:	e1 f3       	breq	.-8      	; 0x183e <p16f628a_read+0x102>
		read_bsy = 0;
    1846:	10 92 66 01 	sts	0x0166, r1	; 0x800166 <__data_end>

	_delay_ms(50);

	progMode();

	for(int i = 0; i < ee_size; i+= 64)
    184a:	00 5c       	subi	r16, 0xC0	; 192
    184c:	1f 4f       	sbci	r17, 0xFF	; 255
    184e:	d5 cf       	rjmp	.-86     	; 0x17fa <p16f628a_read+0xbe>

		while(!read_bsy);
		read_bsy = 0;
	}
	reset();
}
    1850:	df 91       	pop	r29
    1852:	cf 91       	pop	r28
    1854:	1f 91       	pop	r17
    1856:	0f 91       	pop	r16
    1858:	ff 90       	pop	r15
    185a:	ef 90       	pop	r14
    185c:	df 90       	pop	r13
    185e:	cf 90       	pop	r12
    1860:	bf 90       	pop	r11
		send_frame(main_buff, 67);

		while(!read_bsy);
		read_bsy = 0;
	}
	reset();
    1862:	0c 94 45 06 	jmp	0xc8a	; 0xc8a <reset>

00001866 <p18fx5xx_read>:
}


void p18fx5xx_read(void)
{
    1866:	9f 92       	push	r9
    1868:	af 92       	push	r10
    186a:	bf 92       	push	r11
    186c:	cf 92       	push	r12
    186e:	df 92       	push	r13
    1870:	ef 92       	push	r14
    1872:	ff 92       	push	r15
    1874:	0f 93       	push	r16
    1876:	1f 93       	push	r17
    1878:	cf 93       	push	r28
    187a:	df 93       	push	r29
	progMode();
    187c:	0e 94 60 05 	call	0xac0	; 0xac0 <progMode>

	p18fx5xx_setDP(0x00, 0x00, 0x00);
    1880:	40 e0       	ldi	r20, 0x00	; 0
    1882:	60 e0       	ldi	r22, 0x00	; 0
    1884:	80 e0       	ldi	r24, 0x00	; 0
    1886:	0e 94 ff 05 	call	0xbfe	; 0xbfe <p18fx5xx_setDP>

	for(uint32_t m = 0; m < f_size; m+= 128)
    188a:	c1 2c       	mov	r12, r1
    188c:	d1 2c       	mov	r13, r1
    188e:	76 01       	movw	r14, r12
		for(int k = 0; k < 128; k+= 2)
		{
			main_buff[k + 4] = p18fx5xx_readComm(P18FX5XX_TABLE_RDPI, 0x00);
			main_buff[k + 3] = p18fx5xx_readComm(P18FX5XX_TABLE_RDPI, 0x00);
		}
		main_buff[0] = 0xFE;
    1890:	4e ef       	ldi	r20, 0xFE	; 254
    1892:	b4 2e       	mov	r11, r20
		main_buff[1] = 0x80;
    1894:	50 e8       	ldi	r21, 0x80	; 128
    1896:	a5 2e       	mov	r10, r21
		main_buff[2] = 0xA1;
    1898:	61 ea       	ldi	r22, 0xA1	; 161
    189a:	96 2e       	mov	r9, r22
{
	progMode();

	p18fx5xx_setDP(0x00, 0x00, 0x00);

	for(uint32_t m = 0; m < f_size; m+= 128)
    189c:	80 91 0a 03 	lds	r24, 0x030A	; 0x80030a <f_size>
    18a0:	90 91 0b 03 	lds	r25, 0x030B	; 0x80030b <f_size+0x1>
    18a4:	a0 91 0c 03 	lds	r26, 0x030C	; 0x80030c <f_size+0x2>
    18a8:	b0 91 0d 03 	lds	r27, 0x030D	; 0x80030d <f_size+0x3>
    18ac:	c8 16       	cp	r12, r24
    18ae:	d9 06       	cpc	r13, r25
    18b0:	ea 06       	cpc	r14, r26
    18b2:	fb 06       	cpc	r15, r27
    18b4:	60 f5       	brcc	.+88     	; 0x190e <p18fx5xx_read+0xa8>
    18b6:	c0 e0       	ldi	r28, 0x00	; 0
    18b8:	d0 e0       	ldi	r29, 0x00	; 0
	{
		for(int k = 0; k < 128; k+= 2)
		{
			main_buff[k + 4] = p18fx5xx_readComm(P18FX5XX_TABLE_RDPI, 0x00);
    18ba:	60 e0       	ldi	r22, 0x00	; 0
    18bc:	89 e0       	ldi	r24, 0x09	; 9
    18be:	0e 94 7a 05 	call	0xaf4	; 0xaf4 <p18fx5xx_readComm>
    18c2:	8e 01       	movw	r16, r28
    18c4:	06 59       	subi	r16, 0x96	; 150
    18c6:	1e 4f       	sbci	r17, 0xFE	; 254
    18c8:	f8 01       	movw	r30, r16
    18ca:	84 83       	std	Z+4, r24	; 0x04
			main_buff[k + 3] = p18fx5xx_readComm(P18FX5XX_TABLE_RDPI, 0x00);
    18cc:	60 e0       	ldi	r22, 0x00	; 0
    18ce:	89 e0       	ldi	r24, 0x09	; 9
    18d0:	0e 94 7a 05 	call	0xaf4	; 0xaf4 <p18fx5xx_readComm>
    18d4:	f8 01       	movw	r30, r16
    18d6:	83 83       	std	Z+3, r24	; 0x03

	p18fx5xx_setDP(0x00, 0x00, 0x00);

	for(uint32_t m = 0; m < f_size; m+= 128)
	{
		for(int k = 0; k < 128; k+= 2)
    18d8:	22 96       	adiw	r28, 0x02	; 2
    18da:	c0 38       	cpi	r28, 0x80	; 128
    18dc:	d1 05       	cpc	r29, r1
    18de:	69 f7       	brne	.-38     	; 0x18ba <p18fx5xx_read+0x54>
		{
			main_buff[k + 4] = p18fx5xx_readComm(P18FX5XX_TABLE_RDPI, 0x00);
			main_buff[k + 3] = p18fx5xx_readComm(P18FX5XX_TABLE_RDPI, 0x00);
		}
		main_buff[0] = 0xFE;
    18e0:	b0 92 6a 01 	sts	0x016A, r11	; 0x80016a <main_buff>
		main_buff[1] = 0x80;
    18e4:	a0 92 6b 01 	sts	0x016B, r10	; 0x80016b <main_buff+0x1>
		main_buff[2] = 0xA1;
    18e8:	90 92 6c 01 	sts	0x016C, r9	; 0x80016c <main_buff+0x2>
		send_frame(main_buff, 131);
    18ec:	63 e8       	ldi	r22, 0x83	; 131
    18ee:	8a e6       	ldi	r24, 0x6A	; 106
    18f0:	91 e0       	ldi	r25, 0x01	; 1
    18f2:	0e 94 25 1a 	call	0x344a	; 0x344a <send_frame>

		while(!read_bsy);
    18f6:	80 91 66 01 	lds	r24, 0x0166	; 0x800166 <__data_end>
    18fa:	88 23       	and	r24, r24
    18fc:	e1 f3       	breq	.-8      	; 0x18f6 <p18fx5xx_read+0x90>
		read_bsy = 0;
    18fe:	10 92 66 01 	sts	0x0166, r1	; 0x800166 <__data_end>
{
	progMode();

	p18fx5xx_setDP(0x00, 0x00, 0x00);

	for(uint32_t m = 0; m < f_size; m+= 128)
    1902:	f0 e8       	ldi	r31, 0x80	; 128
    1904:	cf 0e       	add	r12, r31
    1906:	d1 1c       	adc	r13, r1
    1908:	e1 1c       	adc	r14, r1
    190a:	f1 1c       	adc	r15, r1
    190c:	c7 cf       	rjmp	.-114    	; 0x189c <p18fx5xx_read+0x36>
		send_frame(main_buff, 131);

		while(!read_bsy);
		read_bsy = 0;
	}
	reset();
    190e:	0e 94 45 06 	call	0xc8a	; 0xc8a <reset>

	if(ee_size > 0)
    1912:	80 91 10 03 	lds	r24, 0x0310	; 0x800310 <ee_size>
    1916:	90 91 11 03 	lds	r25, 0x0311	; 0x800311 <ee_size+0x1>
    191a:	89 2b       	or	r24, r25
    191c:	09 f4       	brne	.+2      	; 0x1920 <p18fx5xx_read+0xba>
    191e:	7e c0       	rjmp	.+252    	; 0x1a1c <p18fx5xx_read+0x1b6>
	{
		progMode();
    1920:	0e 94 60 05 	call	0xac0	; 0xac0 <progMode>

		p18fx5xx_writeComm(P18FX5XX_CORE_INSTR, 0x9EA6);
    1924:	66 ea       	ldi	r22, 0xA6	; 166
    1926:	7e e9       	ldi	r23, 0x9E	; 158
    1928:	80 e0       	ldi	r24, 0x00	; 0
    192a:	0e 94 6b 04 	call	0x8d6	; 0x8d6 <p18fx5xx_writeComm>
		p18fx5xx_writeComm(P18FX5XX_CORE_INSTR, 0x9CA6);
    192e:	66 ea       	ldi	r22, 0xA6	; 166
    1930:	7c e9       	ldi	r23, 0x9C	; 156
    1932:	80 e0       	ldi	r24, 0x00	; 0
    1934:	0e 94 6b 04 	call	0x8d6	; 0x8d6 <p18fx5xx_writeComm>
		for(int i = 0; i < ee_size; i+= 64)
    1938:	e1 2c       	mov	r14, r1
    193a:	f1 2c       	mov	r15, r1
				p18fx5xx_writeComm(P18FX5XX_CORE_INSTR, 0x6EF5);
				p18fx5xx_writeComm(P18FX5XX_CORE_INSTR, 0x0000);
				p18fx5xx_readComm(P18FX5XX_SHIFT_TABL, 0x00);
				main_buff[k + 3] = p18fx5xx_readComm(P18FX5XX_SHIFT_TABL, 0x00);
			}
			main_buff[0] = 0xFE;
    193c:	9e ef       	ldi	r25, 0xFE	; 254
    193e:	d9 2e       	mov	r13, r25
			main_buff[1] = 0x40;
    1940:	20 e4       	ldi	r18, 0x40	; 64
    1942:	c2 2e       	mov	r12, r18
			main_buff[2] = 0xA9;
    1944:	39 ea       	ldi	r19, 0xA9	; 169
    1946:	b3 2e       	mov	r11, r19
	{
		progMode();

		p18fx5xx_writeComm(P18FX5XX_CORE_INSTR, 0x9EA6);
		p18fx5xx_writeComm(P18FX5XX_CORE_INSTR, 0x9CA6);
		for(int i = 0; i < ee_size; i+= 64)
    1948:	80 91 10 03 	lds	r24, 0x0310	; 0x800310 <ee_size>
    194c:	90 91 11 03 	lds	r25, 0x0311	; 0x800311 <ee_size+0x1>
    1950:	e8 16       	cp	r14, r24
    1952:	f9 06       	cpc	r15, r25
    1954:	08 f0       	brcs	.+2      	; 0x1958 <p18fx5xx_read+0xf2>
    1956:	55 c0       	rjmp	.+170    	; 0x1a02 <p18fx5xx_read+0x19c>
    1958:	00 e0       	ldi	r16, 0x00	; 0
    195a:	10 e0       	ldi	r17, 0x00	; 0
    195c:	e8 01       	movw	r28, r16
    195e:	ce 0d       	add	r28, r14
    1960:	df 1d       	adc	r29, r15
		{
			for(int k = 0; k < 64; k++)
			{
				uint16_t c_add = k + i;
				p18fx5xx_writeComm(P18FX5XX_CORE_INSTR, (0x0E00 | (c_add & 0xFF)));
    1962:	be 01       	movw	r22, r28
    1964:	77 27       	eor	r23, r23
    1966:	7e 60       	ori	r23, 0x0E	; 14
    1968:	80 e0       	ldi	r24, 0x00	; 0
    196a:	0e 94 6b 04 	call	0x8d6	; 0x8d6 <p18fx5xx_writeComm>
				p18fx5xx_writeComm(P18FX5XX_CORE_INSTR, 0x6EA9);
    196e:	69 ea       	ldi	r22, 0xA9	; 169
    1970:	7e e6       	ldi	r23, 0x6E	; 110
    1972:	80 e0       	ldi	r24, 0x00	; 0
    1974:	0e 94 6b 04 	call	0x8d6	; 0x8d6 <p18fx5xx_writeComm>
				p18fx5xx_writeComm(P18FX5XX_CORE_INSTR, (0x0E00 | (c_add >> 8)));
    1978:	6d 2f       	mov	r22, r29
    197a:	77 27       	eor	r23, r23
    197c:	7e 60       	ori	r23, 0x0E	; 14
    197e:	80 e0       	ldi	r24, 0x00	; 0
    1980:	0e 94 6b 04 	call	0x8d6	; 0x8d6 <p18fx5xx_writeComm>
				p18fx5xx_writeComm(P18FX5XX_CORE_INSTR, 0x6EAA);
    1984:	6a ea       	ldi	r22, 0xAA	; 170
    1986:	7e e6       	ldi	r23, 0x6E	; 110
    1988:	80 e0       	ldi	r24, 0x00	; 0
    198a:	0e 94 6b 04 	call	0x8d6	; 0x8d6 <p18fx5xx_writeComm>
				p18fx5xx_writeComm(P18FX5XX_CORE_INSTR, 0x80A6);
    198e:	66 ea       	ldi	r22, 0xA6	; 166
    1990:	70 e8       	ldi	r23, 0x80	; 128
    1992:	80 e0       	ldi	r24, 0x00	; 0
    1994:	0e 94 6b 04 	call	0x8d6	; 0x8d6 <p18fx5xx_writeComm>
				p18fx5xx_writeComm(P18FX5XX_CORE_INSTR, 0x50A8);
    1998:	68 ea       	ldi	r22, 0xA8	; 168
    199a:	70 e5       	ldi	r23, 0x50	; 80
    199c:	80 e0       	ldi	r24, 0x00	; 0
    199e:	0e 94 6b 04 	call	0x8d6	; 0x8d6 <p18fx5xx_writeComm>
				p18fx5xx_writeComm(P18FX5XX_CORE_INSTR, 0x6EF5);
    19a2:	65 ef       	ldi	r22, 0xF5	; 245
    19a4:	7e e6       	ldi	r23, 0x6E	; 110
    19a6:	80 e0       	ldi	r24, 0x00	; 0
    19a8:	0e 94 6b 04 	call	0x8d6	; 0x8d6 <p18fx5xx_writeComm>
				p18fx5xx_writeComm(P18FX5XX_CORE_INSTR, 0x0000);
    19ac:	60 e0       	ldi	r22, 0x00	; 0
    19ae:	70 e0       	ldi	r23, 0x00	; 0
    19b0:	80 e0       	ldi	r24, 0x00	; 0
    19b2:	0e 94 6b 04 	call	0x8d6	; 0x8d6 <p18fx5xx_writeComm>
				p18fx5xx_readComm(P18FX5XX_SHIFT_TABL, 0x00);
    19b6:	60 e0       	ldi	r22, 0x00	; 0
    19b8:	82 e0       	ldi	r24, 0x02	; 2
    19ba:	0e 94 7a 05 	call	0xaf4	; 0xaf4 <p18fx5xx_readComm>
				main_buff[k + 3] = p18fx5xx_readComm(P18FX5XX_SHIFT_TABL, 0x00);
    19be:	60 e0       	ldi	r22, 0x00	; 0
    19c0:	82 e0       	ldi	r24, 0x02	; 2
    19c2:	0e 94 7a 05 	call	0xaf4	; 0xaf4 <p18fx5xx_readComm>
    19c6:	f8 01       	movw	r30, r16
    19c8:	e6 59       	subi	r30, 0x96	; 150
    19ca:	fe 4f       	sbci	r31, 0xFE	; 254
    19cc:	83 83       	std	Z+3, r24	; 0x03

		p18fx5xx_writeComm(P18FX5XX_CORE_INSTR, 0x9EA6);
		p18fx5xx_writeComm(P18FX5XX_CORE_INSTR, 0x9CA6);
		for(int i = 0; i < ee_size; i+= 64)
		{
			for(int k = 0; k < 64; k++)
    19ce:	0f 5f       	subi	r16, 0xFF	; 255
    19d0:	1f 4f       	sbci	r17, 0xFF	; 255
    19d2:	00 34       	cpi	r16, 0x40	; 64
    19d4:	11 05       	cpc	r17, r1
    19d6:	11 f6       	brne	.-124    	; 0x195c <p18fx5xx_read+0xf6>
				p18fx5xx_writeComm(P18FX5XX_CORE_INSTR, 0x6EF5);
				p18fx5xx_writeComm(P18FX5XX_CORE_INSTR, 0x0000);
				p18fx5xx_readComm(P18FX5XX_SHIFT_TABL, 0x00);
				main_buff[k + 3] = p18fx5xx_readComm(P18FX5XX_SHIFT_TABL, 0x00);
			}
			main_buff[0] = 0xFE;
    19d8:	d0 92 6a 01 	sts	0x016A, r13	; 0x80016a <main_buff>
			main_buff[1] = 0x40;
    19dc:	c0 92 6b 01 	sts	0x016B, r12	; 0x80016b <main_buff+0x1>
			main_buff[2] = 0xA9;
    19e0:	b0 92 6c 01 	sts	0x016C, r11	; 0x80016c <main_buff+0x2>
			send_frame(main_buff, 67);
    19e4:	63 e4       	ldi	r22, 0x43	; 67
    19e6:	8a e6       	ldi	r24, 0x6A	; 106
    19e8:	91 e0       	ldi	r25, 0x01	; 1
    19ea:	0e 94 25 1a 	call	0x344a	; 0x344a <send_frame>

			while(!read_bsy);
    19ee:	80 91 66 01 	lds	r24, 0x0166	; 0x800166 <__data_end>
    19f2:	88 23       	and	r24, r24
    19f4:	e1 f3       	breq	.-8      	; 0x19ee <p18fx5xx_read+0x188>
			read_bsy = 0;
    19f6:	10 92 66 01 	sts	0x0166, r1	; 0x800166 <__data_end>
	{
		progMode();

		p18fx5xx_writeComm(P18FX5XX_CORE_INSTR, 0x9EA6);
		p18fx5xx_writeComm(P18FX5XX_CORE_INSTR, 0x9CA6);
		for(int i = 0; i < ee_size; i+= 64)
    19fa:	80 e4       	ldi	r24, 0x40	; 64
    19fc:	e8 0e       	add	r14, r24
    19fe:	f1 1c       	adc	r15, r1
    1a00:	a3 cf       	rjmp	.-186    	; 0x1948 <p18fx5xx_read+0xe2>
			while(!read_bsy);
			read_bsy = 0;
		}
		reset();
	}
}
    1a02:	df 91       	pop	r29
    1a04:	cf 91       	pop	r28
    1a06:	1f 91       	pop	r17
    1a08:	0f 91       	pop	r16
    1a0a:	ff 90       	pop	r15
    1a0c:	ef 90       	pop	r14
    1a0e:	df 90       	pop	r13
    1a10:	cf 90       	pop	r12
    1a12:	bf 90       	pop	r11
    1a14:	af 90       	pop	r10
    1a16:	9f 90       	pop	r9
			send_frame(main_buff, 67);

			while(!read_bsy);
			read_bsy = 0;
		}
		reset();
    1a18:	0c 94 45 06 	jmp	0xc8a	; 0xc8a <reset>
	}
}
    1a1c:	df 91       	pop	r29
    1a1e:	cf 91       	pop	r28
    1a20:	1f 91       	pop	r17
    1a22:	0f 91       	pop	r16
    1a24:	ff 90       	pop	r15
    1a26:	ef 90       	pop	r14
    1a28:	df 90       	pop	r13
    1a2a:	cf 90       	pop	r12
    1a2c:	bf 90       	pop	r11
    1a2e:	af 90       	pop	r10
    1a30:	9f 90       	pop	r9
    1a32:	08 95       	ret

00001a34 <p18fxxk80_read>:


#ifdef PIC18FXXK80
void p18fxxk80_read(void)
{
    1a34:	9f 92       	push	r9
    1a36:	af 92       	push	r10
    1a38:	bf 92       	push	r11
    1a3a:	cf 92       	push	r12
    1a3c:	df 92       	push	r13
    1a3e:	ef 92       	push	r14
    1a40:	ff 92       	push	r15
    1a42:	0f 93       	push	r16
    1a44:	1f 93       	push	r17
    1a46:	cf 93       	push	r28
    1a48:	df 93       	push	r29
	progMode();
    1a4a:	0e 94 60 05 	call	0xac0	; 0xac0 <progMode>

		p18fx5xx_setDP(0x00, 0x00, 0x00);
    1a4e:	40 e0       	ldi	r20, 0x00	; 0
    1a50:	60 e0       	ldi	r22, 0x00	; 0
    1a52:	80 e0       	ldi	r24, 0x00	; 0
    1a54:	0e 94 ff 05 	call	0xbfe	; 0xbfe <p18fx5xx_setDP>

		for(uint32_t m = 0; m < f_size; m+= 128)
    1a58:	c1 2c       	mov	r12, r1
    1a5a:	d1 2c       	mov	r13, r1
    1a5c:	76 01       	movw	r14, r12
			for(int k = 0; k < 128; k+= 2)
			{
				main_buff[k + 4] = p18fx5xx_readComm(P18FX5XX_TABLE_RDPI, 0x00);
				main_buff[k + 3] = p18fx5xx_readComm(P18FX5XX_TABLE_RDPI, 0x00);
			}
			main_buff[0] = 0xFE;
    1a5e:	4e ef       	ldi	r20, 0xFE	; 254
    1a60:	b4 2e       	mov	r11, r20
			main_buff[1] = 0x80;
    1a62:	50 e8       	ldi	r21, 0x80	; 128
    1a64:	a5 2e       	mov	r10, r21
			main_buff[2] = 0xA1;
    1a66:	61 ea       	ldi	r22, 0xA1	; 161
    1a68:	96 2e       	mov	r9, r22
{
	progMode();

		p18fx5xx_setDP(0x00, 0x00, 0x00);

		for(uint32_t m = 0; m < f_size; m+= 128)
    1a6a:	80 91 0a 03 	lds	r24, 0x030A	; 0x80030a <f_size>
    1a6e:	90 91 0b 03 	lds	r25, 0x030B	; 0x80030b <f_size+0x1>
    1a72:	a0 91 0c 03 	lds	r26, 0x030C	; 0x80030c <f_size+0x2>
    1a76:	b0 91 0d 03 	lds	r27, 0x030D	; 0x80030d <f_size+0x3>
    1a7a:	c8 16       	cp	r12, r24
    1a7c:	d9 06       	cpc	r13, r25
    1a7e:	ea 06       	cpc	r14, r26
    1a80:	fb 06       	cpc	r15, r27
    1a82:	60 f5       	brcc	.+88     	; 0x1adc <p18fxxk80_read+0xa8>
    1a84:	c0 e0       	ldi	r28, 0x00	; 0
    1a86:	d0 e0       	ldi	r29, 0x00	; 0
		{
			for(int k = 0; k < 128; k+= 2)
			{
				main_buff[k + 4] = p18fx5xx_readComm(P18FX5XX_TABLE_RDPI, 0x00);
    1a88:	60 e0       	ldi	r22, 0x00	; 0
    1a8a:	89 e0       	ldi	r24, 0x09	; 9
    1a8c:	0e 94 7a 05 	call	0xaf4	; 0xaf4 <p18fx5xx_readComm>
    1a90:	8e 01       	movw	r16, r28
    1a92:	06 59       	subi	r16, 0x96	; 150
    1a94:	1e 4f       	sbci	r17, 0xFE	; 254
    1a96:	f8 01       	movw	r30, r16
    1a98:	84 83       	std	Z+4, r24	; 0x04
				main_buff[k + 3] = p18fx5xx_readComm(P18FX5XX_TABLE_RDPI, 0x00);
    1a9a:	60 e0       	ldi	r22, 0x00	; 0
    1a9c:	89 e0       	ldi	r24, 0x09	; 9
    1a9e:	0e 94 7a 05 	call	0xaf4	; 0xaf4 <p18fx5xx_readComm>
    1aa2:	f8 01       	movw	r30, r16
    1aa4:	83 83       	std	Z+3, r24	; 0x03

		p18fx5xx_setDP(0x00, 0x00, 0x00);

		for(uint32_t m = 0; m < f_size; m+= 128)
		{
			for(int k = 0; k < 128; k+= 2)
    1aa6:	22 96       	adiw	r28, 0x02	; 2
    1aa8:	c0 38       	cpi	r28, 0x80	; 128
    1aaa:	d1 05       	cpc	r29, r1
    1aac:	69 f7       	brne	.-38     	; 0x1a88 <p18fxxk80_read+0x54>
			{
				main_buff[k + 4] = p18fx5xx_readComm(P18FX5XX_TABLE_RDPI, 0x00);
				main_buff[k + 3] = p18fx5xx_readComm(P18FX5XX_TABLE_RDPI, 0x00);
			}
			main_buff[0] = 0xFE;
    1aae:	b0 92 6a 01 	sts	0x016A, r11	; 0x80016a <main_buff>
			main_buff[1] = 0x80;
    1ab2:	a0 92 6b 01 	sts	0x016B, r10	; 0x80016b <main_buff+0x1>
			main_buff[2] = 0xA1;
    1ab6:	90 92 6c 01 	sts	0x016C, r9	; 0x80016c <main_buff+0x2>
			send_frame(main_buff, 131);
    1aba:	63 e8       	ldi	r22, 0x83	; 131
    1abc:	8a e6       	ldi	r24, 0x6A	; 106
    1abe:	91 e0       	ldi	r25, 0x01	; 1
    1ac0:	0e 94 25 1a 	call	0x344a	; 0x344a <send_frame>

			while(!read_bsy);
    1ac4:	80 91 66 01 	lds	r24, 0x0166	; 0x800166 <__data_end>
    1ac8:	88 23       	and	r24, r24
    1aca:	e1 f3       	breq	.-8      	; 0x1ac4 <p18fxxk80_read+0x90>
			read_bsy = 0;
    1acc:	10 92 66 01 	sts	0x0166, r1	; 0x800166 <__data_end>
{
	progMode();

		p18fx5xx_setDP(0x00, 0x00, 0x00);

		for(uint32_t m = 0; m < f_size; m+= 128)
    1ad0:	f0 e8       	ldi	r31, 0x80	; 128
    1ad2:	cf 0e       	add	r12, r31
    1ad4:	d1 1c       	adc	r13, r1
    1ad6:	e1 1c       	adc	r14, r1
    1ad8:	f1 1c       	adc	r15, r1
    1ada:	c7 cf       	rjmp	.-114    	; 0x1a6a <p18fxxk80_read+0x36>
			send_frame(main_buff, 131);

			while(!read_bsy);
			read_bsy = 0;
		}
		reset();
    1adc:	0e 94 45 06 	call	0xc8a	; 0xc8a <reset>
    1ae0:	8f e3       	ldi	r24, 0x3F	; 63
    1ae2:	9c e9       	ldi	r25, 0x9C	; 156
    1ae4:	01 97       	sbiw	r24, 0x01	; 1
    1ae6:	f1 f7       	brne	.-4      	; 0x1ae4 <p18fxxk80_read+0xb0>
    1ae8:	00 c0       	rjmp	.+0      	; 0x1aea <p18fxxk80_read+0xb6>
    1aea:	00 00       	nop

	_delay_ms(10);

	if(ee_size > 0)
    1aec:	80 91 10 03 	lds	r24, 0x0310	; 0x800310 <ee_size>
    1af0:	90 91 11 03 	lds	r25, 0x0311	; 0x800311 <ee_size+0x1>
    1af4:	89 2b       	or	r24, r25
    1af6:	09 f4       	brne	.+2      	; 0x1afa <p18fxxk80_read+0xc6>
    1af8:	74 c0       	rjmp	.+232    	; 0x1be2 <p18fxxk80_read+0x1ae>
    1afa:	e1 2c       	mov	r14, r1
    1afc:	f1 2c       	mov	r15, r1
				p18fx5xx_writeComm(P18FX5XX_CORE_INSTR, 0x0000);
				main_buff[k + 3] = p18fx5xx_readComm(P18FX5XX_SHIFT_TABL, 0x00);
				p18fx5xx_readComm(P18FX5XX_SHIFT_TABL, 0x00);
				reset();
			}
			main_buff[0] = 0xFE;
    1afe:	8e ef       	ldi	r24, 0xFE	; 254
    1b00:	d8 2e       	mov	r13, r24
			main_buff[1] = 0x40;
    1b02:	90 e4       	ldi	r25, 0x40	; 64
    1b04:	c9 2e       	mov	r12, r25
			main_buff[2] = 0xA9;
    1b06:	29 ea       	ldi	r18, 0xA9	; 169
    1b08:	b2 2e       	mov	r11, r18

	_delay_ms(10);

	if(ee_size > 0)
	{
		for(int i = 0; i < ee_size; i+= 64)
    1b0a:	80 91 10 03 	lds	r24, 0x0310	; 0x800310 <ee_size>
    1b0e:	90 91 11 03 	lds	r25, 0x0311	; 0x800311 <ee_size+0x1>
    1b12:	e8 16       	cp	r14, r24
    1b14:	f9 06       	cpc	r15, r25
    1b16:	08 f0       	brcs	.+2      	; 0x1b1a <p18fxxk80_read+0xe6>
    1b18:	64 c0       	rjmp	.+200    	; 0x1be2 <p18fxxk80_read+0x1ae>
    1b1a:	00 e0       	ldi	r16, 0x00	; 0
    1b1c:	10 e0       	ldi	r17, 0x00	; 0
		{
			for(int k = 0; k < 64; k++)
			{
				progMode();
    1b1e:	0e 94 60 05 	call	0xac0	; 0xac0 <progMode>
    1b22:	e8 01       	movw	r28, r16
    1b24:	ce 0d       	add	r28, r14
    1b26:	df 1d       	adc	r29, r15
				uint16_t c_add = k + i;

				p18fx5xx_writeComm(P18FX5XX_CORE_INSTR, 0x9E7F);
    1b28:	6f e7       	ldi	r22, 0x7F	; 127
    1b2a:	7e e9       	ldi	r23, 0x9E	; 158
    1b2c:	80 e0       	ldi	r24, 0x00	; 0
    1b2e:	0e 94 6b 04 	call	0x8d6	; 0x8d6 <p18fx5xx_writeComm>
				p18fx5xx_writeComm(P18FX5XX_CORE_INSTR, 0x9C7F);
    1b32:	6f e7       	ldi	r22, 0x7F	; 127
    1b34:	7c e9       	ldi	r23, 0x9C	; 156
    1b36:	80 e0       	ldi	r24, 0x00	; 0
    1b38:	0e 94 6b 04 	call	0x8d6	; 0x8d6 <p18fx5xx_writeComm>
				p18fx5xx_writeComm(P18FX5XX_CORE_INSTR, (0x0E00 | (c_add & 0xFF)));
    1b3c:	be 01       	movw	r22, r28
    1b3e:	77 27       	eor	r23, r23
    1b40:	7e 60       	ori	r23, 0x0E	; 14
    1b42:	80 e0       	ldi	r24, 0x00	; 0
    1b44:	0e 94 6b 04 	call	0x8d6	; 0x8d6 <p18fx5xx_writeComm>
				p18fx5xx_writeComm(P18FX5XX_CORE_INSTR, 0x6E74);
    1b48:	64 e7       	ldi	r22, 0x74	; 116
    1b4a:	7e e6       	ldi	r23, 0x6E	; 110
    1b4c:	80 e0       	ldi	r24, 0x00	; 0
    1b4e:	0e 94 6b 04 	call	0x8d6	; 0x8d6 <p18fx5xx_writeComm>
				p18fx5xx_writeComm(P18FX5XX_CORE_INSTR, (0x0E00 | (c_add >> 8)));
    1b52:	6d 2f       	mov	r22, r29
    1b54:	77 27       	eor	r23, r23
    1b56:	7e 60       	ori	r23, 0x0E	; 14
    1b58:	80 e0       	ldi	r24, 0x00	; 0
    1b5a:	0e 94 6b 04 	call	0x8d6	; 0x8d6 <p18fx5xx_writeComm>
				p18fx5xx_writeComm(P18FX5XX_CORE_INSTR, 0x6E75);
    1b5e:	65 e7       	ldi	r22, 0x75	; 117
    1b60:	7e e6       	ldi	r23, 0x6E	; 110
    1b62:	80 e0       	ldi	r24, 0x00	; 0
    1b64:	0e 94 6b 04 	call	0x8d6	; 0x8d6 <p18fx5xx_writeComm>
				p18fx5xx_writeComm(P18FX5XX_CORE_INSTR, 0x807F);
    1b68:	6f e7       	ldi	r22, 0x7F	; 127
    1b6a:	70 e8       	ldi	r23, 0x80	; 128
    1b6c:	80 e0       	ldi	r24, 0x00	; 0
    1b6e:	0e 94 6b 04 	call	0x8d6	; 0x8d6 <p18fx5xx_writeComm>
				p18fx5xx_writeComm(P18FX5XX_CORE_INSTR, 0x5073);
    1b72:	63 e7       	ldi	r22, 0x73	; 115
    1b74:	70 e5       	ldi	r23, 0x50	; 80
    1b76:	80 e0       	ldi	r24, 0x00	; 0
    1b78:	0e 94 6b 04 	call	0x8d6	; 0x8d6 <p18fx5xx_writeComm>
				p18fx5xx_writeComm(P18FX5XX_CORE_INSTR, 0x6EF5);
    1b7c:	65 ef       	ldi	r22, 0xF5	; 245
    1b7e:	7e e6       	ldi	r23, 0x6E	; 110
    1b80:	80 e0       	ldi	r24, 0x00	; 0
    1b82:	0e 94 6b 04 	call	0x8d6	; 0x8d6 <p18fx5xx_writeComm>
				p18fx5xx_writeComm(P18FX5XX_CORE_INSTR, 0x0000);
    1b86:	60 e0       	ldi	r22, 0x00	; 0
    1b88:	70 e0       	ldi	r23, 0x00	; 0
    1b8a:	80 e0       	ldi	r24, 0x00	; 0
    1b8c:	0e 94 6b 04 	call	0x8d6	; 0x8d6 <p18fx5xx_writeComm>
				main_buff[k + 3] = p18fx5xx_readComm(P18FX5XX_SHIFT_TABL, 0x00);
    1b90:	60 e0       	ldi	r22, 0x00	; 0
    1b92:	82 e0       	ldi	r24, 0x02	; 2
    1b94:	0e 94 7a 05 	call	0xaf4	; 0xaf4 <p18fx5xx_readComm>
    1b98:	f8 01       	movw	r30, r16
    1b9a:	e6 59       	subi	r30, 0x96	; 150
    1b9c:	fe 4f       	sbci	r31, 0xFE	; 254
    1b9e:	83 83       	std	Z+3, r24	; 0x03
				p18fx5xx_readComm(P18FX5XX_SHIFT_TABL, 0x00);
    1ba0:	60 e0       	ldi	r22, 0x00	; 0
    1ba2:	82 e0       	ldi	r24, 0x02	; 2
    1ba4:	0e 94 7a 05 	call	0xaf4	; 0xaf4 <p18fx5xx_readComm>
				reset();
    1ba8:	0e 94 45 06 	call	0xc8a	; 0xc8a <reset>

	if(ee_size > 0)
	{
		for(int i = 0; i < ee_size; i+= 64)
		{
			for(int k = 0; k < 64; k++)
    1bac:	0f 5f       	subi	r16, 0xFF	; 255
    1bae:	1f 4f       	sbci	r17, 0xFF	; 255
    1bb0:	00 34       	cpi	r16, 0x40	; 64
    1bb2:	11 05       	cpc	r17, r1
    1bb4:	09 f0       	breq	.+2      	; 0x1bb8 <p18fxxk80_read+0x184>
    1bb6:	b3 cf       	rjmp	.-154    	; 0x1b1e <p18fxxk80_read+0xea>
				p18fx5xx_writeComm(P18FX5XX_CORE_INSTR, 0x0000);
				main_buff[k + 3] = p18fx5xx_readComm(P18FX5XX_SHIFT_TABL, 0x00);
				p18fx5xx_readComm(P18FX5XX_SHIFT_TABL, 0x00);
				reset();
			}
			main_buff[0] = 0xFE;
    1bb8:	d0 92 6a 01 	sts	0x016A, r13	; 0x80016a <main_buff>
			main_buff[1] = 0x40;
    1bbc:	c0 92 6b 01 	sts	0x016B, r12	; 0x80016b <main_buff+0x1>
			main_buff[2] = 0xA9;
    1bc0:	b0 92 6c 01 	sts	0x016C, r11	; 0x80016c <main_buff+0x2>
			send_frame(main_buff, 67);
    1bc4:	63 e4       	ldi	r22, 0x43	; 67
    1bc6:	8a e6       	ldi	r24, 0x6A	; 106
    1bc8:	91 e0       	ldi	r25, 0x01	; 1
    1bca:	0e 94 25 1a 	call	0x344a	; 0x344a <send_frame>

			while(!read_bsy);
    1bce:	80 91 66 01 	lds	r24, 0x0166	; 0x800166 <__data_end>
    1bd2:	88 23       	and	r24, r24
    1bd4:	e1 f3       	breq	.-8      	; 0x1bce <p18fxxk80_read+0x19a>
			read_bsy = 0;
    1bd6:	10 92 66 01 	sts	0x0166, r1	; 0x800166 <__data_end>

	_delay_ms(10);

	if(ee_size > 0)
	{
		for(int i = 0; i < ee_size; i+= 64)
    1bda:	90 e4       	ldi	r25, 0x40	; 64
    1bdc:	e9 0e       	add	r14, r25
    1bde:	f1 1c       	adc	r15, r1
    1be0:	94 cf       	rjmp	.-216    	; 0x1b0a <p18fxxk80_read+0xd6>

			while(!read_bsy);
			read_bsy = 0;
		}
	}
}
    1be2:	df 91       	pop	r29
    1be4:	cf 91       	pop	r28
    1be6:	1f 91       	pop	r17
    1be8:	0f 91       	pop	r16
    1bea:	ff 90       	pop	r15
    1bec:	ef 90       	pop	r14
    1bee:	df 90       	pop	r13
    1bf0:	cf 90       	pop	r12
    1bf2:	bf 90       	pop	r11
    1bf4:	af 90       	pop	r10
    1bf6:	9f 90       	pop	r9
    1bf8:	08 95       	ret

00001bfa <p16f7x_erase>:
#endif

void p16f7x_erase(void)
{
	progMode();
    1bfa:	0e 94 60 05 	call	0xac0	; 0xac0 <progMode>

	if(device == 0x0E) p16f183xx_setAdd(0x1D, 0x00, 0xE8, 0x00);
    1bfe:	80 91 17 03 	lds	r24, 0x0317	; 0x800317 <device>
    1c02:	8e 30       	cpi	r24, 0x0E	; 14
    1c04:	31 f4       	brne	.+12     	; 0x1c12 <p16f7x_erase+0x18>
    1c06:	20 e0       	ldi	r18, 0x00	; 0
    1c08:	48 ee       	ldi	r20, 0xE8	; 232
    1c0a:	60 e0       	ldi	r22, 0x00	; 0
    1c0c:	8d e1       	ldi	r24, 0x1D	; 29
    1c0e:	0e 94 31 02 	call	0x462	; 0x462 <p16f183xx_setAdd>

	p16f7x_writeComm(P16F7X_ERASE, 0x0000, 1);
    1c12:	41 e0       	ldi	r20, 0x01	; 1
    1c14:	60 e0       	ldi	r22, 0x00	; 0
    1c16:	70 e0       	ldi	r23, 0x00	; 0
    1c18:	89 e0       	ldi	r24, 0x09	; 9
    1c1a:	0e 94 c3 01 	call	0x386	; 0x386 <p16f7x_writeComm>
    1c1e:	2f ef       	ldi	r18, 0xFF	; 255
    1c20:	83 ec       	ldi	r24, 0xC3	; 195
    1c22:	99 e0       	ldi	r25, 0x09	; 9
    1c24:	21 50       	subi	r18, 0x01	; 1
    1c26:	80 40       	sbci	r24, 0x00	; 0
    1c28:	90 40       	sbci	r25, 0x00	; 0
    1c2a:	e1 f7       	brne	.-8      	; 0x1c24 <p16f7x_erase+0x2a>
    1c2c:	00 c0       	rjmp	.+0      	; 0x1c2e <p16f7x_erase+0x34>
    1c2e:	00 00       	nop
	_delay_ms(200);
	reset();
    1c30:	0c 94 45 06 	jmp	0xc8a	; 0xc8a <reset>

00001c34 <p16f184xx_erase>:
}

void p16f184xx_erase(void)
{
    1c34:	0f 93       	push	r16
	progMode();
    1c36:	0e 94 60 05 	call	0xac0	; 0xac0 <progMode>
	if(device == 0x12) p16f184xx_writeComm(0x80, 0, 0x00, 0x80, 0x00);
    1c3a:	80 91 17 03 	lds	r24, 0x0317	; 0x800317 <device>
    1c3e:	82 31       	cpi	r24, 0x12	; 18
    1c40:	39 f4       	brne	.+14     	; 0x1c50 <p16f184xx_erase+0x1c>
    1c42:	00 e0       	ldi	r16, 0x00	; 0
    1c44:	20 e8       	ldi	r18, 0x80	; 128
    1c46:	40 e0       	ldi	r20, 0x00	; 0
    1c48:	60 e0       	ldi	r22, 0x00	; 0
    1c4a:	80 e8       	ldi	r24, 0x80	; 128
    1c4c:	0e 94 d4 02 	call	0x5a8	; 0x5a8 <p16f184xx_writeComm>
	if(device == 0x13) p16f184xx_writeComm(0x80, 0, 0x20, 0x00, 0x00);
    1c50:	80 91 17 03 	lds	r24, 0x0317	; 0x800317 <device>
    1c54:	83 31       	cpi	r24, 0x13	; 19
    1c56:	39 f4       	brne	.+14     	; 0x1c66 <p16f184xx_erase+0x32>
    1c58:	00 e0       	ldi	r16, 0x00	; 0
    1c5a:	20 e0       	ldi	r18, 0x00	; 0
    1c5c:	40 e2       	ldi	r20, 0x20	; 32
    1c5e:	60 e0       	ldi	r22, 0x00	; 0
    1c60:	80 e8       	ldi	r24, 0x80	; 128
    1c62:	0e 94 d4 02 	call	0x5a8	; 0x5a8 <p16f184xx_writeComm>
	p16f184xx_writeComm(0x18, 1, 0x00, 0x00, 0x00);
    1c66:	00 e0       	ldi	r16, 0x00	; 0
    1c68:	20 e0       	ldi	r18, 0x00	; 0
    1c6a:	40 e0       	ldi	r20, 0x00	; 0
    1c6c:	61 e0       	ldi	r22, 0x01	; 1
    1c6e:	88 e1       	ldi	r24, 0x18	; 24
    1c70:	0e 94 d4 02 	call	0x5a8	; 0x5a8 <p16f184xx_writeComm>
    1c74:	2f ef       	ldi	r18, 0xFF	; 255
    1c76:	80 e7       	ldi	r24, 0x70	; 112
    1c78:	92 e0       	ldi	r25, 0x02	; 2
    1c7a:	21 50       	subi	r18, 0x01	; 1
    1c7c:	80 40       	sbci	r24, 0x00	; 0
    1c7e:	90 40       	sbci	r25, 0x00	; 0
    1c80:	e1 f7       	brne	.-8      	; 0x1c7a <p16f184xx_erase+0x46>
    1c82:	00 c0       	rjmp	.+0      	; 0x1c84 <p16f184xx_erase+0x50>
    1c84:	00 00       	nop
	_delay_ms(50);
	reset();
    1c86:	0e 94 45 06 	call	0xc8a	; 0xc8a <reset>

	if(device == 0x13)
    1c8a:	80 91 17 03 	lds	r24, 0x0317	; 0x800317 <device>
    1c8e:	83 31       	cpi	r24, 0x13	; 19
    1c90:	e1 f4       	brne	.+56     	; 0x1cca <p16f184xx_erase+0x96>
	{
		progMode();
    1c92:	0e 94 60 05 	call	0xac0	; 0xac0 <progMode>
		p16f184xx_writeComm(0x80, 0, 0x31, 0x00, 0x01);
    1c96:	01 e0       	ldi	r16, 0x01	; 1
    1c98:	20 e0       	ldi	r18, 0x00	; 0
    1c9a:	41 e3       	ldi	r20, 0x31	; 49
    1c9c:	60 e0       	ldi	r22, 0x00	; 0
    1c9e:	80 e8       	ldi	r24, 0x80	; 128
    1ca0:	0e 94 d4 02 	call	0x5a8	; 0x5a8 <p16f184xx_writeComm>
		p16f184xx_writeComm(0x18, 1, 0x00, 0x00, 0x00);
    1ca4:	00 e0       	ldi	r16, 0x00	; 0
    1ca6:	20 e0       	ldi	r18, 0x00	; 0
    1ca8:	40 e0       	ldi	r20, 0x00	; 0
    1caa:	61 e0       	ldi	r22, 0x01	; 1
    1cac:	88 e1       	ldi	r24, 0x18	; 24
    1cae:	0e 94 d4 02 	call	0x5a8	; 0x5a8 <p16f184xx_writeComm>
    1cb2:	2f ef       	ldi	r18, 0xFF	; 255
    1cb4:	80 e7       	ldi	r24, 0x70	; 112
    1cb6:	92 e0       	ldi	r25, 0x02	; 2
    1cb8:	21 50       	subi	r18, 0x01	; 1
    1cba:	80 40       	sbci	r24, 0x00	; 0
    1cbc:	90 40       	sbci	r25, 0x00	; 0
    1cbe:	e1 f7       	brne	.-8      	; 0x1cb8 <p16f184xx_erase+0x84>
    1cc0:	00 c0       	rjmp	.+0      	; 0x1cc2 <p16f184xx_erase+0x8e>
    1cc2:	00 00       	nop
		_delay_ms(50);
		reset();
	}
}
    1cc4:	0f 91       	pop	r16
	{
		progMode();
		p16f184xx_writeComm(0x80, 0, 0x31, 0x00, 0x01);
		p16f184xx_writeComm(0x18, 1, 0x00, 0x00, 0x00);
		_delay_ms(50);
		reset();
    1cc6:	0c 94 45 06 	jmp	0xc8a	; 0xc8a <reset>
	}
}
    1cca:	0f 91       	pop	r16
    1ccc:	08 95       	ret

00001cce <p16f5x_erase>:

#ifdef BASELINE
void p16f5x_erase(void)
{
    1cce:	0f 93       	push	r16
    1cd0:	1f 93       	push	r17
    1cd2:	cf 93       	push	r28
    1cd4:	df 93       	push	r29
    1cd6:	e0 91 17 03 	lds	r30, 0x0317	; 0x800317 <device>
    1cda:	ea 50       	subi	r30, 0x0A	; 10
    1cdc:	e3 30       	cpi	r30, 0x03	; 3
    1cde:	40 f4       	brcc	.+16     	; 0x1cf0 <p16f5x_erase+0x22>
    1ce0:	f0 e0       	ldi	r31, 0x00	; 0
    1ce2:	ee 0f       	add	r30, r30
    1ce4:	ff 1f       	adc	r31, r31
    1ce6:	e0 5a       	subi	r30, 0xA0	; 160
    1ce8:	fe 4f       	sbci	r31, 0xFE	; 254
    1cea:	c0 81       	ld	r28, Z
    1cec:	d1 81       	ldd	r29, Z+1	; 0x01
    1cee:	02 c0       	rjmp	.+4      	; 0x1cf4 <p16f5x_erase+0x26>
	uint16_t osc_start = 0;

	switch(device)
    1cf0:	c0 e0       	ldi	r28, 0x00	; 0
    1cf2:	d0 e0       	ldi	r29, 0x00	; 0
		case 0x0A: {osc_start = 0x400; break;}
		case 0x0B: {osc_start = 0x100; break;}
		case 0x0C: {osc_start = 0x200; break;}
	}

	progMode();
    1cf4:	0e 94 60 05 	call	0xac0	; 0xac0 <progMode>

	if(device == 0x0A || device == 0x0B || device == 0x0C)
    1cf8:	80 91 17 03 	lds	r24, 0x0317	; 0x800317 <device>
    1cfc:	8a 50       	subi	r24, 0x0A	; 10
    1cfe:	83 30       	cpi	r24, 0x03	; 3
    1d00:	38 f5       	brcc	.+78     	; 0x1d50 <p16f5x_erase+0x82>
    1d02:	00 e0       	ldi	r16, 0x00	; 0
    1d04:	10 e0       	ldi	r17, 0x00	; 0
	{
		for(int a = 0; a < osc_start; a++) p16f7x_writeComm(P16F7X_INC_ADD, 0x0000, 1);
    1d06:	0c 17       	cp	r16, r28
    1d08:	1d 07       	cpc	r17, r29
    1d0a:	49 f0       	breq	.+18     	; 0x1d1e <p16f5x_erase+0x50>
    1d0c:	41 e0       	ldi	r20, 0x01	; 1
    1d0e:	60 e0       	ldi	r22, 0x00	; 0
    1d10:	70 e0       	ldi	r23, 0x00	; 0
    1d12:	86 e0       	ldi	r24, 0x06	; 6
    1d14:	0e 94 c3 01 	call	0x386	; 0x386 <p16f7x_writeComm>
    1d18:	0f 5f       	subi	r16, 0xFF	; 255
    1d1a:	1f 4f       	sbci	r17, 0xFF	; 255
    1d1c:	f4 cf       	rjmp	.-24     	; 0x1d06 <p16f5x_erase+0x38>
		oscal2 = p16f7x_readComm(P16F7X_READ_DATA);
    1d1e:	84 e0       	ldi	r24, 0x04	; 4
    1d20:	0e 94 f1 03 	call	0x7e2	; 0x7e2 <p16f7x_readComm>
    1d24:	90 93 01 03 	sts	0x0301, r25	; 0x800301 <oscal2+0x1>
    1d28:	80 93 00 03 	sts	0x0300, r24	; 0x800300 <oscal2>
    1d2c:	05 e0       	ldi	r16, 0x05	; 5
    1d2e:	10 e0       	ldi	r17, 0x00	; 0
		for(int a = 0; a < 5; a++) p16f7x_writeComm(P16F7X_INC_ADD, 0x0000, 1);
    1d30:	41 e0       	ldi	r20, 0x01	; 1
    1d32:	60 e0       	ldi	r22, 0x00	; 0
    1d34:	70 e0       	ldi	r23, 0x00	; 0
    1d36:	86 e0       	ldi	r24, 0x06	; 6
    1d38:	0e 94 c3 01 	call	0x386	; 0x386 <p16f7x_writeComm>
    1d3c:	01 50       	subi	r16, 0x01	; 1
    1d3e:	11 09       	sbc	r17, r1
    1d40:	b9 f7       	brne	.-18     	; 0x1d30 <p16f5x_erase+0x62>
		oscal3 = p16f7x_readComm(P16F7X_READ_DATA);
    1d42:	84 e0       	ldi	r24, 0x04	; 4
    1d44:	0e 94 f1 03 	call	0x7e2	; 0x7e2 <p16f7x_readComm>
    1d48:	90 93 05 03 	sts	0x0305, r25	; 0x800305 <oscal3+0x1>
    1d4c:	80 93 04 03 	sts	0x0304, r24	; 0x800304 <oscal3>
	}
	reset();
    1d50:	0e 94 45 06 	call	0xc8a	; 0xc8a <reset>

	//ERASE
	progMode();
    1d54:	0e 94 60 05 	call	0xac0	; 0xac0 <progMode>
	p16f7x_writeComm(P16F7X_INC_ADD, 0x0000, 1);
    1d58:	41 e0       	ldi	r20, 0x01	; 1
    1d5a:	60 e0       	ldi	r22, 0x00	; 0
    1d5c:	70 e0       	ldi	r23, 0x00	; 0
    1d5e:	86 e0       	ldi	r24, 0x06	; 6
    1d60:	0e 94 c3 01 	call	0x386	; 0x386 <p16f7x_writeComm>
	p16f7x_writeComm(P16F7X_ERASE, 0x0000, 1);
    1d64:	41 e0       	ldi	r20, 0x01	; 1
    1d66:	60 e0       	ldi	r22, 0x00	; 0
    1d68:	70 e0       	ldi	r23, 0x00	; 0
    1d6a:	89 e0       	ldi	r24, 0x09	; 9
    1d6c:	0e 94 c3 01 	call	0x386	; 0x386 <p16f7x_writeComm>
    1d70:	2f ef       	ldi	r18, 0xFF	; 255
    1d72:	83 ec       	ldi	r24, 0xC3	; 195
    1d74:	99 e0       	ldi	r25, 0x09	; 9
    1d76:	21 50       	subi	r18, 0x01	; 1
    1d78:	80 40       	sbci	r24, 0x00	; 0
    1d7a:	90 40       	sbci	r25, 0x00	; 0
    1d7c:	e1 f7       	brne	.-8      	; 0x1d76 <p16f5x_erase+0xa8>
    1d7e:	00 c0       	rjmp	.+0      	; 0x1d80 <p16f5x_erase+0xb2>
    1d80:	00 00       	nop
	_delay_ms(200);
	reset();
    1d82:	0e 94 45 06 	call	0xc8a	; 0xc8a <reset>
    1d86:	8f e1       	ldi	r24, 0x1F	; 31
    1d88:	9e e4       	ldi	r25, 0x4E	; 78
    1d8a:	01 97       	sbiw	r24, 0x01	; 1
    1d8c:	f1 f7       	brne	.-4      	; 0x1d8a <p16f5x_erase+0xbc>
    1d8e:	00 c0       	rjmp	.+0      	; 0x1d90 <p16f5x_erase+0xc2>
    1d90:	00 00       	nop

	_delay_ms(5);

	//Restore OSCAL
	if(device == 0x0A || device == 0x0B || device == 0x0C)
    1d92:	80 91 17 03 	lds	r24, 0x0317	; 0x800317 <device>
    1d96:	8a 50       	subi	r24, 0x0A	; 10
    1d98:	83 30       	cpi	r24, 0x03	; 3
    1d9a:	08 f0       	brcs	.+2      	; 0x1d9e <p16f5x_erase+0xd0>
    1d9c:	60 c0       	rjmp	.+192    	; 0x1e5e <p16f5x_erase+0x190>
	{
		progMode();
    1d9e:	0e 94 60 05 	call	0xac0	; 0xac0 <progMode>
		for(int a = 0; a < osc_start; a++) p16f7x_writeComm(P16F7X_INC_ADD, 0x0000, 1);
    1da2:	00 e0       	ldi	r16, 0x00	; 0
    1da4:	10 e0       	ldi	r17, 0x00	; 0
    1da6:	0c 17       	cp	r16, r28
    1da8:	1d 07       	cpc	r17, r29
    1daa:	49 f0       	breq	.+18     	; 0x1dbe <p16f5x_erase+0xf0>
    1dac:	41 e0       	ldi	r20, 0x01	; 1
    1dae:	60 e0       	ldi	r22, 0x00	; 0
    1db0:	70 e0       	ldi	r23, 0x00	; 0
    1db2:	86 e0       	ldi	r24, 0x06	; 6
    1db4:	0e 94 c3 01 	call	0x386	; 0x386 <p16f7x_writeComm>
    1db8:	0f 5f       	subi	r16, 0xFF	; 255
    1dba:	1f 4f       	sbci	r17, 0xFF	; 255
    1dbc:	f4 cf       	rjmp	.-24     	; 0x1da6 <p16f5x_erase+0xd8>
		p16f7x_writeComm(P16F7X_LOAD_DATA, oscal2, 0);
    1dbe:	60 91 00 03 	lds	r22, 0x0300	; 0x800300 <oscal2>
    1dc2:	70 91 01 03 	lds	r23, 0x0301	; 0x800301 <oscal2+0x1>
    1dc6:	40 e0       	ldi	r20, 0x00	; 0
    1dc8:	82 e0       	ldi	r24, 0x02	; 2
    1dca:	0e 94 c3 01 	call	0x386	; 0x386 <p16f7x_writeComm>
		p16f7x_writeComm(P16F7X_BEGIN_PROG, 0x0000, 1);
    1dce:	41 e0       	ldi	r20, 0x01	; 1
    1dd0:	60 e0       	ldi	r22, 0x00	; 0
    1dd2:	70 e0       	ldi	r23, 0x00	; 0
    1dd4:	88 e0       	ldi	r24, 0x08	; 8
    1dd6:	0e 94 c3 01 	call	0x386	; 0x386 <p16f7x_writeComm>
    1dda:	8f e1       	ldi	r24, 0x1F	; 31
    1ddc:	9e e4       	ldi	r25, 0x4E	; 78
    1dde:	01 97       	sbiw	r24, 0x01	; 1
    1de0:	f1 f7       	brne	.-4      	; 0x1dde <p16f5x_erase+0x110>
    1de2:	00 c0       	rjmp	.+0      	; 0x1de4 <p16f5x_erase+0x116>
    1de4:	00 00       	nop
		_delay_ms(5);
		p16f7x_writeComm(P16F7X_END_PROG, 0x0000, 1);
    1de6:	41 e0       	ldi	r20, 0x01	; 1
    1de8:	60 e0       	ldi	r22, 0x00	; 0
    1dea:	70 e0       	ldi	r23, 0x00	; 0
    1dec:	8e e0       	ldi	r24, 0x0E	; 14
    1dee:	0e 94 c3 01 	call	0x386	; 0x386 <p16f7x_writeComm>
	#else
		//round up by default
		__ticks_dc = (uint32_t)(ceil(fabs(__tmp)));
	#endif

	__builtin_avr_delay_cycles(__ticks_dc);
    1df2:	8f e8       	ldi	r24, 0x8F	; 143
    1df4:	91 e0       	ldi	r25, 0x01	; 1
    1df6:	01 97       	sbiw	r24, 0x01	; 1
    1df8:	f1 f7       	brne	.-4      	; 0x1df6 <p16f5x_erase+0x128>
    1dfa:	00 c0       	rjmp	.+0      	; 0x1dfc <p16f5x_erase+0x12e>
    1dfc:	00 00       	nop
    1dfe:	c5 e0       	ldi	r28, 0x05	; 5
    1e00:	d0 e0       	ldi	r29, 0x00	; 0
		_delay_us(100);
		for(int a = 0; a < 5; a++) p16f7x_writeComm(P16F7X_INC_ADD, 0x0000, 1);
    1e02:	41 e0       	ldi	r20, 0x01	; 1
    1e04:	60 e0       	ldi	r22, 0x00	; 0
    1e06:	70 e0       	ldi	r23, 0x00	; 0
    1e08:	86 e0       	ldi	r24, 0x06	; 6
    1e0a:	0e 94 c3 01 	call	0x386	; 0x386 <p16f7x_writeComm>
    1e0e:	21 97       	sbiw	r28, 0x01	; 1
    1e10:	c1 f7       	brne	.-16     	; 0x1e02 <p16f5x_erase+0x134>
		p16f7x_writeComm(P16F7X_LOAD_DATA, oscal3, 0);
    1e12:	60 91 04 03 	lds	r22, 0x0304	; 0x800304 <oscal3>
    1e16:	70 91 05 03 	lds	r23, 0x0305	; 0x800305 <oscal3+0x1>
    1e1a:	40 e0       	ldi	r20, 0x00	; 0
    1e1c:	82 e0       	ldi	r24, 0x02	; 2
    1e1e:	0e 94 c3 01 	call	0x386	; 0x386 <p16f7x_writeComm>
		p16f7x_writeComm(P16F7X_BEGIN_PROG, 0x0000, 1);
    1e22:	41 e0       	ldi	r20, 0x01	; 1
    1e24:	60 e0       	ldi	r22, 0x00	; 0
    1e26:	70 e0       	ldi	r23, 0x00	; 0
    1e28:	88 e0       	ldi	r24, 0x08	; 8
    1e2a:	0e 94 c3 01 	call	0x386	; 0x386 <p16f7x_writeComm>
	#else
		//round up by default
		__ticks_dc = (uint32_t)(ceil(fabs(__tmp)));
	#endif

	__builtin_avr_delay_cycles(__ticks_dc);
    1e2e:	8f e1       	ldi	r24, 0x1F	; 31
    1e30:	9e e4       	ldi	r25, 0x4E	; 78
    1e32:	01 97       	sbiw	r24, 0x01	; 1
    1e34:	f1 f7       	brne	.-4      	; 0x1e32 <p16f5x_erase+0x164>
    1e36:	00 c0       	rjmp	.+0      	; 0x1e38 <p16f5x_erase+0x16a>
    1e38:	00 00       	nop
		_delay_ms(5);
		p16f7x_writeComm(P16F7X_END_PROG, 0x0000, 1);
    1e3a:	41 e0       	ldi	r20, 0x01	; 1
    1e3c:	60 e0       	ldi	r22, 0x00	; 0
    1e3e:	70 e0       	ldi	r23, 0x00	; 0
    1e40:	8e e0       	ldi	r24, 0x0E	; 14
    1e42:	0e 94 c3 01 	call	0x386	; 0x386 <p16f7x_writeComm>
	#else
		//round up by default
		__ticks_dc = (uint32_t)(ceil(fabs(__tmp)));
	#endif

	__builtin_avr_delay_cycles(__ticks_dc);
    1e46:	8f e8       	ldi	r24, 0x8F	; 143
    1e48:	91 e0       	ldi	r25, 0x01	; 1
    1e4a:	01 97       	sbiw	r24, 0x01	; 1
    1e4c:	f1 f7       	brne	.-4      	; 0x1e4a <p16f5x_erase+0x17c>
    1e4e:	00 c0       	rjmp	.+0      	; 0x1e50 <p16f5x_erase+0x182>
    1e50:	00 00       	nop
		_delay_us(100);
		reset();
	}
}
    1e52:	df 91       	pop	r29
    1e54:	cf 91       	pop	r28
    1e56:	1f 91       	pop	r17
    1e58:	0f 91       	pop	r16
		p16f7x_writeComm(P16F7X_LOAD_DATA, oscal3, 0);
		p16f7x_writeComm(P16F7X_BEGIN_PROG, 0x0000, 1);
		_delay_ms(5);
		p16f7x_writeComm(P16F7X_END_PROG, 0x0000, 1);
		_delay_us(100);
		reset();
    1e5a:	0c 94 45 06 	jmp	0xc8a	; 0xc8a <reset>
	}
}
    1e5e:	df 91       	pop	r29
    1e60:	cf 91       	pop	r28
    1e62:	1f 91       	pop	r17
    1e64:	0f 91       	pop	r16
    1e66:	08 95       	ret

00001e68 <p16f628a_erase>:
#endif

void p16f628a_erase(void)
{
	progMode();
    1e68:	0e 94 60 05 	call	0xac0	; 0xac0 <progMode>
	p16f7x_writeComm(P16F7X_LOAD_CONF, 0x0000, 0);
    1e6c:	40 e0       	ldi	r20, 0x00	; 0
    1e6e:	60 e0       	ldi	r22, 0x00	; 0
    1e70:	70 e0       	ldi	r23, 0x00	; 0
    1e72:	80 e0       	ldi	r24, 0x00	; 0
    1e74:	0e 94 c3 01 	call	0x386	; 0x386 <p16f7x_writeComm>
	#else
		//round up by default
		__ticks_dc = (uint32_t)(ceil(fabs(__tmp)));
	#endif

	__builtin_avr_delay_cycles(__ticks_dc);
    1e78:	2f ef       	ldi	r18, 0xFF	; 255
    1e7a:	80 e7       	ldi	r24, 0x70	; 112
    1e7c:	92 e0       	ldi	r25, 0x02	; 2
    1e7e:	21 50       	subi	r18, 0x01	; 1
    1e80:	80 40       	sbci	r24, 0x00	; 0
    1e82:	90 40       	sbci	r25, 0x00	; 0
    1e84:	e1 f7       	brne	.-8      	; 0x1e7e <p16f628a_erase+0x16>
    1e86:	00 c0       	rjmp	.+0      	; 0x1e88 <p16f628a_erase+0x20>
    1e88:	00 00       	nop
	_delay_ms(50);
	p16f7x_writeComm(P16F628A_LOAD_CODE, 0x3FFF, 0);
    1e8a:	40 e0       	ldi	r20, 0x00	; 0
    1e8c:	6f ef       	ldi	r22, 0xFF	; 255
    1e8e:	7f e3       	ldi	r23, 0x3F	; 63
    1e90:	82 e0       	ldi	r24, 0x02	; 2
    1e92:	0e 94 c3 01 	call	0x386	; 0x386 <p16f7x_writeComm>
    1e96:	2f ef       	ldi	r18, 0xFF	; 255
    1e98:	80 e7       	ldi	r24, 0x70	; 112
    1e9a:	92 e0       	ldi	r25, 0x02	; 2
    1e9c:	21 50       	subi	r18, 0x01	; 1
    1e9e:	80 40       	sbci	r24, 0x00	; 0
    1ea0:	90 40       	sbci	r25, 0x00	; 0
    1ea2:	e1 f7       	brne	.-8      	; 0x1e9c <p16f628a_erase+0x34>
    1ea4:	00 c0       	rjmp	.+0      	; 0x1ea6 <p16f628a_erase+0x3e>
    1ea6:	00 00       	nop
	_delay_ms(50);
	p16f7x_writeComm(P16F628A_ERASE_CODE, 0x0000, 1);
    1ea8:	41 e0       	ldi	r20, 0x01	; 1
    1eaa:	60 e0       	ldi	r22, 0x00	; 0
    1eac:	70 e0       	ldi	r23, 0x00	; 0
    1eae:	89 e0       	ldi	r24, 0x09	; 9
    1eb0:	0e 94 c3 01 	call	0x386	; 0x386 <p16f7x_writeComm>
    1eb4:	2f ef       	ldi	r18, 0xFF	; 255
    1eb6:	83 ec       	ldi	r24, 0xC3	; 195
    1eb8:	99 e0       	ldi	r25, 0x09	; 9
    1eba:	21 50       	subi	r18, 0x01	; 1
    1ebc:	80 40       	sbci	r24, 0x00	; 0
    1ebe:	90 40       	sbci	r25, 0x00	; 0
    1ec0:	e1 f7       	brne	.-8      	; 0x1eba <p16f628a_erase+0x52>
    1ec2:	00 c0       	rjmp	.+0      	; 0x1ec4 <p16f628a_erase+0x5c>
    1ec4:	00 00       	nop
	_delay_ms(200);
	reset();
    1ec6:	0e 94 45 06 	call	0xc8a	; 0xc8a <reset>
    1eca:	2f ef       	ldi	r18, 0xFF	; 255
    1ecc:	83 ec       	ldi	r24, 0xC3	; 195
    1ece:	99 e0       	ldi	r25, 0x09	; 9
    1ed0:	21 50       	subi	r18, 0x01	; 1
    1ed2:	80 40       	sbci	r24, 0x00	; 0
    1ed4:	90 40       	sbci	r25, 0x00	; 0
    1ed6:	e1 f7       	brne	.-8      	; 0x1ed0 <p16f628a_erase+0x68>
    1ed8:	00 c0       	rjmp	.+0      	; 0x1eda <p16f628a_erase+0x72>
    1eda:	00 00       	nop
	_delay_ms(200);

	progMode();
    1edc:	0e 94 60 05 	call	0xac0	; 0xac0 <progMode>
    1ee0:	2f ef       	ldi	r18, 0xFF	; 255
    1ee2:	80 e7       	ldi	r24, 0x70	; 112
    1ee4:	92 e0       	ldi	r25, 0x02	; 2
    1ee6:	21 50       	subi	r18, 0x01	; 1
    1ee8:	80 40       	sbci	r24, 0x00	; 0
    1eea:	90 40       	sbci	r25, 0x00	; 0
    1eec:	e1 f7       	brne	.-8      	; 0x1ee6 <p16f628a_erase+0x7e>
    1eee:	00 c0       	rjmp	.+0      	; 0x1ef0 <p16f628a_erase+0x88>
    1ef0:	00 00       	nop
	_delay_ms(50);
	p16f7x_writeComm(P16F628A_ERASE_DATA, 0x0000, 1);
    1ef2:	41 e0       	ldi	r20, 0x01	; 1
    1ef4:	60 e0       	ldi	r22, 0x00	; 0
    1ef6:	70 e0       	ldi	r23, 0x00	; 0
    1ef8:	8b e0       	ldi	r24, 0x0B	; 11
    1efa:	0e 94 c3 01 	call	0x386	; 0x386 <p16f7x_writeComm>
    1efe:	2f ef       	ldi	r18, 0xFF	; 255
    1f00:	83 ec       	ldi	r24, 0xC3	; 195
    1f02:	99 e0       	ldi	r25, 0x09	; 9
    1f04:	21 50       	subi	r18, 0x01	; 1
    1f06:	80 40       	sbci	r24, 0x00	; 0
    1f08:	90 40       	sbci	r25, 0x00	; 0
    1f0a:	e1 f7       	brne	.-8      	; 0x1f04 <p16f628a_erase+0x9c>
    1f0c:	00 c0       	rjmp	.+0      	; 0x1f0e <p16f628a_erase+0xa6>
    1f0e:	00 00       	nop
	_delay_ms(200);
	reset();
    1f10:	0c 94 45 06 	jmp	0xc8a	; 0xc8a <reset>

00001f14 <p16f81x_erase>:
}

void p16f81x_erase(void)
{
	progMode();
    1f14:	0e 94 60 05 	call	0xac0	; 0xac0 <progMode>
	p16f7x_writeComm(P16F7X_LOAD_CONF, 0x0000, 0);
    1f18:	40 e0       	ldi	r20, 0x00	; 0
    1f1a:	60 e0       	ldi	r22, 0x00	; 0
    1f1c:	70 e0       	ldi	r23, 0x00	; 0
    1f1e:	80 e0       	ldi	r24, 0x00	; 0
    1f20:	0e 94 c3 01 	call	0x386	; 0x386 <p16f7x_writeComm>
	p16f7x_writeComm(0x1F, 0x0000, 1);
    1f24:	41 e0       	ldi	r20, 0x01	; 1
    1f26:	60 e0       	ldi	r22, 0x00	; 0
    1f28:	70 e0       	ldi	r23, 0x00	; 0
    1f2a:	8f e1       	ldi	r24, 0x1F	; 31
    1f2c:	0e 94 c3 01 	call	0x386	; 0x386 <p16f7x_writeComm>
    1f30:	2f ef       	ldi	r18, 0xFF	; 255
    1f32:	83 ec       	ldi	r24, 0xC3	; 195
    1f34:	99 e0       	ldi	r25, 0x09	; 9
    1f36:	21 50       	subi	r18, 0x01	; 1
    1f38:	80 40       	sbci	r24, 0x00	; 0
    1f3a:	90 40       	sbci	r25, 0x00	; 0
    1f3c:	e1 f7       	brne	.-8      	; 0x1f36 <p16f81x_erase+0x22>
    1f3e:	00 c0       	rjmp	.+0      	; 0x1f40 <p16f81x_erase+0x2c>
    1f40:	00 00       	nop
	//p16f7x_writeComm(0x08, 0x0000, 1);
	_delay_ms(200);
	reset();
    1f42:	0c 94 45 06 	jmp	0xc8a	; 0xc8a <reset>

00001f46 <p16f84a_erase>:
	p16f676_restoreOsc();
}
#endif

void p16f84a_erase(void)
{
    1f46:	cf 93       	push	r28
    1f48:	df 93       	push	r29
	progMode();
    1f4a:	0e 94 60 05 	call	0xac0	; 0xac0 <progMode>
	p16f7x_writeComm(P16F7X_LOAD_CONF, 0x3FF0, 0);
    1f4e:	40 e0       	ldi	r20, 0x00	; 0
    1f50:	60 ef       	ldi	r22, 0xF0	; 240
    1f52:	7f e3       	ldi	r23, 0x3F	; 63
    1f54:	80 e0       	ldi	r24, 0x00	; 0
    1f56:	0e 94 c3 01 	call	0x386	; 0x386 <p16f7x_writeComm>
    1f5a:	c7 e0       	ldi	r28, 0x07	; 7
    1f5c:	d0 e0       	ldi	r29, 0x00	; 0
	for(int i = 0; i < 7; i++) p16f7x_writeComm(P16F7X_INC_ADD, 0x0000, 1);
    1f5e:	41 e0       	ldi	r20, 0x01	; 1
    1f60:	60 e0       	ldi	r22, 0x00	; 0
    1f62:	70 e0       	ldi	r23, 0x00	; 0
    1f64:	86 e0       	ldi	r24, 0x06	; 6
    1f66:	0e 94 c3 01 	call	0x386	; 0x386 <p16f7x_writeComm>
    1f6a:	21 97       	sbiw	r28, 0x01	; 1
    1f6c:	c1 f7       	brne	.-16     	; 0x1f5e <p16f84a_erase+0x18>
	p16f7x_writeComm(0x01, 0x0000, 1);
    1f6e:	41 e0       	ldi	r20, 0x01	; 1
    1f70:	60 e0       	ldi	r22, 0x00	; 0
    1f72:	70 e0       	ldi	r23, 0x00	; 0
    1f74:	81 e0       	ldi	r24, 0x01	; 1
    1f76:	0e 94 c3 01 	call	0x386	; 0x386 <p16f7x_writeComm>
	p16f7x_writeComm(0x07, 0x0000, 1);
    1f7a:	41 e0       	ldi	r20, 0x01	; 1
    1f7c:	60 e0       	ldi	r22, 0x00	; 0
    1f7e:	70 e0       	ldi	r23, 0x00	; 0
    1f80:	87 e0       	ldi	r24, 0x07	; 7
    1f82:	0e 94 c3 01 	call	0x386	; 0x386 <p16f7x_writeComm>
	p16f7x_writeComm(0x08, 0x0000, 1);
    1f86:	41 e0       	ldi	r20, 0x01	; 1
    1f88:	60 e0       	ldi	r22, 0x00	; 0
    1f8a:	70 e0       	ldi	r23, 0x00	; 0
    1f8c:	88 e0       	ldi	r24, 0x08	; 8
    1f8e:	0e 94 c3 01 	call	0x386	; 0x386 <p16f7x_writeComm>
    1f92:	8f e7       	ldi	r24, 0x7F	; 127
    1f94:	9b eb       	ldi	r25, 0xBB	; 187
    1f96:	01 97       	sbiw	r24, 0x01	; 1
    1f98:	f1 f7       	brne	.-4      	; 0x1f96 <p16f84a_erase+0x50>
    1f9a:	00 c0       	rjmp	.+0      	; 0x1f9c <p16f84a_erase+0x56>
    1f9c:	00 00       	nop
	_delay_ms(12);
	p16f7x_writeComm(0x01, 0x0000, 1);
    1f9e:	41 e0       	ldi	r20, 0x01	; 1
    1fa0:	60 e0       	ldi	r22, 0x00	; 0
    1fa2:	70 e0       	ldi	r23, 0x00	; 0
    1fa4:	81 e0       	ldi	r24, 0x01	; 1
    1fa6:	0e 94 c3 01 	call	0x386	; 0x386 <p16f7x_writeComm>
	p16f7x_writeComm(0x07, 0x0000, 1);
    1faa:	41 e0       	ldi	r20, 0x01	; 1
    1fac:	60 e0       	ldi	r22, 0x00	; 0
    1fae:	70 e0       	ldi	r23, 0x00	; 0
    1fb0:	87 e0       	ldi	r24, 0x07	; 7
    1fb2:	0e 94 c3 01 	call	0x386	; 0x386 <p16f7x_writeComm>
	reset();
    1fb6:	0e 94 45 06 	call	0xc8a	; 0xc8a <reset>
    1fba:	9f ef       	ldi	r25, 0xFF	; 255
    1fbc:	20 e7       	ldi	r18, 0x70	; 112
    1fbe:	82 e0       	ldi	r24, 0x02	; 2
    1fc0:	91 50       	subi	r25, 0x01	; 1
    1fc2:	20 40       	sbci	r18, 0x00	; 0
    1fc4:	80 40       	sbci	r24, 0x00	; 0
    1fc6:	e1 f7       	brne	.-8      	; 0x1fc0 <p16f84a_erase+0x7a>
    1fc8:	00 c0       	rjmp	.+0      	; 0x1fca <p16f84a_erase+0x84>
    1fca:	00 00       	nop
	_delay_ms(50);

	progMode();
    1fcc:	0e 94 60 05 	call	0xac0	; 0xac0 <progMode>
	p16f7x_writeComm(P16F628A_LOAD_CODE, 0x3FFF, 0);
    1fd0:	40 e0       	ldi	r20, 0x00	; 0
    1fd2:	6f ef       	ldi	r22, 0xFF	; 255
    1fd4:	7f e3       	ldi	r23, 0x3F	; 63
    1fd6:	82 e0       	ldi	r24, 0x02	; 2
    1fd8:	0e 94 c3 01 	call	0x386	; 0x386 <p16f7x_writeComm>
	p16f7x_writeComm(P16F628A_ERASE_CODE, 0x0000, 1);
    1fdc:	41 e0       	ldi	r20, 0x01	; 1
    1fde:	60 e0       	ldi	r22, 0x00	; 0
    1fe0:	70 e0       	ldi	r23, 0x00	; 0
    1fe2:	89 e0       	ldi	r24, 0x09	; 9
    1fe4:	0e 94 c3 01 	call	0x386	; 0x386 <p16f7x_writeComm>
	p16f7x_writeComm(0x18, 0x0000, 1);
    1fe8:	41 e0       	ldi	r20, 0x01	; 1
    1fea:	60 e0       	ldi	r22, 0x00	; 0
    1fec:	70 e0       	ldi	r23, 0x00	; 0
    1fee:	88 e1       	ldi	r24, 0x18	; 24
    1ff0:	0e 94 c3 01 	call	0x386	; 0x386 <p16f7x_writeComm>
    1ff4:	9f ef       	ldi	r25, 0xFF	; 255
    1ff6:	20 e7       	ldi	r18, 0x70	; 112
    1ff8:	82 e0       	ldi	r24, 0x02	; 2
    1ffa:	91 50       	subi	r25, 0x01	; 1
    1ffc:	20 40       	sbci	r18, 0x00	; 0
    1ffe:	80 40       	sbci	r24, 0x00	; 0
    2000:	e1 f7       	brne	.-8      	; 0x1ffa <p16f84a_erase+0xb4>
    2002:	00 c0       	rjmp	.+0      	; 0x2004 <p16f84a_erase+0xbe>
    2004:	00 00       	nop
	_delay_ms(50);
	reset();
    2006:	0e 94 45 06 	call	0xc8a	; 0xc8a <reset>

	progMode();
    200a:	0e 94 60 05 	call	0xac0	; 0xac0 <progMode>
	p16f7x_writeComm(P16F628A_LOAD_DATA, 0x3FFF, 0);
    200e:	40 e0       	ldi	r20, 0x00	; 0
    2010:	6f ef       	ldi	r22, 0xFF	; 255
    2012:	7f e3       	ldi	r23, 0x3F	; 63
    2014:	83 e0       	ldi	r24, 0x03	; 3
    2016:	0e 94 c3 01 	call	0x386	; 0x386 <p16f7x_writeComm>
	p16f7x_writeComm(P16F628A_ERASE_DATA, 0x0000, 1);
    201a:	41 e0       	ldi	r20, 0x01	; 1
    201c:	60 e0       	ldi	r22, 0x00	; 0
    201e:	70 e0       	ldi	r23, 0x00	; 0
    2020:	8b e0       	ldi	r24, 0x0B	; 11
    2022:	0e 94 c3 01 	call	0x386	; 0x386 <p16f7x_writeComm>
	p16f7x_writeComm(0x18, 0x0000, 1);
    2026:	41 e0       	ldi	r20, 0x01	; 1
    2028:	60 e0       	ldi	r22, 0x00	; 0
    202a:	70 e0       	ldi	r23, 0x00	; 0
    202c:	88 e1       	ldi	r24, 0x18	; 24
    202e:	0e 94 c3 01 	call	0x386	; 0x386 <p16f7x_writeComm>
    2032:	9f ef       	ldi	r25, 0xFF	; 255
    2034:	20 e7       	ldi	r18, 0x70	; 112
    2036:	82 e0       	ldi	r24, 0x02	; 2
    2038:	91 50       	subi	r25, 0x01	; 1
    203a:	20 40       	sbci	r18, 0x00	; 0
    203c:	80 40       	sbci	r24, 0x00	; 0
    203e:	e1 f7       	brne	.-8      	; 0x2038 <p16f84a_erase+0xf2>
    2040:	00 c0       	rjmp	.+0      	; 0x2042 <p16f84a_erase+0xfc>
    2042:	00 00       	nop
	_delay_ms(50);
	reset();
}
    2044:	df 91       	pop	r29
    2046:	cf 91       	pop	r28
	progMode();
	p16f7x_writeComm(P16F628A_LOAD_DATA, 0x3FFF, 0);
	p16f7x_writeComm(P16F628A_ERASE_DATA, 0x0000, 1);
	p16f7x_writeComm(0x18, 0x0000, 1);
	_delay_ms(50);
	reset();
    2048:	0c 94 45 06 	jmp	0xc8a	; 0xc8a <reset>

0000204c <p16f87x_erase>:
}

void p16f87x_erase(void)
{
    204c:	0f 93       	push	r16
    204e:	1f 93       	push	r17
    2050:	cf 93       	push	r28
    2052:	df 93       	push	r29
	for(int i = 0; i < 3; i++)
    2054:	c0 e0       	ldi	r28, 0x00	; 0
    2056:	d0 e0       	ldi	r29, 0x00	; 0
	{
		progMode();
    2058:	0e 94 60 05 	call	0xac0	; 0xac0 <progMode>
		if(i == 0) p16f7x_writeComm(P16F628A_LOAD_CODE, 0x3FFF, 0);
    205c:	40 e0       	ldi	r20, 0x00	; 0
    205e:	20 97       	sbiw	r28, 0x00	; 0
    2060:	21 f4       	brne	.+8      	; 0x206a <p16f87x_erase+0x1e>
    2062:	6f ef       	ldi	r22, 0xFF	; 255
    2064:	7f e3       	ldi	r23, 0x3F	; 63
    2066:	82 e0       	ldi	r24, 0x02	; 2
    2068:	06 c0       	rjmp	.+12     	; 0x2076 <p16f87x_erase+0x2a>
		else if(i == 1) p16f7x_writeComm(P16F628A_LOAD_DATA, 0x3FFF, 0);
    206a:	c1 30       	cpi	r28, 0x01	; 1
    206c:	d1 05       	cpc	r29, r1
    206e:	31 f4       	brne	.+12     	; 0x207c <p16f87x_erase+0x30>
    2070:	6f ef       	ldi	r22, 0xFF	; 255
    2072:	7f e3       	ldi	r23, 0x3F	; 63
    2074:	83 e0       	ldi	r24, 0x03	; 3
    2076:	0e 94 c3 01 	call	0x386	; 0x386 <p16f7x_writeComm>
    207a:	10 c0       	rjmp	.+32     	; 0x209c <p16f87x_erase+0x50>
		else
		{
			p16f7x_writeComm(P16F7X_LOAD_CONF, 0x0000, 0);
    207c:	60 e0       	ldi	r22, 0x00	; 0
    207e:	70 e0       	ldi	r23, 0x00	; 0
    2080:	80 e0       	ldi	r24, 0x00	; 0
    2082:	0e 94 c3 01 	call	0x386	; 0x386 <p16f7x_writeComm>
    2086:	07 e0       	ldi	r16, 0x07	; 7
    2088:	10 e0       	ldi	r17, 0x00	; 0
			for(int a = 0; a < 7; a++) p16f7x_writeComm(P16F7X_INC_ADD, 0x0000, 1);
    208a:	41 e0       	ldi	r20, 0x01	; 1
    208c:	60 e0       	ldi	r22, 0x00	; 0
    208e:	70 e0       	ldi	r23, 0x00	; 0
    2090:	86 e0       	ldi	r24, 0x06	; 6
    2092:	0e 94 c3 01 	call	0x386	; 0x386 <p16f7x_writeComm>
    2096:	01 50       	subi	r16, 0x01	; 1
    2098:	11 09       	sbc	r17, r1
    209a:	b9 f7       	brne	.-18     	; 0x208a <p16f87x_erase+0x3e>
		}

		p16f7x_writeComm(0x01, 0x0000, 1);
    209c:	41 e0       	ldi	r20, 0x01	; 1
    209e:	60 e0       	ldi	r22, 0x00	; 0
    20a0:	70 e0       	ldi	r23, 0x00	; 0
    20a2:	81 e0       	ldi	r24, 0x01	; 1
    20a4:	0e 94 c3 01 	call	0x386	; 0x386 <p16f7x_writeComm>
		p16f7x_writeComm(0x07, 0x0000, 1);
    20a8:	41 e0       	ldi	r20, 0x01	; 1
    20aa:	60 e0       	ldi	r22, 0x00	; 0
    20ac:	70 e0       	ldi	r23, 0x00	; 0
    20ae:	87 e0       	ldi	r24, 0x07	; 7
    20b0:	0e 94 c3 01 	call	0x386	; 0x386 <p16f7x_writeComm>
		p16f7x_writeComm(0x08, 0x0000, 1);
    20b4:	41 e0       	ldi	r20, 0x01	; 1
    20b6:	60 e0       	ldi	r22, 0x00	; 0
    20b8:	70 e0       	ldi	r23, 0x00	; 0
    20ba:	88 e0       	ldi	r24, 0x08	; 8
    20bc:	0e 94 c3 01 	call	0x386	; 0x386 <p16f7x_writeComm>
    20c0:	8f e3       	ldi	r24, 0x3F	; 63
    20c2:	9c e9       	ldi	r25, 0x9C	; 156
    20c4:	01 97       	sbiw	r24, 0x01	; 1
    20c6:	f1 f7       	brne	.-4      	; 0x20c4 <p16f87x_erase+0x78>
    20c8:	00 c0       	rjmp	.+0      	; 0x20ca <p16f87x_erase+0x7e>
    20ca:	00 00       	nop
		_delay_ms(10);
		p16f7x_writeComm(0x01, 0x0000, 1);
    20cc:	41 e0       	ldi	r20, 0x01	; 1
    20ce:	60 e0       	ldi	r22, 0x00	; 0
    20d0:	70 e0       	ldi	r23, 0x00	; 0
    20d2:	81 e0       	ldi	r24, 0x01	; 1
    20d4:	0e 94 c3 01 	call	0x386	; 0x386 <p16f7x_writeComm>
		p16f7x_writeComm(0x07, 0x0000, 1);
    20d8:	41 e0       	ldi	r20, 0x01	; 1
    20da:	60 e0       	ldi	r22, 0x00	; 0
    20dc:	70 e0       	ldi	r23, 0x00	; 0
    20de:	87 e0       	ldi	r24, 0x07	; 7
    20e0:	0e 94 c3 01 	call	0x386	; 0x386 <p16f7x_writeComm>
    20e4:	8f ed       	ldi	r24, 0xDF	; 223
    20e6:	9e e2       	ldi	r25, 0x2E	; 46
    20e8:	01 97       	sbiw	r24, 0x01	; 1
    20ea:	f1 f7       	brne	.-4      	; 0x20e8 <p16f87x_erase+0x9c>
    20ec:	00 c0       	rjmp	.+0      	; 0x20ee <p16f87x_erase+0xa2>
    20ee:	00 00       	nop
		_delay_ms(3);
		reset();
    20f0:	0e 94 45 06 	call	0xc8a	; 0xc8a <reset>
	reset();
}

void p16f87x_erase(void)
{
	for(int i = 0; i < 3; i++)
    20f4:	21 96       	adiw	r28, 0x01	; 1
    20f6:	c3 30       	cpi	r28, 0x03	; 3
    20f8:	d1 05       	cpc	r29, r1
    20fa:	09 f0       	breq	.+2      	; 0x20fe <p16f87x_erase+0xb2>
    20fc:	ad cf       	rjmp	.-166    	; 0x2058 <p16f87x_erase+0xc>
		p16f7x_writeComm(0x01, 0x0000, 1);
		p16f7x_writeComm(0x07, 0x0000, 1);
		_delay_ms(3);
		reset();
	}
}
    20fe:	df 91       	pop	r29
    2100:	cf 91       	pop	r28
    2102:	1f 91       	pop	r17
    2104:	0f 91       	pop	r16
    2106:	08 95       	ret

00002108 <p18fx5xx_erase>:

void p18fx5xx_erase(void)
{
    2108:	0f 93       	push	r16
    210a:	1f 93       	push	r17
    210c:	cf 93       	push	r28
    210e:	df 93       	push	r29
    2110:	80 91 17 03 	lds	r24, 0x0317	; 0x800317 <device>
    2114:	83 50       	subi	r24, 0x03	; 3
    2116:	8e 30       	cpi	r24, 0x0E	; 14
    2118:	70 f4       	brcc	.+28     	; 0x2136 <p18fx5xx_erase+0x2e>
    211a:	90 e0       	ldi	r25, 0x00	; 0
    211c:	88 0f       	add	r24, r24
    211e:	99 1f       	adc	r25, r25
    2120:	fc 01       	movw	r30, r24
    2122:	ec 5b       	subi	r30, 0xBC	; 188
    2124:	fe 4f       	sbci	r31, 0xFE	; 254
    2126:	00 81       	ld	r16, Z
    2128:	11 81       	ldd	r17, Z+1	; 0x01
    212a:	fc 01       	movw	r30, r24
    212c:	e8 5d       	subi	r30, 0xD8	; 216
    212e:	fe 4f       	sbci	r31, 0xFE	; 254
    2130:	c0 81       	ld	r28, Z
    2132:	d1 81       	ldd	r29, Z+1	; 0x01
    2134:	04 c0       	rjmp	.+8      	; 0x213e <p18fx5xx_erase+0x36>
	uint16_t wr1 = 0, wr2 = 0;

	switch(device)
    2136:	c0 e0       	ldi	r28, 0x00	; 0
    2138:	d0 e0       	ldi	r29, 0x00	; 0
    213a:	00 e0       	ldi	r16, 0x00	; 0
    213c:	10 e0       	ldi	r17, 0x00	; 0
		case 0x03: {wr1 = 0x3F3F, wr2 = 0x8F8F; break;}
		case 0x0D: {wr1 = 0x0101, wr2 = 0x8080; break;}
		case 0x10: {wr1 = 0x0F0F, wr2 = 0x8F8F; break;}
	}

	progMode();
    213e:	0e 94 60 05 	call	0xac0	; 0xac0 <progMode>

	p18fx5xx_setDP(0x3C, 0x00, 0x05);
    2142:	45 e0       	ldi	r20, 0x05	; 5
    2144:	60 e0       	ldi	r22, 0x00	; 0
    2146:	8c e3       	ldi	r24, 0x3C	; 60
    2148:	0e 94 ff 05 	call	0xbfe	; 0xbfe <p18fx5xx_setDP>
	p18fx5xx_writeComm(P18FX5XX_TABLE_WR, wr1);
    214c:	b8 01       	movw	r22, r16
    214e:	8c e0       	ldi	r24, 0x0C	; 12
    2150:	0e 94 6b 04 	call	0x8d6	; 0x8d6 <p18fx5xx_writeComm>
	p18fx5xx_setDP(0x3C, 0x00, 0x04);
    2154:	44 e0       	ldi	r20, 0x04	; 4
    2156:	60 e0       	ldi	r22, 0x00	; 0
    2158:	8c e3       	ldi	r24, 0x3C	; 60
    215a:	0e 94 ff 05 	call	0xbfe	; 0xbfe <p18fx5xx_setDP>
	p18fx5xx_writeComm(P18FX5XX_TABLE_WR, wr2);
    215e:	be 01       	movw	r22, r28
    2160:	8c e0       	ldi	r24, 0x0C	; 12
    2162:	0e 94 6b 04 	call	0x8d6	; 0x8d6 <p18fx5xx_writeComm>
	p18fx5xx_writeNop();
    2166:	0e 94 ce 04 	call	0x99c	; 0x99c <p18fx5xx_writeNop>
	p18fx5xx_writeComm(P18FX5XX_CORE_INSTR, 0x0000);
    216a:	60 e0       	ldi	r22, 0x00	; 0
    216c:	70 e0       	ldi	r23, 0x00	; 0
    216e:	80 e0       	ldi	r24, 0x00	; 0
    2170:	0e 94 6b 04 	call	0x8d6	; 0x8d6 <p18fx5xx_writeComm>
	p18fx5xx_writeComm(P18FX5XX_CORE_INSTR, 0x0000);
    2174:	60 e0       	ldi	r22, 0x00	; 0
    2176:	70 e0       	ldi	r23, 0x00	; 0
    2178:	80 e0       	ldi	r24, 0x00	; 0
    217a:	0e 94 6b 04 	call	0x8d6	; 0x8d6 <p18fx5xx_writeComm>
    217e:	2f ef       	ldi	r18, 0xFF	; 255
    2180:	80 e7       	ldi	r24, 0x70	; 112
    2182:	92 e0       	ldi	r25, 0x02	; 2
    2184:	21 50       	subi	r18, 0x01	; 1
    2186:	80 40       	sbci	r24, 0x00	; 0
    2188:	90 40       	sbci	r25, 0x00	; 0
    218a:	e1 f7       	brne	.-8      	; 0x2184 <p18fx5xx_erase+0x7c>
    218c:	00 c0       	rjmp	.+0      	; 0x218e <p18fx5xx_erase+0x86>
    218e:	00 00       	nop
	_delay_ms(50);

	reset();
}
    2190:	df 91       	pop	r29
    2192:	cf 91       	pop	r28
    2194:	1f 91       	pop	r17
    2196:	0f 91       	pop	r16
	p18fx5xx_writeNop();
	p18fx5xx_writeComm(P18FX5XX_CORE_INSTR, 0x0000);
	p18fx5xx_writeComm(P18FX5XX_CORE_INSTR, 0x0000);
	_delay_ms(50);

	reset();
    2198:	0c 94 45 06 	jmp	0xc8a	; 0xc8a <reset>

0000219c <p18fxxk80_erase>:
}

#ifdef PIC18FXXK80
void p18fxxk80_erase(void)
{
    219c:	cf 92       	push	r12
    219e:	df 92       	push	r13
    21a0:	ef 92       	push	r14
    21a2:	ff 92       	push	r15
    21a4:	0f 93       	push	r16
    21a6:	1f 93       	push	r17
    21a8:	cf 93       	push	r28
    21aa:	df 93       	push	r29
    21ac:	cd b7       	in	r28, 0x3d	; 61
    21ae:	de b7       	in	r29, 0x3e	; 62
    21b0:	6c 97       	sbiw	r28, 0x1c	; 28
    21b2:	0f b6       	in	r0, 0x3f	; 63
    21b4:	f8 94       	cli
    21b6:	de bf       	out	0x3e, r29	; 62
    21b8:	0f be       	out	0x3f, r0	; 63
    21ba:	cd bf       	out	0x3d, r28	; 61
	uint16_t er_04[] = {0x0404, 0x0404, 0x0404, 0x0404, 0x0505, 0x0202, 0x0404};
    21bc:	8e e0       	ldi	r24, 0x0E	; 14
    21be:	e0 e0       	ldi	r30, 0x00	; 0
    21c0:	f1 e0       	ldi	r31, 0x01	; 1
    21c2:	de 01       	movw	r26, r28
    21c4:	1f 96       	adiw	r26, 0x0f	; 15
    21c6:	01 90       	ld	r0, Z+
    21c8:	0d 92       	st	X+, r0
    21ca:	8a 95       	dec	r24
    21cc:	e1 f7       	brne	.-8      	; 0x21c6 <p18fxxk80_erase+0x2a>
	uint16_t er_05[] = {0x0101, 0x0202, 0x0404, 0x0808, 0x0000, 0x0000, 0x0000};
    21ce:	8e e0       	ldi	r24, 0x0E	; 14
    21d0:	ee e0       	ldi	r30, 0x0E	; 14
    21d2:	f1 e0       	ldi	r31, 0x01	; 1
    21d4:	de 01       	movw	r26, r28
    21d6:	11 96       	adiw	r26, 0x01	; 1
    21d8:	01 90       	ld	r0, Z+
    21da:	0d 92       	st	X+, r0
    21dc:	8a 95       	dec	r24
    21de:	e1 f7       	brne	.-8      	; 0x21d8 <p18fxxk80_erase+0x3c>
    21e0:	7e 01       	movw	r14, r28
    21e2:	2f e0       	ldi	r18, 0x0F	; 15
    21e4:	e2 0e       	add	r14, r18
    21e6:	f1 1c       	adc	r15, r1
    21e8:	8e 01       	movw	r16, r28
    21ea:	0f 5f       	subi	r16, 0xFF	; 255
    21ec:	1f 4f       	sbci	r17, 0xFF	; 255
    21ee:	6e 01       	movw	r12, r28
    21f0:	8d e1       	ldi	r24, 0x1D	; 29
    21f2:	c8 0e       	add	r12, r24
    21f4:	d1 1c       	adc	r13, r1


	for(int g = 0; g < 7; g++)
	{
		progMode();
    21f6:	0e 94 60 05 	call	0xac0	; 0xac0 <progMode>
		p18fx5xx_setDP(0x3C, 0x00, 0x04);
    21fa:	44 e0       	ldi	r20, 0x04	; 4
    21fc:	60 e0       	ldi	r22, 0x00	; 0
    21fe:	8c e3       	ldi	r24, 0x3C	; 60
    2200:	0e 94 ff 05 	call	0xbfe	; 0xbfe <p18fx5xx_setDP>
		p18fx5xx_writeComm(P18FX5XX_TABLE_WR, er_04[g]);
    2204:	f7 01       	movw	r30, r14
    2206:	61 91       	ld	r22, Z+
    2208:	71 91       	ld	r23, Z+
    220a:	7f 01       	movw	r14, r30
    220c:	8c e0       	ldi	r24, 0x0C	; 12
    220e:	0e 94 6b 04 	call	0x8d6	; 0x8d6 <p18fx5xx_writeComm>
		p18fx5xx_setDP(0x3C, 0x00, 0x05);
    2212:	45 e0       	ldi	r20, 0x05	; 5
    2214:	60 e0       	ldi	r22, 0x00	; 0
    2216:	8c e3       	ldi	r24, 0x3C	; 60
    2218:	0e 94 ff 05 	call	0xbfe	; 0xbfe <p18fx5xx_setDP>
		p18fx5xx_writeComm(P18FX5XX_TABLE_WR, er_05[g]);
    221c:	f8 01       	movw	r30, r16
    221e:	61 91       	ld	r22, Z+
    2220:	71 91       	ld	r23, Z+
    2222:	8f 01       	movw	r16, r30
    2224:	8c e0       	ldi	r24, 0x0C	; 12
    2226:	0e 94 6b 04 	call	0x8d6	; 0x8d6 <p18fx5xx_writeComm>
		p18fx5xx_setDP(0x3C, 0x00, 0x06);
    222a:	46 e0       	ldi	r20, 0x06	; 6
    222c:	60 e0       	ldi	r22, 0x00	; 0
    222e:	8c e3       	ldi	r24, 0x3C	; 60
    2230:	0e 94 ff 05 	call	0xbfe	; 0xbfe <p18fx5xx_setDP>
		p18fx5xx_writeComm(P18FX5XX_TABLE_WR, 0x8080);
    2234:	60 e8       	ldi	r22, 0x80	; 128
    2236:	70 e8       	ldi	r23, 0x80	; 128
    2238:	8c e0       	ldi	r24, 0x0C	; 12
    223a:	0e 94 6b 04 	call	0x8d6	; 0x8d6 <p18fx5xx_writeComm>
		p18fx5xx_writeNop();
    223e:	0e 94 ce 04 	call	0x99c	; 0x99c <p18fx5xx_writeNop>
		p18fx5xx_writeComm(P18FX5XX_CORE_INSTR, 0x0000);
    2242:	60 e0       	ldi	r22, 0x00	; 0
    2244:	70 e0       	ldi	r23, 0x00	; 0
    2246:	80 e0       	ldi	r24, 0x00	; 0
    2248:	0e 94 6b 04 	call	0x8d6	; 0x8d6 <p18fx5xx_writeComm>
		p18fx5xx_writeComm(P18FX5XX_CORE_INSTR, 0x0000);
    224c:	60 e0       	ldi	r22, 0x00	; 0
    224e:	70 e0       	ldi	r23, 0x00	; 0
    2250:	80 e0       	ldi	r24, 0x00	; 0
    2252:	0e 94 6b 04 	call	0x8d6	; 0x8d6 <p18fx5xx_writeComm>
    2256:	ff ef       	ldi	r31, 0xFF	; 255
    2258:	20 e7       	ldi	r18, 0x70	; 112
    225a:	82 e0       	ldi	r24, 0x02	; 2
    225c:	f1 50       	subi	r31, 0x01	; 1
    225e:	20 40       	sbci	r18, 0x00	; 0
    2260:	80 40       	sbci	r24, 0x00	; 0
    2262:	e1 f7       	brne	.-8      	; 0x225c <p18fxxk80_erase+0xc0>
    2264:	00 c0       	rjmp	.+0      	; 0x2266 <p18fxxk80_erase+0xca>
    2266:	00 00       	nop
		_delay_ms(50);
		reset();
    2268:	0e 94 45 06 	call	0xc8a	; 0xc8a <reset>
    226c:	ef e1       	ldi	r30, 0x1F	; 31
    226e:	fe e4       	ldi	r31, 0x4E	; 78
    2270:	31 97       	sbiw	r30, 0x01	; 1
    2272:	f1 f7       	brne	.-4      	; 0x2270 <p18fxxk80_erase+0xd4>
    2274:	00 c0       	rjmp	.+0      	; 0x2276 <p18fxxk80_erase+0xda>
    2276:	00 00       	nop
{
	uint16_t er_04[] = {0x0404, 0x0404, 0x0404, 0x0404, 0x0505, 0x0202, 0x0404};
	uint16_t er_05[] = {0x0101, 0x0202, 0x0404, 0x0808, 0x0000, 0x0000, 0x0000};


	for(int g = 0; g < 7; g++)
    2278:	ec 14       	cp	r14, r12
    227a:	fd 04       	cpc	r15, r13
    227c:	09 f0       	breq	.+2      	; 0x2280 <p18fxxk80_erase+0xe4>
    227e:	bb cf       	rjmp	.-138    	; 0x21f6 <p18fxxk80_erase+0x5a>
		p18fx5xx_writeComm(P18FX5XX_CORE_INSTR, 0x0000);
		_delay_ms(50);
		reset();
		_delay_ms(5);
	}
}
    2280:	6c 96       	adiw	r28, 0x1c	; 28
    2282:	0f b6       	in	r0, 0x3f	; 63
    2284:	f8 94       	cli
    2286:	de bf       	out	0x3e, r29	; 62
    2288:	0f be       	out	0x3f, r0	; 63
    228a:	cd bf       	out	0x3d, r28	; 61
    228c:	df 91       	pop	r29
    228e:	cf 91       	pop	r28
    2290:	1f 91       	pop	r17
    2292:	0f 91       	pop	r16
    2294:	ff 90       	pop	r15
    2296:	ef 90       	pop	r14
    2298:	df 90       	pop	r13
    229a:	cf 90       	pop	r12
    229c:	08 95       	ret

0000229e <p16f7x_progCode>:
#endif

void p16f7x_progCode(void)
{
    229e:	0f 93       	push	r16
    22a0:	1f 93       	push	r17
    22a2:	cf 93       	push	r28
    22a4:	df 93       	push	r29
	uint16_t zer;
	if(device == 0x09 || device == 0x0A || device == 0x0B || device == 0x0C) zer = 0x0FFF;
    22a6:	80 91 17 03 	lds	r24, 0x0317	; 0x800317 <device>
    22aa:	89 50       	subi	r24, 0x09	; 9
    22ac:	84 30       	cpi	r24, 0x04	; 4
    22ae:	18 f0       	brcs	.+6      	; 0x22b6 <p16f7x_progCode+0x18>
	else zer = 0x3FFF;
    22b0:	0f ef       	ldi	r16, 0xFF	; 255
    22b2:	1f e3       	ldi	r17, 0x3F	; 63
    22b4:	02 c0       	rjmp	.+4      	; 0x22ba <p16f7x_progCode+0x1c>
#endif

void p16f7x_progCode(void)
{
	uint16_t zer;
	if(device == 0x09 || device == 0x0A || device == 0x0B || device == 0x0C) zer = 0x0FFF;
    22b6:	0f ef       	ldi	r16, 0xFF	; 255
    22b8:	1f e0       	ldi	r17, 0x0F	; 15
	else zer = 0x3FFF;

	for(int i = 0; i < 128; i+= 2)
    22ba:	c0 e0       	ldi	r28, 0x00	; 0
    22bc:	d0 e0       	ldi	r29, 0x00	; 0
    22be:	fe 01       	movw	r30, r28
    22c0:	e6 59       	subi	r30, 0x96	; 150
    22c2:	fd 4f       	sbci	r31, 0xFD	; 253
	{
		if((exchange[i + 4] | (exchange[i + 5] << 8)) == zer)
    22c4:	65 81       	ldd	r22, Z+5	; 0x05
    22c6:	70 e0       	ldi	r23, 0x00	; 0
    22c8:	76 2f       	mov	r23, r22
    22ca:	66 27       	eor	r22, r22
    22cc:	84 81       	ldd	r24, Z+4	; 0x04
    22ce:	68 2b       	or	r22, r24
    22d0:	60 17       	cp	r22, r16
    22d2:	71 07       	cpc	r23, r17
    22d4:	11 f1       	breq	.+68     	; 0x231a <p16f7x_progCode+0x7c>
			p16f7x_writeComm(P16F7X_INC_ADD, 0x0000, 1);
			continue;
		}
		else
		{
			p16f7x_writeComm(P16F7X_LOAD_DATA, (exchange[i + 4] | (exchange[i + 5] <<8)), 0);
    22d6:	40 e0       	ldi	r20, 0x00	; 0
    22d8:	82 e0       	ldi	r24, 0x02	; 2
    22da:	0e 94 c3 01 	call	0x386	; 0x386 <p16f7x_writeComm>
			if(device == 0x14) p16f7x_writeComm(0x18, 0x0000, 1);
    22de:	80 91 17 03 	lds	r24, 0x0317	; 0x800317 <device>
    22e2:	41 e0       	ldi	r20, 0x01	; 1
    22e4:	60 e0       	ldi	r22, 0x00	; 0
    22e6:	70 e0       	ldi	r23, 0x00	; 0
    22e8:	84 31       	cpi	r24, 0x14	; 20
    22ea:	11 f4       	brne	.+4      	; 0x22f0 <p16f7x_progCode+0x52>
    22ec:	88 e1       	ldi	r24, 0x18	; 24
    22ee:	01 c0       	rjmp	.+2      	; 0x22f2 <p16f7x_progCode+0x54>
			else p16f7x_writeComm(P16F7X_BEGIN_PROG, 0x0000, 1);
    22f0:	88 e0       	ldi	r24, 0x08	; 8
    22f2:	0e 94 c3 01 	call	0x386	; 0x386 <p16f7x_writeComm>
			delay_ms(wr_delay);
    22f6:	80 91 0e 03 	lds	r24, 0x030E	; 0x80030e <wr_delay>
    22fa:	90 91 0f 03 	lds	r25, 0x030F	; 0x80030f <wr_delay+0x1>
    22fe:	0e 94 73 01 	call	0x2e6	; 0x2e6 <delay_ms>
			p16f7x_writeComm(P16F7X_END_PROG, 0x0000, 1);
    2302:	41 e0       	ldi	r20, 0x01	; 1
    2304:	60 e0       	ldi	r22, 0x00	; 0
    2306:	70 e0       	ldi	r23, 0x00	; 0
    2308:	8e e0       	ldi	r24, 0x0E	; 14
    230a:	0e 94 c3 01 	call	0x386	; 0x386 <p16f7x_writeComm>
	#else
		//round up by default
		__ticks_dc = (uint32_t)(ceil(fabs(__tmp)));
	#endif

	__builtin_avr_delay_cycles(__ticks_dc);
    230e:	8f e8       	ldi	r24, 0x8F	; 143
    2310:	91 e0       	ldi	r25, 0x01	; 1
    2312:	01 97       	sbiw	r24, 0x01	; 1
    2314:	f1 f7       	brne	.-4      	; 0x2312 <p16f7x_progCode+0x74>
    2316:	00 c0       	rjmp	.+0      	; 0x2318 <p16f7x_progCode+0x7a>
    2318:	00 00       	nop
			_delay_us(100);
			p16f7x_writeComm(P16F7X_INC_ADD, 0x0000, 1);
    231a:	41 e0       	ldi	r20, 0x01	; 1
    231c:	60 e0       	ldi	r22, 0x00	; 0
    231e:	70 e0       	ldi	r23, 0x00	; 0
    2320:	86 e0       	ldi	r24, 0x06	; 6
    2322:	0e 94 c3 01 	call	0x386	; 0x386 <p16f7x_writeComm>
{
	uint16_t zer;
	if(device == 0x09 || device == 0x0A || device == 0x0B || device == 0x0C) zer = 0x0FFF;
	else zer = 0x3FFF;

	for(int i = 0; i < 128; i+= 2)
    2326:	22 96       	adiw	r28, 0x02	; 2
    2328:	c0 38       	cpi	r28, 0x80	; 128
    232a:	d1 05       	cpc	r29, r1
    232c:	41 f6       	brne	.-112    	; 0x22be <p16f7x_progCode+0x20>
			p16f7x_writeComm(P16F7X_END_PROG, 0x0000, 1);
			_delay_us(100);
			p16f7x_writeComm(P16F7X_INC_ADD, 0x0000, 1);
		}
	}
}
    232e:	df 91       	pop	r29
    2330:	cf 91       	pop	r28
    2332:	1f 91       	pop	r17
    2334:	0f 91       	pop	r16
    2336:	08 95       	ret

00002338 <p16f628a_progCode>:


void p16f628a_progCode(void)
{
    2338:	cf 93       	push	r28
    233a:	df 93       	push	r29
	for(int i = 0; i < 128; i+= 2)
    233c:	c0 e0       	ldi	r28, 0x00	; 0
    233e:	d0 e0       	ldi	r29, 0x00	; 0
    2340:	fe 01       	movw	r30, r28
    2342:	e6 59       	subi	r30, 0x96	; 150
    2344:	fd 4f       	sbci	r31, 0xFD	; 253
	{
		if((exchange[i + 4] | (exchange[i + 5] << 8)) == 0x3FFF)
    2346:	65 81       	ldd	r22, Z+5	; 0x05
    2348:	70 e0       	ldi	r23, 0x00	; 0
    234a:	76 2f       	mov	r23, r22
    234c:	66 27       	eor	r22, r22
    234e:	84 81       	ldd	r24, Z+4	; 0x04
    2350:	68 2b       	or	r22, r24
    2352:	6f 3f       	cpi	r22, 0xFF	; 255
    2354:	8f e3       	ldi	r24, 0x3F	; 63
    2356:	78 07       	cpc	r23, r24
    2358:	81 f0       	breq	.+32     	; 0x237a <p16f628a_progCode+0x42>
			p16f7x_writeComm(P16F7X_INC_ADD, 0x0000, 1);
			continue;
		}
		else
		{
			p16f7x_writeComm(P16F628A_LOAD_CODE, (exchange[i + 4] | (exchange[i + 5] <<8)), 0);
    235a:	40 e0       	ldi	r20, 0x00	; 0
    235c:	82 e0       	ldi	r24, 0x02	; 2
    235e:	0e 94 c3 01 	call	0x386	; 0x386 <p16f7x_writeComm>
			p16f7x_writeComm(P16F7X_BEGIN_PROG, 0x0000, 1);
    2362:	41 e0       	ldi	r20, 0x01	; 1
    2364:	60 e0       	ldi	r22, 0x00	; 0
    2366:	70 e0       	ldi	r23, 0x00	; 0
    2368:	88 e0       	ldi	r24, 0x08	; 8
    236a:	0e 94 c3 01 	call	0x386	; 0x386 <p16f7x_writeComm>
			delay_ms(wr_delay);
    236e:	80 91 0e 03 	lds	r24, 0x030E	; 0x80030e <wr_delay>
    2372:	90 91 0f 03 	lds	r25, 0x030F	; 0x80030f <wr_delay+0x1>
    2376:	0e 94 73 01 	call	0x2e6	; 0x2e6 <delay_ms>
			p16f7x_writeComm(P16F7X_INC_ADD, 0x0000, 1);
    237a:	41 e0       	ldi	r20, 0x01	; 1
    237c:	60 e0       	ldi	r22, 0x00	; 0
    237e:	70 e0       	ldi	r23, 0x00	; 0
    2380:	86 e0       	ldi	r24, 0x06	; 6
    2382:	0e 94 c3 01 	call	0x386	; 0x386 <p16f7x_writeComm>
}


void p16f628a_progCode(void)
{
	for(int i = 0; i < 128; i+= 2)
    2386:	22 96       	adiw	r28, 0x02	; 2
    2388:	c0 38       	cpi	r28, 0x80	; 128
    238a:	d1 05       	cpc	r29, r1
    238c:	c9 f6       	brne	.-78     	; 0x2340 <p16f628a_progCode+0x8>
			p16f7x_writeComm(P16F7X_BEGIN_PROG, 0x0000, 1);
			delay_ms(wr_delay);
			p16f7x_writeComm(P16F7X_INC_ADD, 0x0000, 1);
		}
	}
}
    238e:	df 91       	pop	r29
    2390:	cf 91       	pop	r28
    2392:	08 95       	ret

00002394 <p16f81x_progCode>:

void p16f81x_progCode(void)
{
    2394:	cf 93       	push	r28
    2396:	df 93       	push	r29
	for(int i = 0; i < 128; i+= 2)
    2398:	c0 e0       	ldi	r28, 0x00	; 0
    239a:	d0 e0       	ldi	r29, 0x00	; 0
    239c:	fe 01       	movw	r30, r28
    239e:	e6 59       	subi	r30, 0x96	; 150
    23a0:	fd 4f       	sbci	r31, 0xFD	; 253
	{
		if((exchange[i + 4] | (exchange[i + 5] << 8)) == 0x3FFF)
    23a2:	65 81       	ldd	r22, Z+5	; 0x05
    23a4:	70 e0       	ldi	r23, 0x00	; 0
    23a6:	76 2f       	mov	r23, r22
    23a8:	66 27       	eor	r22, r22
    23aa:	84 81       	ldd	r24, Z+4	; 0x04
    23ac:	68 2b       	or	r22, r24
    23ae:	6f 3f       	cpi	r22, 0xFF	; 255
    23b0:	8f e3       	ldi	r24, 0x3F	; 63
    23b2:	78 07       	cpc	r23, r24
    23b4:	b1 f0       	breq	.+44     	; 0x23e2 <p16f81x_progCode+0x4e>
			p16f7x_writeComm(P16F7X_INC_ADD, 0x0000, 1);
			continue;
		}
		else
		{
			p16f7x_writeComm(P16F628A_LOAD_CODE, (exchange[i + 4] | (exchange[i + 5] <<8)), 0);
    23b6:	40 e0       	ldi	r20, 0x00	; 0
    23b8:	82 e0       	ldi	r24, 0x02	; 2
    23ba:	0e 94 c3 01 	call	0x386	; 0x386 <p16f7x_writeComm>
			p16f7x_writeComm(0x18, 0x0000, 1);
    23be:	41 e0       	ldi	r20, 0x01	; 1
    23c0:	60 e0       	ldi	r22, 0x00	; 0
    23c2:	70 e0       	ldi	r23, 0x00	; 0
    23c4:	88 e1       	ldi	r24, 0x18	; 24
    23c6:	0e 94 c3 01 	call	0x386	; 0x386 <p16f7x_writeComm>
			delay_ms(wr_delay);
    23ca:	80 91 0e 03 	lds	r24, 0x030E	; 0x80030e <wr_delay>
    23ce:	90 91 0f 03 	lds	r25, 0x030F	; 0x80030f <wr_delay+0x1>
    23d2:	0e 94 73 01 	call	0x2e6	; 0x2e6 <delay_ms>
			p16f7x_writeComm(0x17, 0x0000, 1);
    23d6:	41 e0       	ldi	r20, 0x01	; 1
    23d8:	60 e0       	ldi	r22, 0x00	; 0
    23da:	70 e0       	ldi	r23, 0x00	; 0
    23dc:	87 e1       	ldi	r24, 0x17	; 23
    23de:	0e 94 c3 01 	call	0x386	; 0x386 <p16f7x_writeComm>
			p16f7x_writeComm(P16F7X_INC_ADD, 0x0000, 1);
    23e2:	41 e0       	ldi	r20, 0x01	; 1
    23e4:	60 e0       	ldi	r22, 0x00	; 0
    23e6:	70 e0       	ldi	r23, 0x00	; 0
    23e8:	86 e0       	ldi	r24, 0x06	; 6
    23ea:	0e 94 c3 01 	call	0x386	; 0x386 <p16f7x_writeComm>
	}
}

void p16f81x_progCode(void)
{
	for(int i = 0; i < 128; i+= 2)
    23ee:	22 96       	adiw	r28, 0x02	; 2
    23f0:	c0 38       	cpi	r28, 0x80	; 128
    23f2:	d1 05       	cpc	r29, r1
    23f4:	99 f6       	brne	.-90     	; 0x239c <p16f81x_progCode+0x8>
			delay_ms(wr_delay);
			p16f7x_writeComm(0x17, 0x0000, 1);
			p16f7x_writeComm(P16F7X_INC_ADD, 0x0000, 1);
		}
	}
}
    23f6:	df 91       	pop	r29
    23f8:	cf 91       	pop	r28
    23fa:	08 95       	ret

000023fc <p16f676_progCode>:

#ifdef PIC16F676
void p16f676_progCode(void)
{
    23fc:	cf 93       	push	r28
    23fe:	df 93       	push	r29
	for(int i = 0; i < 128; i+= 2)
    2400:	c0 e0       	ldi	r28, 0x00	; 0
    2402:	d0 e0       	ldi	r29, 0x00	; 0
    2404:	fe 01       	movw	r30, r28
    2406:	e6 59       	subi	r30, 0x96	; 150
    2408:	fd 4f       	sbci	r31, 0xFD	; 253
	{
		if((exchange[i + 4] | (exchange[i + 5] << 8)) == 0x3FFF)
    240a:	65 81       	ldd	r22, Z+5	; 0x05
    240c:	70 e0       	ldi	r23, 0x00	; 0
    240e:	76 2f       	mov	r23, r22
    2410:	66 27       	eor	r22, r22
    2412:	84 81       	ldd	r24, Z+4	; 0x04
    2414:	68 2b       	or	r22, r24
    2416:	6f 3f       	cpi	r22, 0xFF	; 255
    2418:	2f e3       	ldi	r18, 0x3F	; 63
    241a:	72 07       	cpc	r23, r18
    241c:	39 f4       	brne	.+14     	; 0x242c <p16f676_progCode+0x30>
		{
			p16f7x_writeComm(P16F7X_INC_ADD, 0x0000, 1);
    241e:	41 e0       	ldi	r20, 0x01	; 1
    2420:	60 e0       	ldi	r22, 0x00	; 0
    2422:	70 e0       	ldi	r23, 0x00	; 0
    2424:	86 e0       	ldi	r24, 0x06	; 6
    2426:	0e 94 c3 01 	call	0x386	; 0x386 <p16f7x_writeComm>
			continue;
    242a:	3a c0       	rjmp	.+116    	; 0x24a0 <p16f676_progCode+0xa4>
		}
		else if(main_counter == 0x3FF)
    242c:	80 91 06 03 	lds	r24, 0x0306	; 0x800306 <main_counter>
    2430:	90 91 07 03 	lds	r25, 0x0307	; 0x800307 <main_counter+0x1>
    2434:	a0 91 08 03 	lds	r26, 0x0308	; 0x800308 <main_counter+0x2>
    2438:	b0 91 09 03 	lds	r27, 0x0309	; 0x800309 <main_counter+0x3>
    243c:	8f 3f       	cpi	r24, 0xFF	; 255
    243e:	93 40       	sbci	r25, 0x03	; 3
    2440:	a1 05       	cpc	r26, r1
    2442:	b1 05       	cpc	r27, r1
    2444:	21 f4       	brne	.+8      	; 0x244e <p16f676_progCode+0x52>
		{
			p16f7x_writeComm(P16F628A_LOAD_CODE, oscal1, 0);
    2446:	60 91 02 03 	lds	r22, 0x0302	; 0x800302 <oscal1>
    244a:	70 91 03 03 	lds	r23, 0x0303	; 0x800303 <oscal1+0x1>
			delay_ms(wr_delay);
			p16f7x_writeComm(P16F7X_INC_ADD, 0x0000, 1);
		}
		else
		{
			p16f7x_writeComm(P16F628A_LOAD_CODE, (exchange[i + 4] | (exchange[i + 5] <<8)), 0);
    244e:	40 e0       	ldi	r20, 0x00	; 0
    2450:	82 e0       	ldi	r24, 0x02	; 2
    2452:	0e 94 c3 01 	call	0x386	; 0x386 <p16f7x_writeComm>
			p16f7x_writeComm(P16F7X_BEGIN_PROG, 0x0000, 1);
    2456:	41 e0       	ldi	r20, 0x01	; 1
    2458:	60 e0       	ldi	r22, 0x00	; 0
    245a:	70 e0       	ldi	r23, 0x00	; 0
    245c:	88 e0       	ldi	r24, 0x08	; 8
    245e:	0e 94 c3 01 	call	0x386	; 0x386 <p16f7x_writeComm>
			delay_ms(wr_delay);
    2462:	80 91 0e 03 	lds	r24, 0x030E	; 0x80030e <wr_delay>
    2466:	90 91 0f 03 	lds	r25, 0x030F	; 0x80030f <wr_delay+0x1>
    246a:	0e 94 73 01 	call	0x2e6	; 0x2e6 <delay_ms>
			p16f7x_writeComm(P16F7X_INC_ADD, 0x0000, 1);
    246e:	41 e0       	ldi	r20, 0x01	; 1
    2470:	60 e0       	ldi	r22, 0x00	; 0
    2472:	70 e0       	ldi	r23, 0x00	; 0
    2474:	86 e0       	ldi	r24, 0x06	; 6
    2476:	0e 94 c3 01 	call	0x386	; 0x386 <p16f7x_writeComm>
		}
		main_counter++;
    247a:	80 91 06 03 	lds	r24, 0x0306	; 0x800306 <main_counter>
    247e:	90 91 07 03 	lds	r25, 0x0307	; 0x800307 <main_counter+0x1>
    2482:	a0 91 08 03 	lds	r26, 0x0308	; 0x800308 <main_counter+0x2>
    2486:	b0 91 09 03 	lds	r27, 0x0309	; 0x800309 <main_counter+0x3>
    248a:	01 96       	adiw	r24, 0x01	; 1
    248c:	a1 1d       	adc	r26, r1
    248e:	b1 1d       	adc	r27, r1
    2490:	80 93 06 03 	sts	0x0306, r24	; 0x800306 <main_counter>
    2494:	90 93 07 03 	sts	0x0307, r25	; 0x800307 <main_counter+0x1>
    2498:	a0 93 08 03 	sts	0x0308, r26	; 0x800308 <main_counter+0x2>
    249c:	b0 93 09 03 	sts	0x0309, r27	; 0x800309 <main_counter+0x3>
}

#ifdef PIC16F676
void p16f676_progCode(void)
{
	for(int i = 0; i < 128; i+= 2)
    24a0:	22 96       	adiw	r28, 0x02	; 2
    24a2:	c0 38       	cpi	r28, 0x80	; 128
    24a4:	d1 05       	cpc	r29, r1
    24a6:	09 f0       	breq	.+2      	; 0x24aa <p16f676_progCode+0xae>
    24a8:	ad cf       	rjmp	.-166    	; 0x2404 <p16f676_progCode+0x8>
			delay_ms(wr_delay);
			p16f7x_writeComm(P16F7X_INC_ADD, 0x0000, 1);
		}
		main_counter++;
	}
}
    24aa:	df 91       	pop	r29
    24ac:	cf 91       	pop	r28
    24ae:	08 95       	ret

000024b0 <p16f84a_progCode>:
#endif

void p16f84a_progCode(void)
{
    24b0:	cf 93       	push	r28
    24b2:	df 93       	push	r29
	for(int i = 0; i < 128; i+= 2)
    24b4:	c0 e0       	ldi	r28, 0x00	; 0
    24b6:	d0 e0       	ldi	r29, 0x00	; 0
    24b8:	fe 01       	movw	r30, r28
    24ba:	e6 59       	subi	r30, 0x96	; 150
    24bc:	fd 4f       	sbci	r31, 0xFD	; 253
	{
		if((exchange[i + 4] | (exchange[i + 5] << 8)) == 0x3FFF)
    24be:	65 81       	ldd	r22, Z+5	; 0x05
    24c0:	70 e0       	ldi	r23, 0x00	; 0
    24c2:	76 2f       	mov	r23, r22
    24c4:	66 27       	eor	r22, r22
    24c6:	84 81       	ldd	r24, Z+4	; 0x04
    24c8:	68 2b       	or	r22, r24
    24ca:	6f 3f       	cpi	r22, 0xFF	; 255
    24cc:	8f e3       	ldi	r24, 0x3F	; 63
    24ce:	78 07       	cpc	r23, r24
    24d0:	59 f4       	brne	.+22     	; 0x24e8 <p16f84a_progCode+0x38>
		{
			p16f7x_writeComm(P16F7X_INC_ADD, 0x0000, 1);
    24d2:	41 e0       	ldi	r20, 0x01	; 1
    24d4:	60 e0       	ldi	r22, 0x00	; 0
    24d6:	70 e0       	ldi	r23, 0x00	; 0
    24d8:	86 e0       	ldi	r24, 0x06	; 6
    24da:	0e 94 c3 01 	call	0x386	; 0x386 <p16f7x_writeComm>
    24de:	8a e6       	ldi	r24, 0x6A	; 106
    24e0:	8a 95       	dec	r24
    24e2:	f1 f7       	brne	.-4      	; 0x24e0 <p16f84a_progCode+0x30>
    24e4:	00 c0       	rjmp	.+0      	; 0x24e6 <p16f84a_progCode+0x36>
			_delay_us(20);
			continue;
    24e6:	1a c0       	rjmp	.+52     	; 0x251c <p16f84a_progCode+0x6c>
		}
		else
		{
			p16f7x_writeComm(P16F628A_LOAD_CODE, (exchange[i + 4] | (exchange[i + 5] <<8)), 0);
    24e8:	40 e0       	ldi	r20, 0x00	; 0
    24ea:	82 e0       	ldi	r24, 0x02	; 2
    24ec:	0e 94 c3 01 	call	0x386	; 0x386 <p16f7x_writeComm>
    24f0:	8a e6       	ldi	r24, 0x6A	; 106
    24f2:	8a 95       	dec	r24
    24f4:	f1 f7       	brne	.-4      	; 0x24f2 <p16f84a_progCode+0x42>
    24f6:	00 c0       	rjmp	.+0      	; 0x24f8 <p16f84a_progCode+0x48>
			_delay_us(20);
			p16f7x_writeComm(0x08, 0x0000, 1);
    24f8:	41 e0       	ldi	r20, 0x01	; 1
    24fa:	60 e0       	ldi	r22, 0x00	; 0
    24fc:	70 e0       	ldi	r23, 0x00	; 0
    24fe:	88 e0       	ldi	r24, 0x08	; 8
    2500:	0e 94 c3 01 	call	0x386	; 0x386 <p16f7x_writeComm>
			delay_ms(wr_delay);
    2504:	80 91 0e 03 	lds	r24, 0x030E	; 0x80030e <wr_delay>
    2508:	90 91 0f 03 	lds	r25, 0x030F	; 0x80030f <wr_delay+0x1>
    250c:	0e 94 73 01 	call	0x2e6	; 0x2e6 <delay_ms>
			p16f7x_writeComm(P16F7X_INC_ADD, 0x0000, 1);
    2510:	41 e0       	ldi	r20, 0x01	; 1
    2512:	60 e0       	ldi	r22, 0x00	; 0
    2514:	70 e0       	ldi	r23, 0x00	; 0
    2516:	86 e0       	ldi	r24, 0x06	; 6
    2518:	0e 94 c3 01 	call	0x386	; 0x386 <p16f7x_writeComm>
}
#endif

void p16f84a_progCode(void)
{
	for(int i = 0; i < 128; i+= 2)
    251c:	22 96       	adiw	r28, 0x02	; 2
    251e:	c0 38       	cpi	r28, 0x80	; 128
    2520:	d1 05       	cpc	r29, r1
    2522:	51 f6       	brne	.-108    	; 0x24b8 <p16f84a_progCode+0x8>
			p16f7x_writeComm(0x08, 0x0000, 1);
			delay_ms(wr_delay);
			p16f7x_writeComm(P16F7X_INC_ADD, 0x0000, 1);
		}
	}
}
    2524:	df 91       	pop	r29
    2526:	cf 91       	pop	r28
    2528:	08 95       	ret

0000252a <p16f184xx_progCode>:

void p16f184xx_progCode(void)
{
    252a:	ef 92       	push	r14
    252c:	ff 92       	push	r15
    252e:	0f 93       	push	r16
    2530:	1f 93       	push	r17
    2532:	cf 93       	push	r28
    2534:	df 93       	push	r29
	int ff_val;
	uint16_t tmp_a;
	uint8_t l_a, h_a, m_a;


	for(int i = 0; i < 128; i+= f_psize)
    2536:	c0 e0       	ldi	r28, 0x00	; 0
    2538:	d0 e0       	ldi	r29, 0x00	; 0
	{

		ff_val = 0;
		for(int k = 0; k < f_psize; k+= 2)
    253a:	40 91 12 03 	lds	r20, 0x0312	; 0x800312 <f_psize>
    253e:	50 91 13 03 	lds	r21, 0x0313	; 0x800313 <f_psize+0x1>
    2542:	20 e0       	ldi	r18, 0x00	; 0
    2544:	30 e0       	ldi	r19, 0x00	; 0
    2546:	80 e0       	ldi	r24, 0x00	; 0
    2548:	90 e0       	ldi	r25, 0x00	; 0
    254a:	24 17       	cp	r18, r20
    254c:	35 07       	cpc	r19, r21
    254e:	78 f4       	brcc	.+30     	; 0x256e <p16f184xx_progCode+0x44>
    2550:	f9 01       	movw	r30, r18
    2552:	ec 0f       	add	r30, r28
    2554:	fd 1f       	adc	r31, r29
    2556:	e6 59       	subi	r30, 0x96	; 150
    2558:	fd 4f       	sbci	r31, 0xFD	; 253
		{
			if(exchange[i + k + 4] == 0xFF && exchange[i + k + 5] == 0x3F) ff_val += 2;
    255a:	64 81       	ldd	r22, Z+4	; 0x04
    255c:	6f 3f       	cpi	r22, 0xFF	; 255
    255e:	21 f4       	brne	.+8      	; 0x2568 <p16f184xx_progCode+0x3e>
    2560:	65 81       	ldd	r22, Z+5	; 0x05
    2562:	6f 33       	cpi	r22, 0x3F	; 63
    2564:	09 f4       	brne	.+2      	; 0x2568 <p16f184xx_progCode+0x3e>
    2566:	02 96       	adiw	r24, 0x02	; 2

	for(int i = 0; i < 128; i+= f_psize)
	{

		ff_val = 0;
		for(int k = 0; k < f_psize; k+= 2)
    2568:	2e 5f       	subi	r18, 0xFE	; 254
    256a:	3f 4f       	sbci	r19, 0xFF	; 255
    256c:	ee cf       	rjmp	.-36     	; 0x254a <p16f184xx_progCode+0x20>
    256e:	00 91 06 03 	lds	r16, 0x0306	; 0x800306 <main_counter>
    2572:	10 91 07 03 	lds	r17, 0x0307	; 0x800307 <main_counter+0x1>
    2576:	20 91 08 03 	lds	r18, 0x0308	; 0x800308 <main_counter+0x2>
    257a:	30 91 09 03 	lds	r19, 0x0309	; 0x800309 <main_counter+0x3>
		{
			if(exchange[i + k + 4] == 0xFF && exchange[i + k + 5] == 0x3F) ff_val += 2;
		}
		if(ff_val == f_psize) {main_counter += f_psize/2; continue;}
    257e:	84 17       	cp	r24, r20
    2580:	95 07       	cpc	r25, r21
    2582:	79 f4       	brne	.+30     	; 0x25a2 <p16f184xx_progCode+0x78>
    2584:	96 95       	lsr	r25
    2586:	87 95       	ror	r24
    2588:	08 0f       	add	r16, r24
    258a:	19 1f       	adc	r17, r25
    258c:	21 1d       	adc	r18, r1
    258e:	31 1d       	adc	r19, r1
    2590:	00 93 06 03 	sts	0x0306, r16	; 0x800306 <main_counter>
    2594:	10 93 07 03 	sts	0x0307, r17	; 0x800307 <main_counter+0x1>
    2598:	20 93 08 03 	sts	0x0308, r18	; 0x800308 <main_counter+0x2>
    259c:	30 93 09 03 	sts	0x0309, r19	; 0x800309 <main_counter+0x3>
    25a0:	5a c0       	rjmp	.+180    	; 0x2656 <p16f184xx_progCode+0x12c>

		tmp_a = main_counter >> 8;
    25a2:	bb 27       	eor	r27, r27
    25a4:	a3 2f       	mov	r26, r19
    25a6:	92 2f       	mov	r25, r18
    25a8:	81 2f       	mov	r24, r17
		h_a = tmp_a >> 8;
    25aa:	49 2f       	mov	r20, r25
    25ac:	55 27       	eor	r21, r21
		m_a = (main_counter >> 8) & 0xFF;
		l_a = main_counter & 0xFF;

		p16f184xx_writeComm(0x80, 0, h_a, m_a, l_a);
    25ae:	28 2f       	mov	r18, r24
    25b0:	60 e0       	ldi	r22, 0x00	; 0
    25b2:	80 e8       	ldi	r24, 0x80	; 128
    25b4:	0e 94 d4 02 	call	0x5a8	; 0x5a8 <p16f184xx_writeComm>

		for(int k = 0; k < f_psize; k+= 2)
    25b8:	e1 2c       	mov	r14, r1
    25ba:	f1 2c       	mov	r15, r1
    25bc:	80 91 12 03 	lds	r24, 0x0312	; 0x800312 <f_psize>
    25c0:	90 91 13 03 	lds	r25, 0x0313	; 0x800313 <f_psize+0x1>
    25c4:	e8 16       	cp	r14, r24
    25c6:	f9 06       	cpc	r15, r25
    25c8:	f8 f4       	brcc	.+62     	; 0x2608 <p16f184xx_progCode+0xde>
    25ca:	f7 01       	movw	r30, r14
    25cc:	ec 0f       	add	r30, r28
    25ce:	fd 1f       	adc	r31, r29
    25d0:	e6 59       	subi	r30, 0x96	; 150
    25d2:	fd 4f       	sbci	r31, 0xFD	; 253
			{
				p16f184xx_writeComm(0x00, 0, 0x00, exchange[i + k + 5], exchange[i + k + 4]);
    25d4:	04 81       	ldd	r16, Z+4	; 0x04
    25d6:	25 81       	ldd	r18, Z+5	; 0x05
    25d8:	40 e0       	ldi	r20, 0x00	; 0
    25da:	60 e0       	ldi	r22, 0x00	; 0
    25dc:	80 e0       	ldi	r24, 0x00	; 0
    25de:	0e 94 d4 02 	call	0x5a8	; 0x5a8 <p16f184xx_writeComm>
				if(k < (f_psize - 2)) p16f184xx_writeComm(0xF8, 1, 0x00, 0x00, 0x00);
    25e2:	80 91 12 03 	lds	r24, 0x0312	; 0x800312 <f_psize>
    25e6:	90 91 13 03 	lds	r25, 0x0313	; 0x800313 <f_psize+0x1>
    25ea:	02 97       	sbiw	r24, 0x02	; 2
    25ec:	e8 16       	cp	r14, r24
    25ee:	f9 06       	cpc	r15, r25
    25f0:	38 f4       	brcc	.+14     	; 0x2600 <p16f184xx_progCode+0xd6>
    25f2:	00 e0       	ldi	r16, 0x00	; 0
    25f4:	20 e0       	ldi	r18, 0x00	; 0
    25f6:	40 e0       	ldi	r20, 0x00	; 0
    25f8:	61 e0       	ldi	r22, 0x01	; 1
    25fa:	88 ef       	ldi	r24, 0xF8	; 248
    25fc:	0e 94 d4 02 	call	0x5a8	; 0x5a8 <p16f184xx_writeComm>
		m_a = (main_counter >> 8) & 0xFF;
		l_a = main_counter & 0xFF;

		p16f184xx_writeComm(0x80, 0, h_a, m_a, l_a);

		for(int k = 0; k < f_psize; k+= 2)
    2600:	82 e0       	ldi	r24, 0x02	; 2
    2602:	e8 0e       	add	r14, r24
    2604:	f1 1c       	adc	r15, r1
    2606:	da cf       	rjmp	.-76     	; 0x25bc <p16f184xx_progCode+0x92>
			{
				p16f184xx_writeComm(0x00, 0, 0x00, exchange[i + k + 5], exchange[i + k + 4]);
				if(k < (f_psize - 2)) p16f184xx_writeComm(0xF8, 1, 0x00, 0x00, 0x00);
			}
		p16f184xx_writeComm(0xE0, 1, 0x00, 0x00, 0x00);
    2608:	00 e0       	ldi	r16, 0x00	; 0
    260a:	20 e0       	ldi	r18, 0x00	; 0
    260c:	40 e0       	ldi	r20, 0x00	; 0
    260e:	61 e0       	ldi	r22, 0x01	; 1
    2610:	80 ee       	ldi	r24, 0xE0	; 224
    2612:	0e 94 d4 02 	call	0x5a8	; 0x5a8 <p16f184xx_writeComm>
		delay_ms(wr_delay);
    2616:	80 91 0e 03 	lds	r24, 0x030E	; 0x80030e <wr_delay>
    261a:	90 91 0f 03 	lds	r25, 0x030F	; 0x80030f <wr_delay+0x1>
    261e:	0e 94 73 01 	call	0x2e6	; 0x2e6 <delay_ms>

		main_counter += f_psize/2;
    2622:	20 91 12 03 	lds	r18, 0x0312	; 0x800312 <f_psize>
    2626:	30 91 13 03 	lds	r19, 0x0313	; 0x800313 <f_psize+0x1>
    262a:	36 95       	lsr	r19
    262c:	27 95       	ror	r18
    262e:	80 91 06 03 	lds	r24, 0x0306	; 0x800306 <main_counter>
    2632:	90 91 07 03 	lds	r25, 0x0307	; 0x800307 <main_counter+0x1>
    2636:	a0 91 08 03 	lds	r26, 0x0308	; 0x800308 <main_counter+0x2>
    263a:	b0 91 09 03 	lds	r27, 0x0309	; 0x800309 <main_counter+0x3>
    263e:	82 0f       	add	r24, r18
    2640:	93 1f       	adc	r25, r19
    2642:	a1 1d       	adc	r26, r1
    2644:	b1 1d       	adc	r27, r1
    2646:	80 93 06 03 	sts	0x0306, r24	; 0x800306 <main_counter>
    264a:	90 93 07 03 	sts	0x0307, r25	; 0x800307 <main_counter+0x1>
    264e:	a0 93 08 03 	sts	0x0308, r26	; 0x800308 <main_counter+0x2>
    2652:	b0 93 09 03 	sts	0x0309, r27	; 0x800309 <main_counter+0x3>
	int ff_val;
	uint16_t tmp_a;
	uint8_t l_a, h_a, m_a;


	for(int i = 0; i < 128; i+= f_psize)
    2656:	80 91 12 03 	lds	r24, 0x0312	; 0x800312 <f_psize>
    265a:	90 91 13 03 	lds	r25, 0x0313	; 0x800313 <f_psize+0x1>
    265e:	c8 0f       	add	r28, r24
    2660:	d9 1f       	adc	r29, r25
    2662:	c0 38       	cpi	r28, 0x80	; 128
    2664:	d1 05       	cpc	r29, r1
    2666:	0c f4       	brge	.+2      	; 0x266a <p16f184xx_progCode+0x140>
    2668:	68 cf       	rjmp	.-304    	; 0x253a <p16f184xx_progCode+0x10>
		p16f184xx_writeComm(0xE0, 1, 0x00, 0x00, 0x00);
		delay_ms(wr_delay);

		main_counter += f_psize/2;
	}
}
    266a:	df 91       	pop	r29
    266c:	cf 91       	pop	r28
    266e:	1f 91       	pop	r17
    2670:	0f 91       	pop	r16
    2672:	ff 90       	pop	r15
    2674:	ef 90       	pop	r14
    2676:	08 95       	ret

00002678 <p18fxxq10_progCode>:

void p18fxxq10_progCode(void)
{
    2678:	0f 93       	push	r16
    267a:	cf 93       	push	r28
    267c:	df 93       	push	r29
	for(int i = 0; i < 128; i+= 2)
    267e:	c0 e0       	ldi	r28, 0x00	; 0
    2680:	d0 e0       	ldi	r29, 0x00	; 0
    2682:	fe 01       	movw	r30, r28
    2684:	e6 59       	subi	r30, 0x96	; 150
    2686:	fd 4f       	sbci	r31, 0xFD	; 253
	{
		if((exchange[i + 4] | (exchange[i + 5] << 8)) == 0xFFFF)
    2688:	04 81       	ldd	r16, Z+4	; 0x04
    268a:	25 81       	ldd	r18, Z+5	; 0x05
    268c:	80 2f       	mov	r24, r16
    268e:	90 e0       	ldi	r25, 0x00	; 0
    2690:	92 2b       	or	r25, r18
    2692:	01 96       	adiw	r24, 0x01	; 1
    2694:	41 f4       	brne	.+16     	; 0x26a6 <p18fxxq10_progCode+0x2e>
		{
			p16f184xx_writeComm(0xF8, 1, 0x00, 0x00, 0x00); //Inc ADD
    2696:	00 e0       	ldi	r16, 0x00	; 0
    2698:	20 e0       	ldi	r18, 0x00	; 0
    269a:	40 e0       	ldi	r20, 0x00	; 0
    269c:	61 e0       	ldi	r22, 0x01	; 1
    269e:	88 ef       	ldi	r24, 0xF8	; 248
    26a0:	0e 94 d4 02 	call	0x5a8	; 0x5a8 <p16f184xx_writeComm>
			continue;
    26a4:	0b c0       	rjmp	.+22     	; 0x26bc <p18fxxq10_progCode+0x44>
		}
		else
		{
			p16f184xx_writeComm(0xE0, 0, 0x00, exchange[5 + i], exchange[4 + i]);
    26a6:	40 e0       	ldi	r20, 0x00	; 0
    26a8:	60 e0       	ldi	r22, 0x00	; 0
    26aa:	80 ee       	ldi	r24, 0xE0	; 224
    26ac:	0e 94 d4 02 	call	0x5a8	; 0x5a8 <p16f184xx_writeComm>
			delay_ms(wr_delay);
    26b0:	80 91 0e 03 	lds	r24, 0x030E	; 0x80030e <wr_delay>
    26b4:	90 91 0f 03 	lds	r25, 0x030F	; 0x80030f <wr_delay+0x1>
    26b8:	0e 94 73 01 	call	0x2e6	; 0x2e6 <delay_ms>
	}
}

void p18fxxq10_progCode(void)
{
	for(int i = 0; i < 128; i+= 2)
    26bc:	22 96       	adiw	r28, 0x02	; 2
    26be:	c0 38       	cpi	r28, 0x80	; 128
    26c0:	d1 05       	cpc	r29, r1
    26c2:	f9 f6       	brne	.-66     	; 0x2682 <p18fxxq10_progCode+0xa>
		{
			p16f184xx_writeComm(0xE0, 0, 0x00, exchange[5 + i], exchange[4 + i]);
			delay_ms(wr_delay);
		}
	}
}
    26c4:	df 91       	pop	r29
    26c6:	cf 91       	pop	r28
    26c8:	0f 91       	pop	r16
    26ca:	08 95       	ret

000026cc <p18fx5xx_progCode>:

#ifdef PIC18FX5XX
void p18fx5xx_progCode(void)
{
    26cc:	ef 92       	push	r14
    26ce:	ff 92       	push	r15
    26d0:	0f 93       	push	r16
    26d2:	1f 93       	push	r17
    26d4:	cf 93       	push	r28
    26d6:	df 93       	push	r29
	uint8_t h_a, m_a, l_a;
	uint16_t  tmp_a;
	int ff_val;

	for(int i = 0; i < 128; i+= f_psize)
    26d8:	c0 e0       	ldi	r28, 0x00	; 0
    26da:	d0 e0       	ldi	r29, 0x00	; 0
	{
		ff_val = 0;
		for(int k = 0; k < f_psize; k+= 2)
    26dc:	40 91 12 03 	lds	r20, 0x0312	; 0x800312 <f_psize>
    26e0:	50 91 13 03 	lds	r21, 0x0313	; 0x800313 <f_psize+0x1>
    26e4:	20 e0       	ldi	r18, 0x00	; 0
    26e6:	30 e0       	ldi	r19, 0x00	; 0
    26e8:	80 e0       	ldi	r24, 0x00	; 0
    26ea:	90 e0       	ldi	r25, 0x00	; 0
    26ec:	24 17       	cp	r18, r20
    26ee:	35 07       	cpc	r19, r21
    26f0:	78 f4       	brcc	.+30     	; 0x2710 <p18fx5xx_progCode+0x44>
    26f2:	f9 01       	movw	r30, r18
    26f4:	ec 0f       	add	r30, r28
    26f6:	fd 1f       	adc	r31, r29
    26f8:	e6 59       	subi	r30, 0x96	; 150
    26fa:	fd 4f       	sbci	r31, 0xFD	; 253
		{
			if(exchange[i + k + 4] == 0xFF && exchange[i + k + 5] == 0xFF) ff_val += 2;
    26fc:	64 81       	ldd	r22, Z+4	; 0x04
    26fe:	6f 3f       	cpi	r22, 0xFF	; 255
    2700:	21 f4       	brne	.+8      	; 0x270a <p18fx5xx_progCode+0x3e>
    2702:	65 81       	ldd	r22, Z+5	; 0x05
    2704:	6f 3f       	cpi	r22, 0xFF	; 255
    2706:	09 f4       	brne	.+2      	; 0x270a <p18fx5xx_progCode+0x3e>
    2708:	02 96       	adiw	r24, 0x02	; 2
	int ff_val;

	for(int i = 0; i < 128; i+= f_psize)
	{
		ff_val = 0;
		for(int k = 0; k < f_psize; k+= 2)
    270a:	2e 5f       	subi	r18, 0xFE	; 254
    270c:	3f 4f       	sbci	r19, 0xFF	; 255
    270e:	ee cf       	rjmp	.-36     	; 0x26ec <p18fx5xx_progCode+0x20>
		{
			if(exchange[i + k + 4] == 0xFF && exchange[i + k + 5] == 0xFF) ff_val += 2;
		}
		if(ff_val == f_psize) {main_counter += f_psize; continue;}
    2710:	84 17       	cp	r24, r20
    2712:	95 07       	cpc	r25, r21
    2714:	b9 f4       	brne	.+46     	; 0x2744 <p18fx5xx_progCode+0x78>
    2716:	40 91 06 03 	lds	r20, 0x0306	; 0x800306 <main_counter>
    271a:	50 91 07 03 	lds	r21, 0x0307	; 0x800307 <main_counter+0x1>
    271e:	60 91 08 03 	lds	r22, 0x0308	; 0x800308 <main_counter+0x2>
    2722:	70 91 09 03 	lds	r23, 0x0309	; 0x800309 <main_counter+0x3>
    2726:	8a 01       	movw	r16, r20
    2728:	9b 01       	movw	r18, r22
    272a:	08 0f       	add	r16, r24
    272c:	19 1f       	adc	r17, r25
    272e:	21 1d       	adc	r18, r1
    2730:	31 1d       	adc	r19, r1
    2732:	00 93 06 03 	sts	0x0306, r16	; 0x800306 <main_counter>
    2736:	10 93 07 03 	sts	0x0307, r17	; 0x800307 <main_counter+0x1>
    273a:	20 93 08 03 	sts	0x0308, r18	; 0x800308 <main_counter+0x2>
    273e:	30 93 09 03 	sts	0x0309, r19	; 0x800309 <main_counter+0x3>
    2742:	77 c0       	rjmp	.+238    	; 0x2832 <p18fx5xx_progCode+0x166>

		progMode();
    2744:	0e 94 60 05 	call	0xac0	; 0xac0 <progMode>

		p18fx5xx_writeComm(P18FX5XX_CORE_INSTR, 0x8EA6);
    2748:	66 ea       	ldi	r22, 0xA6	; 166
    274a:	7e e8       	ldi	r23, 0x8E	; 142
    274c:	80 e0       	ldi	r24, 0x00	; 0
    274e:	0e 94 6b 04 	call	0x8d6	; 0x8d6 <p18fx5xx_writeComm>
		p18fx5xx_writeComm(P18FX5XX_CORE_INSTR, 0x9CA6);
    2752:	66 ea       	ldi	r22, 0xA6	; 166
    2754:	7c e9       	ldi	r23, 0x9C	; 156
    2756:	80 e0       	ldi	r24, 0x00	; 0
    2758:	0e 94 6b 04 	call	0x8d6	; 0x8d6 <p18fx5xx_writeComm>
		if(device == 0x10) p18fx5xx_writeComm(P18FX5XX_CORE_INSTR, 0x84A6);
    275c:	80 91 17 03 	lds	r24, 0x0317	; 0x800317 <device>
    2760:	80 31       	cpi	r24, 0x10	; 16
    2762:	29 f4       	brne	.+10     	; 0x276e <p18fx5xx_progCode+0xa2>
    2764:	66 ea       	ldi	r22, 0xA6	; 166
    2766:	74 e8       	ldi	r23, 0x84	; 132
    2768:	80 e0       	ldi	r24, 0x00	; 0
    276a:	0e 94 6b 04 	call	0x8d6	; 0x8d6 <p18fx5xx_writeComm>

		tmp_a = main_counter >> 8;
    276e:	40 91 06 03 	lds	r20, 0x0306	; 0x800306 <main_counter>
    2772:	50 91 07 03 	lds	r21, 0x0307	; 0x800307 <main_counter+0x1>
    2776:	60 91 08 03 	lds	r22, 0x0308	; 0x800308 <main_counter+0x2>
    277a:	70 91 09 03 	lds	r23, 0x0309	; 0x800309 <main_counter+0x3>
    277e:	bb 27       	eor	r27, r27
    2780:	a7 2f       	mov	r26, r23
    2782:	96 2f       	mov	r25, r22
    2784:	85 2f       	mov	r24, r21
		h_a = tmp_a >> 8;
		m_a = (main_counter >> 8) & 0xFF;
		l_a = main_counter & 0xFF;


		p18fx5xx_setDP(h_a, m_a, l_a);
    2786:	68 2f       	mov	r22, r24
    2788:	89 2f       	mov	r24, r25
    278a:	0e 94 ff 05 	call	0xbfe	; 0xbfe <p18fx5xx_setDP>
    278e:	8e 01       	movw	r16, r28
    2790:	01 59       	subi	r16, 0x91	; 145
    2792:	1d 4f       	sbci	r17, 0xFD	; 253
		for(int k = 0; k < f_psize; k+= 2)
    2794:	e1 2c       	mov	r14, r1
    2796:	f1 2c       	mov	r15, r1
    2798:	80 91 12 03 	lds	r24, 0x0312	; 0x800312 <f_psize>
    279c:	90 91 13 03 	lds	r25, 0x0313	; 0x800313 <f_psize+0x1>
    27a0:	e8 16       	cp	r14, r24
    27a2:	f9 06       	cpc	r15, r25
    27a4:	d0 f4       	brcc	.+52     	; 0x27da <p18fx5xx_progCode+0x10e>
		{
			if(k >= (f_psize - 2)) p18fx5xx_writeComm(P18FX5XX_START_PR, exchange[i + k + 4] | (exchange[i + k + 5] << 8));
    27a6:	02 97       	sbiw	r24, 0x02	; 2
    27a8:	f8 01       	movw	r30, r16
    27aa:	31 97       	sbiw	r30, 0x01	; 1
    27ac:	d8 01       	movw	r26, r16
    27ae:	6c 91       	ld	r22, X
    27b0:	70 e0       	ldi	r23, 0x00	; 0
    27b2:	76 2f       	mov	r23, r22
    27b4:	66 27       	eor	r22, r22
    27b6:	e8 16       	cp	r14, r24
    27b8:	f9 06       	cpc	r15, r25
    27ba:	20 f0       	brcs	.+8      	; 0x27c4 <p18fx5xx_progCode+0xf8>
    27bc:	80 81       	ld	r24, Z
    27be:	68 2b       	or	r22, r24
    27c0:	8f e0       	ldi	r24, 0x0F	; 15
    27c2:	03 c0       	rjmp	.+6      	; 0x27ca <p18fx5xx_progCode+0xfe>
			else p18fx5xx_writeComm(P18FX5XX_TABLE_WRPI2, exchange[i + k + 4] | (exchange[i + k + 5] << 8));
    27c4:	80 81       	ld	r24, Z
    27c6:	68 2b       	or	r22, r24
    27c8:	8d e0       	ldi	r24, 0x0D	; 13
    27ca:	0e 94 6b 04 	call	0x8d6	; 0x8d6 <p18fx5xx_writeComm>
		m_a = (main_counter >> 8) & 0xFF;
		l_a = main_counter & 0xFF;


		p18fx5xx_setDP(h_a, m_a, l_a);
		for(int k = 0; k < f_psize; k+= 2)
    27ce:	b2 e0       	ldi	r27, 0x02	; 2
    27d0:	eb 0e       	add	r14, r27
    27d2:	f1 1c       	adc	r15, r1
    27d4:	0e 5f       	subi	r16, 0xFE	; 254
    27d6:	1f 4f       	sbci	r17, 0xFF	; 255
    27d8:	df cf       	rjmp	.-66     	; 0x2798 <p18fx5xx_progCode+0xcc>
		{
			if(k >= (f_psize - 2)) p18fx5xx_writeComm(P18FX5XX_START_PR, exchange[i + k + 4] | (exchange[i + k + 5] << 8));
			else p18fx5xx_writeComm(P18FX5XX_TABLE_WRPI2, exchange[i + k + 4] | (exchange[i + k + 5] << 8));
		}

		p18fx5xx_writeNop();
    27da:	0e 94 ce 04 	call	0x99c	; 0x99c <p18fx5xx_writeNop>
		p18fx5xx_writeComm(P18FX5XX_CORE_INSTR, 0x0000);
    27de:	60 e0       	ldi	r22, 0x00	; 0
    27e0:	70 e0       	ldi	r23, 0x00	; 0
    27e2:	80 e0       	ldi	r24, 0x00	; 0
    27e4:	0e 94 6b 04 	call	0x8d6	; 0x8d6 <p18fx5xx_writeComm>
		p18fx5xx_writeComm(P18FX5XX_CORE_INSTR, 0x0000);
    27e8:	60 e0       	ldi	r22, 0x00	; 0
    27ea:	70 e0       	ldi	r23, 0x00	; 0
    27ec:	80 e0       	ldi	r24, 0x00	; 0
    27ee:	0e 94 6b 04 	call	0x8d6	; 0x8d6 <p18fx5xx_writeComm>

		main_counter += f_psize;
    27f2:	20 91 12 03 	lds	r18, 0x0312	; 0x800312 <f_psize>
    27f6:	30 91 13 03 	lds	r19, 0x0313	; 0x800313 <f_psize+0x1>
    27fa:	80 91 06 03 	lds	r24, 0x0306	; 0x800306 <main_counter>
    27fe:	90 91 07 03 	lds	r25, 0x0307	; 0x800307 <main_counter+0x1>
    2802:	a0 91 08 03 	lds	r26, 0x0308	; 0x800308 <main_counter+0x2>
    2806:	b0 91 09 03 	lds	r27, 0x0309	; 0x800309 <main_counter+0x3>
    280a:	82 0f       	add	r24, r18
    280c:	93 1f       	adc	r25, r19
    280e:	a1 1d       	adc	r26, r1
    2810:	b1 1d       	adc	r27, r1
    2812:	80 93 06 03 	sts	0x0306, r24	; 0x800306 <main_counter>
    2816:	90 93 07 03 	sts	0x0307, r25	; 0x800307 <main_counter+0x1>
    281a:	a0 93 08 03 	sts	0x0308, r26	; 0x800308 <main_counter+0x2>
    281e:	b0 93 09 03 	sts	0x0309, r27	; 0x800309 <main_counter+0x3>
		reset();
    2822:	0e 94 45 06 	call	0xc8a	; 0xc8a <reset>
	#else
		//round up by default
		__ticks_dc = (uint32_t)(ceil(fabs(__tmp)));
	#endif

	__builtin_avr_delay_cycles(__ticks_dc);
    2826:	8f e3       	ldi	r24, 0x3F	; 63
    2828:	9f e1       	ldi	r25, 0x1F	; 31
    282a:	01 97       	sbiw	r24, 0x01	; 1
    282c:	f1 f7       	brne	.-4      	; 0x282a <p18fx5xx_progCode+0x15e>
    282e:	00 c0       	rjmp	.+0      	; 0x2830 <p18fx5xx_progCode+0x164>
    2830:	00 00       	nop
{
	uint8_t h_a, m_a, l_a;
	uint16_t  tmp_a;
	int ff_val;

	for(int i = 0; i < 128; i+= f_psize)
    2832:	80 91 12 03 	lds	r24, 0x0312	; 0x800312 <f_psize>
    2836:	90 91 13 03 	lds	r25, 0x0313	; 0x800313 <f_psize+0x1>
    283a:	c8 0f       	add	r28, r24
    283c:	d9 1f       	adc	r29, r25
    283e:	c0 38       	cpi	r28, 0x80	; 128
    2840:	d1 05       	cpc	r29, r1
    2842:	0c f4       	brge	.+2      	; 0x2846 <p18fx5xx_progCode+0x17a>
    2844:	4b cf       	rjmp	.-362    	; 0x26dc <p18fx5xx_progCode+0x10>
		main_counter += f_psize;
		reset();

		_delay_ms(2);
	}
}
    2846:	df 91       	pop	r29
    2848:	cf 91       	pop	r28
    284a:	1f 91       	pop	r17
    284c:	0f 91       	pop	r16
    284e:	ff 90       	pop	r15
    2850:	ef 90       	pop	r14
    2852:	08 95       	ret

00002854 <p18fxxk80_progCode>:
#endif

#ifdef PIC18FXXK80
void p18fxxk80_progCode(void)
{
    2854:	ef 92       	push	r14
    2856:	ff 92       	push	r15
    2858:	0f 93       	push	r16
    285a:	1f 93       	push	r17
    285c:	cf 93       	push	r28
    285e:	df 93       	push	r29
	uint8_t h_a, m_a, l_a;
	uint16_t  tmp_a;
	int ff_val;

	for(int i = 0; i < 128; i+= f_psize)
    2860:	c0 e0       	ldi	r28, 0x00	; 0
    2862:	d0 e0       	ldi	r29, 0x00	; 0
	{
		ff_val = 0;
		for(int k = 0; k < f_psize; k+= 2)
    2864:	40 91 12 03 	lds	r20, 0x0312	; 0x800312 <f_psize>
    2868:	50 91 13 03 	lds	r21, 0x0313	; 0x800313 <f_psize+0x1>
    286c:	20 e0       	ldi	r18, 0x00	; 0
    286e:	30 e0       	ldi	r19, 0x00	; 0
    2870:	80 e0       	ldi	r24, 0x00	; 0
    2872:	90 e0       	ldi	r25, 0x00	; 0
    2874:	24 17       	cp	r18, r20
    2876:	35 07       	cpc	r19, r21
    2878:	78 f4       	brcc	.+30     	; 0x2898 <p18fxxk80_progCode+0x44>
    287a:	f9 01       	movw	r30, r18
    287c:	ec 0f       	add	r30, r28
    287e:	fd 1f       	adc	r31, r29
    2880:	e6 59       	subi	r30, 0x96	; 150
    2882:	fd 4f       	sbci	r31, 0xFD	; 253
		{
			if(exchange[i + k + 4] == 0xFF && exchange[i + k + 5] == 0xFF) ff_val += 2;
    2884:	64 81       	ldd	r22, Z+4	; 0x04
    2886:	6f 3f       	cpi	r22, 0xFF	; 255
    2888:	21 f4       	brne	.+8      	; 0x2892 <p18fxxk80_progCode+0x3e>
    288a:	65 81       	ldd	r22, Z+5	; 0x05
    288c:	6f 3f       	cpi	r22, 0xFF	; 255
    288e:	09 f4       	brne	.+2      	; 0x2892 <p18fxxk80_progCode+0x3e>
    2890:	02 96       	adiw	r24, 0x02	; 2
	int ff_val;

	for(int i = 0; i < 128; i+= f_psize)
	{
		ff_val = 0;
		for(int k = 0; k < f_psize; k+= 2)
    2892:	2e 5f       	subi	r18, 0xFE	; 254
    2894:	3f 4f       	sbci	r19, 0xFF	; 255
    2896:	ee cf       	rjmp	.-36     	; 0x2874 <p18fxxk80_progCode+0x20>
		{
			if(exchange[i + k + 4] == 0xFF && exchange[i + k + 5] == 0xFF) ff_val += 2;
		}
		if(ff_val == f_psize) {main_counter += f_psize; continue;}
    2898:	84 17       	cp	r24, r20
    289a:	95 07       	cpc	r25, r21
    289c:	b9 f4       	brne	.+46     	; 0x28cc <p18fxxk80_progCode+0x78>
    289e:	40 91 06 03 	lds	r20, 0x0306	; 0x800306 <main_counter>
    28a2:	50 91 07 03 	lds	r21, 0x0307	; 0x800307 <main_counter+0x1>
    28a6:	60 91 08 03 	lds	r22, 0x0308	; 0x800308 <main_counter+0x2>
    28aa:	70 91 09 03 	lds	r23, 0x0309	; 0x800309 <main_counter+0x3>
    28ae:	8a 01       	movw	r16, r20
    28b0:	9b 01       	movw	r18, r22
    28b2:	08 0f       	add	r16, r24
    28b4:	19 1f       	adc	r17, r25
    28b6:	21 1d       	adc	r18, r1
    28b8:	31 1d       	adc	r19, r1
    28ba:	00 93 06 03 	sts	0x0306, r16	; 0x800306 <main_counter>
    28be:	10 93 07 03 	sts	0x0307, r17	; 0x800307 <main_counter+0x1>
    28c2:	20 93 08 03 	sts	0x0308, r18	; 0x800308 <main_counter+0x2>
    28c6:	30 93 09 03 	sts	0x0309, r19	; 0x800309 <main_counter+0x3>
    28ca:	73 c0       	rjmp	.+230    	; 0x29b2 <p18fxxk80_progCode+0x15e>

		progMode();
    28cc:	0e 94 60 05 	call	0xac0	; 0xac0 <progMode>

		p18fx5xx_writeComm(P18FX5XX_CORE_INSTR, 0x8E7F);
    28d0:	6f e7       	ldi	r22, 0x7F	; 127
    28d2:	7e e8       	ldi	r23, 0x8E	; 142
    28d4:	80 e0       	ldi	r24, 0x00	; 0
    28d6:	0e 94 6b 04 	call	0x8d6	; 0x8d6 <p18fx5xx_writeComm>
		p18fx5xx_writeComm(P18FX5XX_CORE_INSTR, 0x9C7F);
    28da:	6f e7       	ldi	r22, 0x7F	; 127
    28dc:	7c e9       	ldi	r23, 0x9C	; 156
    28de:	80 e0       	ldi	r24, 0x00	; 0
    28e0:	0e 94 6b 04 	call	0x8d6	; 0x8d6 <p18fx5xx_writeComm>
		p18fx5xx_writeComm(P18FX5XX_CORE_INSTR, 0x847F);
    28e4:	6f e7       	ldi	r22, 0x7F	; 127
    28e6:	74 e8       	ldi	r23, 0x84	; 132
    28e8:	80 e0       	ldi	r24, 0x00	; 0
    28ea:	0e 94 6b 04 	call	0x8d6	; 0x8d6 <p18fx5xx_writeComm>

		tmp_a = main_counter >> 8;
    28ee:	40 91 06 03 	lds	r20, 0x0306	; 0x800306 <main_counter>
    28f2:	50 91 07 03 	lds	r21, 0x0307	; 0x800307 <main_counter+0x1>
    28f6:	60 91 08 03 	lds	r22, 0x0308	; 0x800308 <main_counter+0x2>
    28fa:	70 91 09 03 	lds	r23, 0x0309	; 0x800309 <main_counter+0x3>
    28fe:	bb 27       	eor	r27, r27
    2900:	a7 2f       	mov	r26, r23
    2902:	96 2f       	mov	r25, r22
    2904:	85 2f       	mov	r24, r21
		h_a = tmp_a >> 8;
		m_a = (main_counter >> 8) & 0xFF;
		l_a = main_counter & 0xFF;


		p18fx5xx_setDP(h_a, m_a, l_a);
    2906:	68 2f       	mov	r22, r24
    2908:	89 2f       	mov	r24, r25
    290a:	0e 94 ff 05 	call	0xbfe	; 0xbfe <p18fx5xx_setDP>
    290e:	8e 01       	movw	r16, r28
    2910:	01 59       	subi	r16, 0x91	; 145
    2912:	1d 4f       	sbci	r17, 0xFD	; 253
		for(int k = 0; k < f_psize; k+= 2)
    2914:	e1 2c       	mov	r14, r1
    2916:	f1 2c       	mov	r15, r1
    2918:	80 91 12 03 	lds	r24, 0x0312	; 0x800312 <f_psize>
    291c:	90 91 13 03 	lds	r25, 0x0313	; 0x800313 <f_psize+0x1>
    2920:	e8 16       	cp	r14, r24
    2922:	f9 06       	cpc	r15, r25
    2924:	d0 f4       	brcc	.+52     	; 0x295a <p18fxxk80_progCode+0x106>
		{
			if(k >= (f_psize - 2)) p18fx5xx_writeComm(P18FX5XX_START_PR, exchange[i + k + 4] | (exchange[i + k + 5] << 8));
    2926:	02 97       	sbiw	r24, 0x02	; 2
    2928:	f8 01       	movw	r30, r16
    292a:	31 97       	sbiw	r30, 0x01	; 1
    292c:	d8 01       	movw	r26, r16
    292e:	6c 91       	ld	r22, X
    2930:	70 e0       	ldi	r23, 0x00	; 0
    2932:	76 2f       	mov	r23, r22
    2934:	66 27       	eor	r22, r22
    2936:	e8 16       	cp	r14, r24
    2938:	f9 06       	cpc	r15, r25
    293a:	20 f0       	brcs	.+8      	; 0x2944 <p18fxxk80_progCode+0xf0>
    293c:	80 81       	ld	r24, Z
    293e:	68 2b       	or	r22, r24
    2940:	8f e0       	ldi	r24, 0x0F	; 15
    2942:	03 c0       	rjmp	.+6      	; 0x294a <p18fxxk80_progCode+0xf6>
			else p18fx5xx_writeComm(P18FX5XX_TABLE_WRPI2, exchange[i + k + 4] | (exchange[i + k + 5] << 8));
    2944:	80 81       	ld	r24, Z
    2946:	68 2b       	or	r22, r24
    2948:	8d e0       	ldi	r24, 0x0D	; 13
    294a:	0e 94 6b 04 	call	0x8d6	; 0x8d6 <p18fx5xx_writeComm>
		m_a = (main_counter >> 8) & 0xFF;
		l_a = main_counter & 0xFF;


		p18fx5xx_setDP(h_a, m_a, l_a);
		for(int k = 0; k < f_psize; k+= 2)
    294e:	b2 e0       	ldi	r27, 0x02	; 2
    2950:	eb 0e       	add	r14, r27
    2952:	f1 1c       	adc	r15, r1
    2954:	0e 5f       	subi	r16, 0xFE	; 254
    2956:	1f 4f       	sbci	r17, 0xFF	; 255
    2958:	df cf       	rjmp	.-66     	; 0x2918 <p18fxxk80_progCode+0xc4>
		{
			if(k >= (f_psize - 2)) p18fx5xx_writeComm(P18FX5XX_START_PR, exchange[i + k + 4] | (exchange[i + k + 5] << 8));
			else p18fx5xx_writeComm(P18FX5XX_TABLE_WRPI2, exchange[i + k + 4] | (exchange[i + k + 5] << 8));
		}

		p18fx5xx_writeNop();
    295a:	0e 94 ce 04 	call	0x99c	; 0x99c <p18fx5xx_writeNop>
		p18fx5xx_writeComm(P18FX5XX_CORE_INSTR, 0x0000);
    295e:	60 e0       	ldi	r22, 0x00	; 0
    2960:	70 e0       	ldi	r23, 0x00	; 0
    2962:	80 e0       	ldi	r24, 0x00	; 0
    2964:	0e 94 6b 04 	call	0x8d6	; 0x8d6 <p18fx5xx_writeComm>
		p18fx5xx_writeComm(P18FX5XX_CORE_INSTR, 0x0000);
    2968:	60 e0       	ldi	r22, 0x00	; 0
    296a:	70 e0       	ldi	r23, 0x00	; 0
    296c:	80 e0       	ldi	r24, 0x00	; 0
    296e:	0e 94 6b 04 	call	0x8d6	; 0x8d6 <p18fx5xx_writeComm>

		main_counter += f_psize;
    2972:	20 91 12 03 	lds	r18, 0x0312	; 0x800312 <f_psize>
    2976:	30 91 13 03 	lds	r19, 0x0313	; 0x800313 <f_psize+0x1>
    297a:	80 91 06 03 	lds	r24, 0x0306	; 0x800306 <main_counter>
    297e:	90 91 07 03 	lds	r25, 0x0307	; 0x800307 <main_counter+0x1>
    2982:	a0 91 08 03 	lds	r26, 0x0308	; 0x800308 <main_counter+0x2>
    2986:	b0 91 09 03 	lds	r27, 0x0309	; 0x800309 <main_counter+0x3>
    298a:	82 0f       	add	r24, r18
    298c:	93 1f       	adc	r25, r19
    298e:	a1 1d       	adc	r26, r1
    2990:	b1 1d       	adc	r27, r1
    2992:	80 93 06 03 	sts	0x0306, r24	; 0x800306 <main_counter>
    2996:	90 93 07 03 	sts	0x0307, r25	; 0x800307 <main_counter+0x1>
    299a:	a0 93 08 03 	sts	0x0308, r26	; 0x800308 <main_counter+0x2>
    299e:	b0 93 09 03 	sts	0x0309, r27	; 0x800309 <main_counter+0x3>
		reset();
    29a2:	0e 94 45 06 	call	0xc8a	; 0xc8a <reset>
    29a6:	8f e3       	ldi	r24, 0x3F	; 63
    29a8:	9f e1       	ldi	r25, 0x1F	; 31
    29aa:	01 97       	sbiw	r24, 0x01	; 1
    29ac:	f1 f7       	brne	.-4      	; 0x29aa <p18fxxk80_progCode+0x156>
    29ae:	00 c0       	rjmp	.+0      	; 0x29b0 <p18fxxk80_progCode+0x15c>
    29b0:	00 00       	nop
{
	uint8_t h_a, m_a, l_a;
	uint16_t  tmp_a;
	int ff_val;

	for(int i = 0; i < 128; i+= f_psize)
    29b2:	80 91 12 03 	lds	r24, 0x0312	; 0x800312 <f_psize>
    29b6:	90 91 13 03 	lds	r25, 0x0313	; 0x800313 <f_psize+0x1>
    29ba:	c8 0f       	add	r28, r24
    29bc:	d9 1f       	adc	r29, r25
    29be:	c0 38       	cpi	r28, 0x80	; 128
    29c0:	d1 05       	cpc	r29, r1
    29c2:	0c f4       	brge	.+2      	; 0x29c6 <p18fxxk80_progCode+0x172>
    29c4:	4f cf       	rjmp	.-354    	; 0x2864 <p18fxxk80_progCode+0x10>
		main_counter += f_psize;
		reset();

		_delay_ms(2);
	}
}
    29c6:	df 91       	pop	r29
    29c8:	cf 91       	pop	r28
    29ca:	1f 91       	pop	r17
    29cc:	0f 91       	pop	r16
    29ce:	ff 90       	pop	r15
    29d0:	ef 90       	pop	r14
    29d2:	08 95       	ret

000029d4 <p16f628a_progData>:
#endif

void p16f628a_progData(void)
{
    29d4:	cf 93       	push	r28
    29d6:	df 93       	push	r29
    29d8:	ce e6       	ldi	r28, 0x6E	; 110
    29da:	d2 e0       	ldi	r29, 0x02	; 2
	for(int i = 0; i < 64; i++)
	{
			if(exchange[i + 4] == 0xFF)
    29dc:	69 91       	ld	r22, Y+
    29de:	6f 3f       	cpi	r22, 0xFF	; 255
    29e0:	91 f0       	breq	.+36     	; 0x2a06 <p16f628a_progData+0x32>
				p16f7x_writeComm(P16F7X_INC_ADD, 0x0000, 1);
				continue;
			}
			else
			{
				p16f7x_writeComm(P16F628A_LOAD_DATA, exchange[i + 4], 0);
    29e2:	70 e0       	ldi	r23, 0x00	; 0
    29e4:	40 e0       	ldi	r20, 0x00	; 0
    29e6:	83 e0       	ldi	r24, 0x03	; 3
    29e8:	0e 94 c3 01 	call	0x386	; 0x386 <p16f7x_writeComm>
				p16f7x_writeComm(P16F7X_BEGIN_PROG, 0x0000, 1);
    29ec:	41 e0       	ldi	r20, 0x01	; 1
    29ee:	60 e0       	ldi	r22, 0x00	; 0
    29f0:	70 e0       	ldi	r23, 0x00	; 0
    29f2:	88 e0       	ldi	r24, 0x08	; 8
    29f4:	0e 94 c3 01 	call	0x386	; 0x386 <p16f7x_writeComm>
				delay_ms(wr_delay + 2);
    29f8:	80 91 0e 03 	lds	r24, 0x030E	; 0x80030e <wr_delay>
    29fc:	90 91 0f 03 	lds	r25, 0x030F	; 0x80030f <wr_delay+0x1>
    2a00:	02 96       	adiw	r24, 0x02	; 2
    2a02:	0e 94 73 01 	call	0x2e6	; 0x2e6 <delay_ms>
				p16f7x_writeComm(P16F7X_INC_ADD, 0x0000, 1);
    2a06:	41 e0       	ldi	r20, 0x01	; 1
    2a08:	60 e0       	ldi	r22, 0x00	; 0
    2a0a:	70 e0       	ldi	r23, 0x00	; 0
    2a0c:	86 e0       	ldi	r24, 0x06	; 6
    2a0e:	0e 94 c3 01 	call	0x386	; 0x386 <p16f7x_writeComm>
}
#endif

void p16f628a_progData(void)
{
	for(int i = 0; i < 64; i++)
    2a12:	82 e0       	ldi	r24, 0x02	; 2
    2a14:	ce 3a       	cpi	r28, 0xAE	; 174
    2a16:	d8 07       	cpc	r29, r24
    2a18:	09 f7       	brne	.-62     	; 0x29dc <p16f628a_progData+0x8>
				delay_ms(wr_delay + 2);
				p16f7x_writeComm(P16F7X_INC_ADD, 0x0000, 1);
			}

	}
}
    2a1a:	df 91       	pop	r29
    2a1c:	cf 91       	pop	r28
    2a1e:	08 95       	ret

00002a20 <p16f81x_progData>:

void p16f81x_progData(void)
{
    2a20:	cf 93       	push	r28
    2a22:	df 93       	push	r29
    2a24:	ce e6       	ldi	r28, 0x6E	; 110
    2a26:	d2 e0       	ldi	r29, 0x02	; 2
	for(int i = 0; i < 64; i++)
	{
			if(exchange[i + 4] == 0xFF)
    2a28:	69 91       	ld	r22, Y+
    2a2a:	6f 3f       	cpi	r22, 0xFF	; 255
    2a2c:	c1 f0       	breq	.+48     	; 0x2a5e <p16f81x_progData+0x3e>
				p16f7x_writeComm(P16F7X_INC_ADD, 0x0000, 1);
				continue;
			}
			else
			{
				p16f7x_writeComm(P16F628A_LOAD_DATA, exchange[i + 4], 0);
    2a2e:	70 e0       	ldi	r23, 0x00	; 0
    2a30:	40 e0       	ldi	r20, 0x00	; 0
    2a32:	83 e0       	ldi	r24, 0x03	; 3
    2a34:	0e 94 c3 01 	call	0x386	; 0x386 <p16f7x_writeComm>
				p16f7x_writeComm(18, 0x0000, 1);
    2a38:	41 e0       	ldi	r20, 0x01	; 1
    2a3a:	60 e0       	ldi	r22, 0x00	; 0
    2a3c:	70 e0       	ldi	r23, 0x00	; 0
    2a3e:	82 e1       	ldi	r24, 0x12	; 18
    2a40:	0e 94 c3 01 	call	0x386	; 0x386 <p16f7x_writeComm>
				delay_ms(wr_delay + 5);
    2a44:	80 91 0e 03 	lds	r24, 0x030E	; 0x80030e <wr_delay>
    2a48:	90 91 0f 03 	lds	r25, 0x030F	; 0x80030f <wr_delay+0x1>
    2a4c:	05 96       	adiw	r24, 0x05	; 5
    2a4e:	0e 94 73 01 	call	0x2e6	; 0x2e6 <delay_ms>
				p16f7x_writeComm(17, 0x0000, 1);
    2a52:	41 e0       	ldi	r20, 0x01	; 1
    2a54:	60 e0       	ldi	r22, 0x00	; 0
    2a56:	70 e0       	ldi	r23, 0x00	; 0
    2a58:	81 e1       	ldi	r24, 0x11	; 17
    2a5a:	0e 94 c3 01 	call	0x386	; 0x386 <p16f7x_writeComm>
				p16f7x_writeComm(P16F7X_INC_ADD, 0x0000, 1);
    2a5e:	41 e0       	ldi	r20, 0x01	; 1
    2a60:	60 e0       	ldi	r22, 0x00	; 0
    2a62:	70 e0       	ldi	r23, 0x00	; 0
    2a64:	86 e0       	ldi	r24, 0x06	; 6
    2a66:	0e 94 c3 01 	call	0x386	; 0x386 <p16f7x_writeComm>
	}
}

void p16f81x_progData(void)
{
	for(int i = 0; i < 64; i++)
    2a6a:	82 e0       	ldi	r24, 0x02	; 2
    2a6c:	ce 3a       	cpi	r28, 0xAE	; 174
    2a6e:	d8 07       	cpc	r29, r24
    2a70:	d9 f6       	brne	.-74     	; 0x2a28 <p16f81x_progData+0x8>
				p16f7x_writeComm(17, 0x0000, 1);
				p16f7x_writeComm(P16F7X_INC_ADD, 0x0000, 1);
			}

	}
}
    2a72:	df 91       	pop	r29
    2a74:	cf 91       	pop	r28
    2a76:	08 95       	ret

00002a78 <p16f183xx_progData>:


void p16f183xx_progData(void)
{
    2a78:	cf 93       	push	r28
    2a7a:	df 93       	push	r29
    2a7c:	ce e6       	ldi	r28, 0x6E	; 110
    2a7e:	d2 e0       	ldi	r29, 0x02	; 2
	for(int i = 0; i < 64; i++)
	{
			if(exchange[i + 4] == 0xFF)
    2a80:	69 91       	ld	r22, Y+
    2a82:	6f 3f       	cpi	r22, 0xFF	; 255
    2a84:	91 f0       	breq	.+36     	; 0x2aaa <p16f183xx_progData+0x32>
				p16f7x_writeComm(P16F7X_INC_ADD, 0x0000, 1);
				continue;
			}
			else
			{
				p16f7x_writeComm(0x02, exchange[i + 4], 0);
    2a86:	70 e0       	ldi	r23, 0x00	; 0
    2a88:	40 e0       	ldi	r20, 0x00	; 0
    2a8a:	82 e0       	ldi	r24, 0x02	; 2
    2a8c:	0e 94 c3 01 	call	0x386	; 0x386 <p16f7x_writeComm>
				p16f7x_writeComm(P16F7X_BEGIN_PROG, 0x0000, 1);
    2a90:	41 e0       	ldi	r20, 0x01	; 1
    2a92:	60 e0       	ldi	r22, 0x00	; 0
    2a94:	70 e0       	ldi	r23, 0x00	; 0
    2a96:	88 e0       	ldi	r24, 0x08	; 8
    2a98:	0e 94 c3 01 	call	0x386	; 0x386 <p16f7x_writeComm>
				delay_ms(wr_delay + 2);
    2a9c:	80 91 0e 03 	lds	r24, 0x030E	; 0x80030e <wr_delay>
    2aa0:	90 91 0f 03 	lds	r25, 0x030F	; 0x80030f <wr_delay+0x1>
    2aa4:	02 96       	adiw	r24, 0x02	; 2
    2aa6:	0e 94 73 01 	call	0x2e6	; 0x2e6 <delay_ms>
				p16f7x_writeComm(P16F7X_INC_ADD, 0x0000, 1);
    2aaa:	41 e0       	ldi	r20, 0x01	; 1
    2aac:	60 e0       	ldi	r22, 0x00	; 0
    2aae:	70 e0       	ldi	r23, 0x00	; 0
    2ab0:	86 e0       	ldi	r24, 0x06	; 6
    2ab2:	0e 94 c3 01 	call	0x386	; 0x386 <p16f7x_writeComm>
}


void p16f183xx_progData(void)
{
	for(int i = 0; i < 64; i++)
    2ab6:	82 e0       	ldi	r24, 0x02	; 2
    2ab8:	ce 3a       	cpi	r28, 0xAE	; 174
    2aba:	d8 07       	cpc	r29, r24
    2abc:	09 f7       	brne	.-62     	; 0x2a80 <p16f183xx_progData+0x8>
				delay_ms(wr_delay + 2);
				p16f7x_writeComm(P16F7X_INC_ADD, 0x0000, 1);
			}

	}
}
    2abe:	df 91       	pop	r29
    2ac0:	cf 91       	pop	r28
    2ac2:	08 95       	ret

00002ac4 <p16f184xx_progData>:

void p16f184xx_progData(void)
{
    2ac4:	0f 93       	push	r16
    2ac6:	cf 93       	push	r28
    2ac8:	df 93       	push	r29
    2aca:	ce e6       	ldi	r28, 0x6E	; 110
    2acc:	d2 e0       	ldi	r29, 0x02	; 2
	uint8_t tdat;
	for(int i = 0; i < 64; i++)
	{
		tdat = (p16f184xx_readComm(0xFC) & 0xFF);
    2ace:	8c ef       	ldi	r24, 0xFC	; 252
    2ad0:	0e 94 7c 03 	call	0x6f8	; 0x6f8 <p16f184xx_readComm>
		if(exchange[i + 4] == tdat)
    2ad4:	08 81       	ld	r16, Y
    2ad6:	08 17       	cp	r16, r24
    2ad8:	81 f1       	breq	.+96     	; 0x2b3a <p16f184xx_progData+0x76>
			p16f184xx_writeComm(0xF8, 1, 0x00, 0x00, 0x00);
			continue;
		}
		else
		{
			if(device == 0x12)
    2ada:	80 91 17 03 	lds	r24, 0x0317	; 0x800317 <device>
    2ade:	82 31       	cpi	r24, 0x12	; 18
    2ae0:	d1 f4       	brne	.+52     	; 0x2b16 <p16f184xx_progData+0x52>
			{
				p16f184xx_writeComm(0x00, 0, 0x00, 0x00, exchange[i + 4]);
    2ae2:	20 e0       	ldi	r18, 0x00	; 0
    2ae4:	40 e0       	ldi	r20, 0x00	; 0
    2ae6:	60 e0       	ldi	r22, 0x00	; 0
    2ae8:	80 e0       	ldi	r24, 0x00	; 0
    2aea:	0e 94 d4 02 	call	0x5a8	; 0x5a8 <p16f184xx_writeComm>
				p16f184xx_writeComm(0xC0, 1, 0x00, 0x00, 0x00);
    2aee:	00 e0       	ldi	r16, 0x00	; 0
    2af0:	20 e0       	ldi	r18, 0x00	; 0
    2af2:	40 e0       	ldi	r20, 0x00	; 0
    2af4:	61 e0       	ldi	r22, 0x01	; 1
    2af6:	80 ec       	ldi	r24, 0xC0	; 192
    2af8:	0e 94 d4 02 	call	0x5a8	; 0x5a8 <p16f184xx_writeComm>
				delay_ms(wr_delay + 2);
    2afc:	80 91 0e 03 	lds	r24, 0x030E	; 0x80030e <wr_delay>
    2b00:	90 91 0f 03 	lds	r25, 0x030F	; 0x80030f <wr_delay+0x1>
    2b04:	02 96       	adiw	r24, 0x02	; 2
    2b06:	0e 94 73 01 	call	0x2e6	; 0x2e6 <delay_ms>
				p16f184xx_writeComm(0xF8, 1, 0x00, 0x00, 0x00);
    2b0a:	20 e0       	ldi	r18, 0x00	; 0
    2b0c:	40 e0       	ldi	r20, 0x00	; 0
    2b0e:	61 e0       	ldi	r22, 0x01	; 1
    2b10:	88 ef       	ldi	r24, 0xF8	; 248
    2b12:	0e 94 d4 02 	call	0x5a8	; 0x5a8 <p16f184xx_writeComm>
			}
			if(device == 0x13)
    2b16:	80 91 17 03 	lds	r24, 0x0317	; 0x800317 <device>
    2b1a:	83 31       	cpi	r24, 0x13	; 19
    2b1c:	a9 f4       	brne	.+42     	; 0x2b48 <p16f184xx_progData+0x84>
			{
				p16f184xx_writeComm(0xC0, 0, 0x00, 0x00, exchange[i + 4]);
    2b1e:	08 81       	ld	r16, Y
    2b20:	20 e0       	ldi	r18, 0x00	; 0
    2b22:	40 e0       	ldi	r20, 0x00	; 0
    2b24:	60 e0       	ldi	r22, 0x00	; 0
    2b26:	80 ec       	ldi	r24, 0xC0	; 192
    2b28:	0e 94 d4 02 	call	0x5a8	; 0x5a8 <p16f184xx_writeComm>
				delay_ms(wr_delay + 3);
    2b2c:	80 91 0e 03 	lds	r24, 0x030E	; 0x80030e <wr_delay>
    2b30:	90 91 0f 03 	lds	r25, 0x030F	; 0x80030f <wr_delay+0x1>
    2b34:	03 96       	adiw	r24, 0x03	; 3
    2b36:	0e 94 73 01 	call	0x2e6	; 0x2e6 <delay_ms>
				p16f184xx_writeComm(0xF8, 1, 0x00, 0x00, 0x00);
    2b3a:	00 e0       	ldi	r16, 0x00	; 0
    2b3c:	20 e0       	ldi	r18, 0x00	; 0
    2b3e:	40 e0       	ldi	r20, 0x00	; 0
    2b40:	61 e0       	ldi	r22, 0x01	; 1
    2b42:	88 ef       	ldi	r24, 0xF8	; 248
    2b44:	0e 94 d4 02 	call	0x5a8	; 0x5a8 <p16f184xx_writeComm>
    2b48:	21 96       	adiw	r28, 0x01	; 1
}

void p16f184xx_progData(void)
{
	uint8_t tdat;
	for(int i = 0; i < 64; i++)
    2b4a:	82 e0       	ldi	r24, 0x02	; 2
    2b4c:	ce 3a       	cpi	r28, 0xAE	; 174
    2b4e:	d8 07       	cpc	r29, r24
    2b50:	09 f0       	breq	.+2      	; 0x2b54 <p16f184xx_progData+0x90>
    2b52:	bd cf       	rjmp	.-134    	; 0x2ace <p16f184xx_progData+0xa>
				delay_ms(wr_delay + 3);
				p16f184xx_writeComm(0xF8, 1, 0x00, 0x00, 0x00);
			}
		}
	}
}
    2b54:	df 91       	pop	r29
    2b56:	cf 91       	pop	r28
    2b58:	0f 91       	pop	r16
    2b5a:	08 95       	ret

00002b5c <p18fx5xx_progData>:

#ifdef PIC18FX5XX
void p18fx5xx_progData(void)
{
    2b5c:	8f 92       	push	r8
    2b5e:	9f 92       	push	r9
    2b60:	af 92       	push	r10
    2b62:	bf 92       	push	r11
    2b64:	cf 92       	push	r12
    2b66:	df 92       	push	r13
    2b68:	ef 92       	push	r14
    2b6a:	ff 92       	push	r15
    2b6c:	cf 93       	push	r28
    2b6e:	df 93       	push	r29
	uint8_t a_h, a_l;

	progMode();
    2b70:	0e 94 60 05 	call	0xac0	; 0xac0 <progMode>

	p18fx5xx_writeComm(P18FX5XX_CORE_INSTR, 0x9EA6);
    2b74:	66 ea       	ldi	r22, 0xA6	; 166
    2b76:	7e e9       	ldi	r23, 0x9E	; 158
    2b78:	80 e0       	ldi	r24, 0x00	; 0
    2b7a:	0e 94 6b 04 	call	0x8d6	; 0x8d6 <p18fx5xx_writeComm>
	p18fx5xx_writeComm(P18FX5XX_CORE_INSTR, 0x9CA6);
    2b7e:	66 ea       	ldi	r22, 0xA6	; 166
    2b80:	7c e9       	ldi	r23, 0x9C	; 156
    2b82:	80 e0       	ldi	r24, 0x00	; 0
    2b84:	0e 94 6b 04 	call	0x8d6	; 0x8d6 <p18fx5xx_writeComm>
    2b88:	c1 2c       	mov	r12, r1
    2b8a:	d1 2c       	mov	r13, r1
    2b8c:	76 01       	movw	r14, r12
    2b8e:	e6 01       	movw	r28, r12
    2b90:	c6 59       	subi	r28, 0x96	; 150
    2b92:	dd 4f       	sbci	r29, 0xFD	; 253

	for(int i = 0; i < 64; i ++)
	{
		if(exchange[i + 4] == 0xFF) continue;
    2b94:	8c 81       	ldd	r24, Y+4	; 0x04
    2b96:	8f 3f       	cpi	r24, 0xFF	; 255
    2b98:	09 f4       	brne	.+2      	; 0x2b9c <p18fx5xx_progData+0x40>
    2b9a:	5e c0       	rjmp	.+188    	; 0x2c58 <p18fx5xx_progData+0xfc>

		a_h = (main_counter + i) >> 8;
    2b9c:	80 90 06 03 	lds	r8, 0x0306	; 0x800306 <main_counter>
    2ba0:	90 90 07 03 	lds	r9, 0x0307	; 0x800307 <main_counter+0x1>
    2ba4:	a0 90 08 03 	lds	r10, 0x0308	; 0x800308 <main_counter+0x2>
    2ba8:	b0 90 09 03 	lds	r11, 0x0309	; 0x800309 <main_counter+0x3>
		a_l = (main_counter + i) & 0xFF;
    2bac:	6c 2d       	mov	r22, r12
    2bae:	68 0d       	add	r22, r8
		p18fx5xx_writeComm(P18FX5XX_CORE_INSTR, (0x0E00 | a_l));
    2bb0:	70 e0       	ldi	r23, 0x00	; 0
    2bb2:	7e 60       	ori	r23, 0x0E	; 14
    2bb4:	80 e0       	ldi	r24, 0x00	; 0
    2bb6:	0e 94 6b 04 	call	0x8d6	; 0x8d6 <p18fx5xx_writeComm>
		p18fx5xx_writeComm(P18FX5XX_CORE_INSTR, 0x6EA9);
    2bba:	69 ea       	ldi	r22, 0xA9	; 169
    2bbc:	7e e6       	ldi	r23, 0x6E	; 110
    2bbe:	80 e0       	ldi	r24, 0x00	; 0
    2bc0:	0e 94 6b 04 	call	0x8d6	; 0x8d6 <p18fx5xx_writeComm>

	for(int i = 0; i < 64; i ++)
	{
		if(exchange[i + 4] == 0xFF) continue;

		a_h = (main_counter + i) >> 8;
    2bc4:	8c 0c       	add	r8, r12
    2bc6:	9d 1c       	adc	r9, r13
    2bc8:	ae 1c       	adc	r10, r14
    2bca:	bf 1c       	adc	r11, r15
		a_l = (main_counter + i) & 0xFF;
		p18fx5xx_writeComm(P18FX5XX_CORE_INSTR, (0x0E00 | a_l));
		p18fx5xx_writeComm(P18FX5XX_CORE_INSTR, 0x6EA9);
		p18fx5xx_writeComm(P18FX5XX_CORE_INSTR, (0x0E00 | a_h));
    2bcc:	69 2d       	mov	r22, r9
    2bce:	70 e0       	ldi	r23, 0x00	; 0
    2bd0:	7e 60       	ori	r23, 0x0E	; 14
    2bd2:	80 e0       	ldi	r24, 0x00	; 0
    2bd4:	0e 94 6b 04 	call	0x8d6	; 0x8d6 <p18fx5xx_writeComm>
		p18fx5xx_writeComm(P18FX5XX_CORE_INSTR, 0x6EAA);
    2bd8:	6a ea       	ldi	r22, 0xAA	; 170
    2bda:	7e e6       	ldi	r23, 0x6E	; 110
    2bdc:	80 e0       	ldi	r24, 0x00	; 0
    2bde:	0e 94 6b 04 	call	0x8d6	; 0x8d6 <p18fx5xx_writeComm>
		p18fx5xx_writeComm(P18FX5XX_CORE_INSTR, (0x0E00 | exchange[i + 4]));
    2be2:	6c 81       	ldd	r22, Y+4	; 0x04
    2be4:	70 e0       	ldi	r23, 0x00	; 0
    2be6:	7e 60       	ori	r23, 0x0E	; 14
    2be8:	80 e0       	ldi	r24, 0x00	; 0
    2bea:	0e 94 6b 04 	call	0x8d6	; 0x8d6 <p18fx5xx_writeComm>
		p18fx5xx_writeComm(P18FX5XX_CORE_INSTR, 0x6EA8);
    2bee:	68 ea       	ldi	r22, 0xA8	; 168
    2bf0:	7e e6       	ldi	r23, 0x6E	; 110
    2bf2:	80 e0       	ldi	r24, 0x00	; 0
    2bf4:	0e 94 6b 04 	call	0x8d6	; 0x8d6 <p18fx5xx_writeComm>
		p18fx5xx_writeComm(P18FX5XX_CORE_INSTR, 0x84A6);
    2bf8:	66 ea       	ldi	r22, 0xA6	; 166
    2bfa:	74 e8       	ldi	r23, 0x84	; 132
    2bfc:	80 e0       	ldi	r24, 0x00	; 0
    2bfe:	0e 94 6b 04 	call	0x8d6	; 0x8d6 <p18fx5xx_writeComm>
		p18fx5xx_writeComm(P18FX5XX_CORE_INSTR, 0x82A6);
    2c02:	66 ea       	ldi	r22, 0xA6	; 166
    2c04:	72 e8       	ldi	r23, 0x82	; 130
    2c06:	80 e0       	ldi	r24, 0x00	; 0
    2c08:	0e 94 6b 04 	call	0x8d6	; 0x8d6 <p18fx5xx_writeComm>
		do
		{
			p18fx5xx_writeComm(P18FX5XX_CORE_INSTR, 0x50A6);
    2c0c:	66 ea       	ldi	r22, 0xA6	; 166
    2c0e:	70 e5       	ldi	r23, 0x50	; 80
    2c10:	80 e0       	ldi	r24, 0x00	; 0
    2c12:	0e 94 6b 04 	call	0x8d6	; 0x8d6 <p18fx5xx_writeComm>
			p18fx5xx_writeComm(P18FX5XX_CORE_INSTR, 0x6EF5);
    2c16:	65 ef       	ldi	r22, 0xF5	; 245
    2c18:	7e e6       	ldi	r23, 0x6E	; 110
    2c1a:	80 e0       	ldi	r24, 0x00	; 0
    2c1c:	0e 94 6b 04 	call	0x8d6	; 0x8d6 <p18fx5xx_writeComm>
			p18fx5xx_writeComm(P18FX5XX_CORE_INSTR, 0x0000);
    2c20:	60 e0       	ldi	r22, 0x00	; 0
    2c22:	70 e0       	ldi	r23, 0x00	; 0
    2c24:	80 e0       	ldi	r24, 0x00	; 0
    2c26:	0e 94 6b 04 	call	0x8d6	; 0x8d6 <p18fx5xx_writeComm>
			a_l = p18fx5xx_readComm(P18FX5XX_SHIFT_TABL, 0x00);
    2c2a:	60 e0       	ldi	r22, 0x00	; 0
    2c2c:	82 e0       	ldi	r24, 0x02	; 2
    2c2e:	0e 94 7a 05 	call	0xaf4	; 0xaf4 <p18fx5xx_readComm>
    2c32:	c8 2f       	mov	r28, r24
			a_h = p18fx5xx_readComm(P18FX5XX_SHIFT_TABL, 0x00);
    2c34:	60 e0       	ldi	r22, 0x00	; 0
    2c36:	82 e0       	ldi	r24, 0x02	; 2
    2c38:	0e 94 7a 05 	call	0xaf4	; 0xaf4 <p18fx5xx_readComm>
		}
		while(!(a_h | a_l));
    2c3c:	8c 2b       	or	r24, r28
    2c3e:	31 f3       	breq	.-52     	; 0x2c0c <p18fx5xx_progData+0xb0>
		PGC_LOW
    2c40:	2a 98       	cbi	0x05, 2	; 5
    2c42:	8f e1       	ldi	r24, 0x1F	; 31
    2c44:	9e e4       	ldi	r25, 0x4E	; 78
    2c46:	01 97       	sbiw	r24, 0x01	; 1
    2c48:	f1 f7       	brne	.-4      	; 0x2c46 <p18fx5xx_progData+0xea>
    2c4a:	00 c0       	rjmp	.+0      	; 0x2c4c <p18fx5xx_progData+0xf0>
    2c4c:	00 00       	nop
		_delay_ms(5);
		p18fx5xx_writeComm(P18FX5XX_CORE_INSTR, 0x94A6);
    2c4e:	66 ea       	ldi	r22, 0xA6	; 166
    2c50:	74 e9       	ldi	r23, 0x94	; 148
    2c52:	80 e0       	ldi	r24, 0x00	; 0
    2c54:	0e 94 6b 04 	call	0x8d6	; 0x8d6 <p18fx5xx_writeComm>
    2c58:	9f ef       	ldi	r25, 0xFF	; 255
    2c5a:	c9 1a       	sub	r12, r25
    2c5c:	d9 0a       	sbc	r13, r25
    2c5e:	e9 0a       	sbc	r14, r25
    2c60:	f9 0a       	sbc	r15, r25
	progMode();

	p18fx5xx_writeComm(P18FX5XX_CORE_INSTR, 0x9EA6);
	p18fx5xx_writeComm(P18FX5XX_CORE_INSTR, 0x9CA6);

	for(int i = 0; i < 64; i ++)
    2c62:	80 e4       	ldi	r24, 0x40	; 64
    2c64:	c8 16       	cp	r12, r24
    2c66:	d1 04       	cpc	r13, r1
    2c68:	e1 04       	cpc	r14, r1
    2c6a:	f1 04       	cpc	r15, r1
    2c6c:	09 f0       	breq	.+2      	; 0x2c70 <p18fx5xx_progData+0x114>
    2c6e:	8f cf       	rjmp	.-226    	; 0x2b8e <p18fx5xx_progData+0x32>
		while(!(a_h | a_l));
		PGC_LOW
		_delay_ms(5);
		p18fx5xx_writeComm(P18FX5XX_CORE_INSTR, 0x94A6);
	}
	main_counter += 64;
    2c70:	80 91 06 03 	lds	r24, 0x0306	; 0x800306 <main_counter>
    2c74:	90 91 07 03 	lds	r25, 0x0307	; 0x800307 <main_counter+0x1>
    2c78:	a0 91 08 03 	lds	r26, 0x0308	; 0x800308 <main_counter+0x2>
    2c7c:	b0 91 09 03 	lds	r27, 0x0309	; 0x800309 <main_counter+0x3>
    2c80:	80 5c       	subi	r24, 0xC0	; 192
    2c82:	9f 4f       	sbci	r25, 0xFF	; 255
    2c84:	af 4f       	sbci	r26, 0xFF	; 255
    2c86:	bf 4f       	sbci	r27, 0xFF	; 255
    2c88:	80 93 06 03 	sts	0x0306, r24	; 0x800306 <main_counter>
    2c8c:	90 93 07 03 	sts	0x0307, r25	; 0x800307 <main_counter+0x1>
    2c90:	a0 93 08 03 	sts	0x0308, r26	; 0x800308 <main_counter+0x2>
    2c94:	b0 93 09 03 	sts	0x0309, r27	; 0x800309 <main_counter+0x3>
	reset();
}
    2c98:	df 91       	pop	r29
    2c9a:	cf 91       	pop	r28
    2c9c:	ff 90       	pop	r15
    2c9e:	ef 90       	pop	r14
    2ca0:	df 90       	pop	r13
    2ca2:	cf 90       	pop	r12
    2ca4:	bf 90       	pop	r11
    2ca6:	af 90       	pop	r10
    2ca8:	9f 90       	pop	r9
    2caa:	8f 90       	pop	r8
		PGC_LOW
		_delay_ms(5);
		p18fx5xx_writeComm(P18FX5XX_CORE_INSTR, 0x94A6);
	}
	main_counter += 64;
	reset();
    2cac:	0c 94 45 06 	jmp	0xc8a	; 0xc8a <reset>

00002cb0 <p18fxxk80_progData>:
}
#endif

#ifdef PIC18FXXK80
void p18fxxk80_progData(void)
{
    2cb0:	8f 92       	push	r8
    2cb2:	9f 92       	push	r9
    2cb4:	af 92       	push	r10
    2cb6:	bf 92       	push	r11
    2cb8:	cf 92       	push	r12
    2cba:	df 92       	push	r13
    2cbc:	ef 92       	push	r14
    2cbe:	ff 92       	push	r15
    2cc0:	cf 93       	push	r28
    2cc2:	df 93       	push	r29
	uint8_t a_h, a_l;

	progMode();
    2cc4:	0e 94 60 05 	call	0xac0	; 0xac0 <progMode>

	p18fx5xx_writeComm(P18FX5XX_CORE_INSTR, 0x9E7F);
    2cc8:	6f e7       	ldi	r22, 0x7F	; 127
    2cca:	7e e9       	ldi	r23, 0x9E	; 158
    2ccc:	80 e0       	ldi	r24, 0x00	; 0
    2cce:	0e 94 6b 04 	call	0x8d6	; 0x8d6 <p18fx5xx_writeComm>
	p18fx5xx_writeComm(P18FX5XX_CORE_INSTR, 0x9C7F);
    2cd2:	6f e7       	ldi	r22, 0x7F	; 127
    2cd4:	7c e9       	ldi	r23, 0x9C	; 156
    2cd6:	80 e0       	ldi	r24, 0x00	; 0
    2cd8:	0e 94 6b 04 	call	0x8d6	; 0x8d6 <p18fx5xx_writeComm>
    2cdc:	c1 2c       	mov	r12, r1
    2cde:	d1 2c       	mov	r13, r1
    2ce0:	76 01       	movw	r14, r12
    2ce2:	e6 01       	movw	r28, r12
    2ce4:	c6 59       	subi	r28, 0x96	; 150
    2ce6:	dd 4f       	sbci	r29, 0xFD	; 253

	for(int i = 0; i < 64; i ++)
	{
		if(exchange[i + 4] == 0xFF) continue;
    2ce8:	8c 81       	ldd	r24, Y+4	; 0x04
    2cea:	8f 3f       	cpi	r24, 0xFF	; 255
    2cec:	09 f4       	brne	.+2      	; 0x2cf0 <p18fxxk80_progData+0x40>
    2cee:	5e c0       	rjmp	.+188    	; 0x2dac <p18fxxk80_progData+0xfc>

		a_h = (main_counter + i) >> 8;
    2cf0:	80 90 06 03 	lds	r8, 0x0306	; 0x800306 <main_counter>
    2cf4:	90 90 07 03 	lds	r9, 0x0307	; 0x800307 <main_counter+0x1>
    2cf8:	a0 90 08 03 	lds	r10, 0x0308	; 0x800308 <main_counter+0x2>
    2cfc:	b0 90 09 03 	lds	r11, 0x0309	; 0x800309 <main_counter+0x3>
		a_l = (main_counter + i) & 0xFF;
    2d00:	6c 2d       	mov	r22, r12
    2d02:	68 0d       	add	r22, r8
		p18fx5xx_writeComm(P18FX5XX_CORE_INSTR, (0x0E00 | a_l));
    2d04:	70 e0       	ldi	r23, 0x00	; 0
    2d06:	7e 60       	ori	r23, 0x0E	; 14
    2d08:	80 e0       	ldi	r24, 0x00	; 0
    2d0a:	0e 94 6b 04 	call	0x8d6	; 0x8d6 <p18fx5xx_writeComm>
		p18fx5xx_writeComm(P18FX5XX_CORE_INSTR, 0x6E74);
    2d0e:	64 e7       	ldi	r22, 0x74	; 116
    2d10:	7e e6       	ldi	r23, 0x6E	; 110
    2d12:	80 e0       	ldi	r24, 0x00	; 0
    2d14:	0e 94 6b 04 	call	0x8d6	; 0x8d6 <p18fx5xx_writeComm>

	for(int i = 0; i < 64; i ++)
	{
		if(exchange[i + 4] == 0xFF) continue;

		a_h = (main_counter + i) >> 8;
    2d18:	8c 0c       	add	r8, r12
    2d1a:	9d 1c       	adc	r9, r13
    2d1c:	ae 1c       	adc	r10, r14
    2d1e:	bf 1c       	adc	r11, r15
		a_l = (main_counter + i) & 0xFF;
		p18fx5xx_writeComm(P18FX5XX_CORE_INSTR, (0x0E00 | a_l));
		p18fx5xx_writeComm(P18FX5XX_CORE_INSTR, 0x6E74);
		p18fx5xx_writeComm(P18FX5XX_CORE_INSTR, (0x0E00 | a_h));
    2d20:	69 2d       	mov	r22, r9
    2d22:	70 e0       	ldi	r23, 0x00	; 0
    2d24:	7e 60       	ori	r23, 0x0E	; 14
    2d26:	80 e0       	ldi	r24, 0x00	; 0
    2d28:	0e 94 6b 04 	call	0x8d6	; 0x8d6 <p18fx5xx_writeComm>
		p18fx5xx_writeComm(P18FX5XX_CORE_INSTR, 0x6E75);
    2d2c:	65 e7       	ldi	r22, 0x75	; 117
    2d2e:	7e e6       	ldi	r23, 0x6E	; 110
    2d30:	80 e0       	ldi	r24, 0x00	; 0
    2d32:	0e 94 6b 04 	call	0x8d6	; 0x8d6 <p18fx5xx_writeComm>
		p18fx5xx_writeComm(P18FX5XX_CORE_INSTR, (0x0E00 | exchange[i + 4]));
    2d36:	6c 81       	ldd	r22, Y+4	; 0x04
    2d38:	70 e0       	ldi	r23, 0x00	; 0
    2d3a:	7e 60       	ori	r23, 0x0E	; 14
    2d3c:	80 e0       	ldi	r24, 0x00	; 0
    2d3e:	0e 94 6b 04 	call	0x8d6	; 0x8d6 <p18fx5xx_writeComm>
		p18fx5xx_writeComm(P18FX5XX_CORE_INSTR, 0x6E73);
    2d42:	63 e7       	ldi	r22, 0x73	; 115
    2d44:	7e e6       	ldi	r23, 0x6E	; 110
    2d46:	80 e0       	ldi	r24, 0x00	; 0
    2d48:	0e 94 6b 04 	call	0x8d6	; 0x8d6 <p18fx5xx_writeComm>
		p18fx5xx_writeComm(P18FX5XX_CORE_INSTR, 0x847F);
    2d4c:	6f e7       	ldi	r22, 0x7F	; 127
    2d4e:	74 e8       	ldi	r23, 0x84	; 132
    2d50:	80 e0       	ldi	r24, 0x00	; 0
    2d52:	0e 94 6b 04 	call	0x8d6	; 0x8d6 <p18fx5xx_writeComm>
		p18fx5xx_writeComm(P18FX5XX_CORE_INSTR, 0x827F);
    2d56:	6f e7       	ldi	r22, 0x7F	; 127
    2d58:	72 e8       	ldi	r23, 0x82	; 130
    2d5a:	80 e0       	ldi	r24, 0x00	; 0
    2d5c:	0e 94 6b 04 	call	0x8d6	; 0x8d6 <p18fx5xx_writeComm>
		do
		{
			p18fx5xx_writeComm(P18FX5XX_CORE_INSTR, 0x507F);
    2d60:	6f e7       	ldi	r22, 0x7F	; 127
    2d62:	70 e5       	ldi	r23, 0x50	; 80
    2d64:	80 e0       	ldi	r24, 0x00	; 0
    2d66:	0e 94 6b 04 	call	0x8d6	; 0x8d6 <p18fx5xx_writeComm>
			p18fx5xx_writeComm(P18FX5XX_CORE_INSTR, 0x6EF5);
    2d6a:	65 ef       	ldi	r22, 0xF5	; 245
    2d6c:	7e e6       	ldi	r23, 0x6E	; 110
    2d6e:	80 e0       	ldi	r24, 0x00	; 0
    2d70:	0e 94 6b 04 	call	0x8d6	; 0x8d6 <p18fx5xx_writeComm>
			p18fx5xx_writeComm(P18FX5XX_CORE_INSTR, 0x0000);
    2d74:	60 e0       	ldi	r22, 0x00	; 0
    2d76:	70 e0       	ldi	r23, 0x00	; 0
    2d78:	80 e0       	ldi	r24, 0x00	; 0
    2d7a:	0e 94 6b 04 	call	0x8d6	; 0x8d6 <p18fx5xx_writeComm>
			a_l = p18fx5xx_readComm(P18FX5XX_SHIFT_TABL, 0x00);
    2d7e:	60 e0       	ldi	r22, 0x00	; 0
    2d80:	82 e0       	ldi	r24, 0x02	; 2
    2d82:	0e 94 7a 05 	call	0xaf4	; 0xaf4 <p18fx5xx_readComm>
    2d86:	c8 2f       	mov	r28, r24
			a_h = p18fx5xx_readComm(P18FX5XX_SHIFT_TABL, 0x00);
    2d88:	60 e0       	ldi	r22, 0x00	; 0
    2d8a:	82 e0       	ldi	r24, 0x02	; 2
    2d8c:	0e 94 7a 05 	call	0xaf4	; 0xaf4 <p18fx5xx_readComm>
		}
		while(!(a_h | a_l));
    2d90:	8c 2b       	or	r24, r28
    2d92:	31 f3       	breq	.-52     	; 0x2d60 <p18fxxk80_progData+0xb0>
		PGC_LOW
    2d94:	2a 98       	cbi	0x05, 2	; 5
    2d96:	8f e1       	ldi	r24, 0x1F	; 31
    2d98:	9e e4       	ldi	r25, 0x4E	; 78
    2d9a:	01 97       	sbiw	r24, 0x01	; 1
    2d9c:	f1 f7       	brne	.-4      	; 0x2d9a <p18fxxk80_progData+0xea>
    2d9e:	00 c0       	rjmp	.+0      	; 0x2da0 <p18fxxk80_progData+0xf0>
    2da0:	00 00       	nop
		_delay_ms(5);
		p18fx5xx_writeComm(P18FX5XX_CORE_INSTR, 0x947F);
    2da2:	6f e7       	ldi	r22, 0x7F	; 127
    2da4:	74 e9       	ldi	r23, 0x94	; 148
    2da6:	80 e0       	ldi	r24, 0x00	; 0
    2da8:	0e 94 6b 04 	call	0x8d6	; 0x8d6 <p18fx5xx_writeComm>
    2dac:	9f ef       	ldi	r25, 0xFF	; 255
    2dae:	c9 1a       	sub	r12, r25
    2db0:	d9 0a       	sbc	r13, r25
    2db2:	e9 0a       	sbc	r14, r25
    2db4:	f9 0a       	sbc	r15, r25
	progMode();

	p18fx5xx_writeComm(P18FX5XX_CORE_INSTR, 0x9E7F);
	p18fx5xx_writeComm(P18FX5XX_CORE_INSTR, 0x9C7F);

	for(int i = 0; i < 64; i ++)
    2db6:	80 e4       	ldi	r24, 0x40	; 64
    2db8:	c8 16       	cp	r12, r24
    2dba:	d1 04       	cpc	r13, r1
    2dbc:	e1 04       	cpc	r14, r1
    2dbe:	f1 04       	cpc	r15, r1
    2dc0:	09 f0       	breq	.+2      	; 0x2dc4 <p18fxxk80_progData+0x114>
    2dc2:	8f cf       	rjmp	.-226    	; 0x2ce2 <p18fxxk80_progData+0x32>
		while(!(a_h | a_l));
		PGC_LOW
		_delay_ms(5);
		p18fx5xx_writeComm(P18FX5XX_CORE_INSTR, 0x947F);
	}
	main_counter += 64;
    2dc4:	80 91 06 03 	lds	r24, 0x0306	; 0x800306 <main_counter>
    2dc8:	90 91 07 03 	lds	r25, 0x0307	; 0x800307 <main_counter+0x1>
    2dcc:	a0 91 08 03 	lds	r26, 0x0308	; 0x800308 <main_counter+0x2>
    2dd0:	b0 91 09 03 	lds	r27, 0x0309	; 0x800309 <main_counter+0x3>
    2dd4:	80 5c       	subi	r24, 0xC0	; 192
    2dd6:	9f 4f       	sbci	r25, 0xFF	; 255
    2dd8:	af 4f       	sbci	r26, 0xFF	; 255
    2dda:	bf 4f       	sbci	r27, 0xFF	; 255
    2ddc:	80 93 06 03 	sts	0x0306, r24	; 0x800306 <main_counter>
    2de0:	90 93 07 03 	sts	0x0307, r25	; 0x800307 <main_counter+0x1>
    2de4:	a0 93 08 03 	sts	0x0308, r26	; 0x800308 <main_counter+0x2>
    2de8:	b0 93 09 03 	sts	0x0309, r27	; 0x800309 <main_counter+0x3>
	reset();
}
    2dec:	df 91       	pop	r29
    2dee:	cf 91       	pop	r28
    2df0:	ff 90       	pop	r15
    2df2:	ef 90       	pop	r14
    2df4:	df 90       	pop	r13
    2df6:	cf 90       	pop	r12
    2df8:	bf 90       	pop	r11
    2dfa:	af 90       	pop	r10
    2dfc:	9f 90       	pop	r9
    2dfe:	8f 90       	pop	r8
		PGC_LOW
		_delay_ms(5);
		p18fx5xx_writeComm(P18FX5XX_CORE_INSTR, 0x947F);
	}
	main_counter += 64;
	reset();
    2e00:	0c 94 45 06 	jmp	0xc8a	; 0xc8a <reset>

00002e04 <p16f676_readOscall>:
}
#endif

#ifdef PIC16F676
void p16f676_readOscall(void)
{
    2e04:	0f 93       	push	r16
    2e06:	1f 93       	push	r17
    2e08:	cf 93       	push	r28
    2e0a:	df 93       	push	r29
    2e0c:	00 d0       	rcall	.+0      	; 0x2e0e <p16f676_readOscall+0xa>
    2e0e:	cd b7       	in	r28, 0x3d	; 61
    2e10:	de b7       	in	r29, 0x3e	; 62
	uint16_t osc;
	progMode();
    2e12:	0e 94 60 05 	call	0xac0	; 0xac0 <progMode>
    2e16:	0f ef       	ldi	r16, 0xFF	; 255
    2e18:	13 e0       	ldi	r17, 0x03	; 3

	for(int i = 0; i < 0x3FF; i++) p16f7x_writeComm(P16F7X_INC_ADD, 0x0000, 1);
    2e1a:	41 e0       	ldi	r20, 0x01	; 1
    2e1c:	60 e0       	ldi	r22, 0x00	; 0
    2e1e:	70 e0       	ldi	r23, 0x00	; 0
    2e20:	86 e0       	ldi	r24, 0x06	; 6
    2e22:	0e 94 c3 01 	call	0x386	; 0x386 <p16f7x_writeComm>
    2e26:	01 50       	subi	r16, 0x01	; 1
    2e28:	11 09       	sbc	r17, r1
    2e2a:	b9 f7       	brne	.-18     	; 0x2e1a <p16f676_readOscall+0x16>
	osc = p16f7x_readComm(P16F7X_READ_DATA);
    2e2c:	84 e0       	ldi	r24, 0x04	; 4
    2e2e:	0e 94 f1 03 	call	0x7e2	; 0x7e2 <p16f7x_readComm>
	reset();
    2e32:	89 83       	std	Y+1, r24	; 0x01
    2e34:	9a 83       	std	Y+2, r25	; 0x02
    2e36:	0e 94 45 06 	call	0xc8a	; 0xc8a <reset>

	main_buff[0] = 0xFE;
    2e3a:	2e ef       	ldi	r18, 0xFE	; 254
    2e3c:	20 93 6a 01 	sts	0x016A, r18	; 0x80016a <main_buff>
	main_buff[1] = 0x02;
    2e40:	22 e0       	ldi	r18, 0x02	; 2
    2e42:	20 93 6b 01 	sts	0x016B, r18	; 0x80016b <main_buff+0x1>
	main_buff[2] = 0xAB;
    2e46:	2b ea       	ldi	r18, 0xAB	; 171
    2e48:	20 93 6c 01 	sts	0x016C, r18	; 0x80016c <main_buff+0x2>
	main_buff[3] = (osc >> 8);
    2e4c:	9a 81       	ldd	r25, Y+2	; 0x02
    2e4e:	90 93 6d 01 	sts	0x016D, r25	; 0x80016d <main_buff+0x3>
	main_buff[4] = (osc & 0xFF);
    2e52:	89 81       	ldd	r24, Y+1	; 0x01
    2e54:	80 93 6e 01 	sts	0x016E, r24	; 0x80016e <main_buff+0x4>
	send_frame(main_buff, 5);
    2e58:	65 e0       	ldi	r22, 0x05	; 5
    2e5a:	8a e6       	ldi	r24, 0x6A	; 106
    2e5c:	91 e0       	ldi	r25, 0x01	; 1
}
    2e5e:	0f 90       	pop	r0
    2e60:	0f 90       	pop	r0
    2e62:	df 91       	pop	r29
    2e64:	cf 91       	pop	r28
    2e66:	1f 91       	pop	r17
    2e68:	0f 91       	pop	r16
	main_buff[0] = 0xFE;
	main_buff[1] = 0x02;
	main_buff[2] = 0xAB;
	main_buff[3] = (osc >> 8);
	main_buff[4] = (osc & 0xFF);
	send_frame(main_buff, 5);
    2e6a:	0c 94 25 1a 	jmp	0x344a	; 0x344a <send_frame>

00002e6e <p12f1840_readOscall>:
}
#endif

void p12f1840_readOscall(void)
{
    2e6e:	cf 93       	push	r28
    2e70:	df 93       	push	r29
	progMode();
    2e72:	0e 94 60 05 	call	0xac0	; 0xac0 <progMode>

	if(device == 0x0E) p16f183xx_setAdd(0x1D, 0x00, 0xE0, 0x00);
    2e76:	80 91 17 03 	lds	r24, 0x0317	; 0x800317 <device>
    2e7a:	8e 30       	cpi	r24, 0x0E	; 14
    2e7c:	39 f4       	brne	.+14     	; 0x2e8c <p12f1840_readOscall+0x1e>
    2e7e:	20 e0       	ldi	r18, 0x00	; 0
    2e80:	40 ee       	ldi	r20, 0xE0	; 224
    2e82:	60 e0       	ldi	r22, 0x00	; 0
    2e84:	8d e1       	ldi	r24, 0x1D	; 29
    2e86:	0e 94 31 02 	call	0x462	; 0x462 <p16f183xx_setAdd>
    2e8a:	16 c0       	rjmp	.+44     	; 0x2eb8 <p12f1840_readOscall+0x4a>
	else
	{
	p16f7x_writeComm(P16F7X_LOAD_CONF, 0x0000, 0);
    2e8c:	40 e0       	ldi	r20, 0x00	; 0
    2e8e:	60 e0       	ldi	r22, 0x00	; 0
    2e90:	70 e0       	ldi	r23, 0x00	; 0
    2e92:	80 e0       	ldi	r24, 0x00	; 0
    2e94:	0e 94 c3 01 	call	0x386	; 0x386 <p16f7x_writeComm>
	for(int i = 0; i < osc_start; i++) p16f7x_writeComm(P16F7X_INC_ADD, 0x0000, 1);
    2e98:	c0 e0       	ldi	r28, 0x00	; 0
    2e9a:	d0 e0       	ldi	r29, 0x00	; 0
    2e9c:	80 91 15 03 	lds	r24, 0x0315	; 0x800315 <osc_start>
    2ea0:	90 e0       	ldi	r25, 0x00	; 0
    2ea2:	c8 17       	cp	r28, r24
    2ea4:	d9 07       	cpc	r29, r25
    2ea6:	44 f4       	brge	.+16     	; 0x2eb8 <p12f1840_readOscall+0x4a>
    2ea8:	41 e0       	ldi	r20, 0x01	; 1
    2eaa:	60 e0       	ldi	r22, 0x00	; 0
    2eac:	70 e0       	ldi	r23, 0x00	; 0
    2eae:	86 e0       	ldi	r24, 0x06	; 6
    2eb0:	0e 94 c3 01 	call	0x386	; 0x386 <p16f7x_writeComm>
    2eb4:	21 96       	adiw	r28, 0x01	; 1
    2eb6:	f2 cf       	rjmp	.-28     	; 0x2e9c <p12f1840_readOscall+0x2e>
	}
	oscal1 = p16f7x_readComm(P16F7X_READ_DATA);
    2eb8:	84 e0       	ldi	r24, 0x04	; 4
    2eba:	0e 94 f1 03 	call	0x7e2	; 0x7e2 <p16f7x_readComm>
    2ebe:	90 93 03 03 	sts	0x0303, r25	; 0x800303 <oscal1+0x1>
    2ec2:	80 93 02 03 	sts	0x0302, r24	; 0x800302 <oscal1>
	p16f7x_writeComm(P16F7X_INC_ADD, 0x0000, 1);
    2ec6:	41 e0       	ldi	r20, 0x01	; 1
    2ec8:	60 e0       	ldi	r22, 0x00	; 0
    2eca:	70 e0       	ldi	r23, 0x00	; 0
    2ecc:	86 e0       	ldi	r24, 0x06	; 6
    2ece:	0e 94 c3 01 	call	0x386	; 0x386 <p16f7x_writeComm>
	oscal2 = p16f7x_readComm(P16F7X_READ_DATA);
    2ed2:	84 e0       	ldi	r24, 0x04	; 4
    2ed4:	0e 94 f1 03 	call	0x7e2	; 0x7e2 <p16f7x_readComm>
    2ed8:	90 93 01 03 	sts	0x0301, r25	; 0x800301 <oscal2+0x1>
    2edc:	80 93 00 03 	sts	0x0300, r24	; 0x800300 <oscal2>
	p16f7x_writeComm(P16F7X_INC_ADD, 0x0000, 1);
    2ee0:	41 e0       	ldi	r20, 0x01	; 1
    2ee2:	60 e0       	ldi	r22, 0x00	; 0
    2ee4:	70 e0       	ldi	r23, 0x00	; 0
    2ee6:	86 e0       	ldi	r24, 0x06	; 6
    2ee8:	0e 94 c3 01 	call	0x386	; 0x386 <p16f7x_writeComm>
	oscal3 = p16f7x_readComm(P16F7X_READ_DATA);
    2eec:	84 e0       	ldi	r24, 0x04	; 4
    2eee:	0e 94 f1 03 	call	0x7e2	; 0x7e2 <p16f7x_readComm>
    2ef2:	90 93 05 03 	sts	0x0305, r25	; 0x800305 <oscal3+0x1>
    2ef6:	80 93 04 03 	sts	0x0304, r24	; 0x800304 <oscal3>
	reset();
    2efa:	0e 94 45 06 	call	0xc8a	; 0xc8a <reset>

	main_buff[0] = 0xFE;
    2efe:	8e ef       	ldi	r24, 0xFE	; 254
    2f00:	80 93 6a 01 	sts	0x016A, r24	; 0x80016a <main_buff>
	main_buff[1] = 0x06;
    2f04:	86 e0       	ldi	r24, 0x06	; 6
    2f06:	80 93 6b 01 	sts	0x016B, r24	; 0x80016b <main_buff+0x1>
	main_buff[2] = 0xAB;
    2f0a:	8b ea       	ldi	r24, 0xAB	; 171
    2f0c:	80 93 6c 01 	sts	0x016C, r24	; 0x80016c <main_buff+0x2>
	main_buff[3] = (oscal1 >> 8);
    2f10:	80 91 02 03 	lds	r24, 0x0302	; 0x800302 <oscal1>
    2f14:	90 91 03 03 	lds	r25, 0x0303	; 0x800303 <oscal1+0x1>
    2f18:	90 93 6d 01 	sts	0x016D, r25	; 0x80016d <main_buff+0x3>
	main_buff[4] = (oscal1 & 0xFF);
    2f1c:	80 93 6e 01 	sts	0x016E, r24	; 0x80016e <main_buff+0x4>
	main_buff[5] = (oscal2 >> 8);
    2f20:	80 91 00 03 	lds	r24, 0x0300	; 0x800300 <oscal2>
    2f24:	90 91 01 03 	lds	r25, 0x0301	; 0x800301 <oscal2+0x1>
    2f28:	90 93 6f 01 	sts	0x016F, r25	; 0x80016f <main_buff+0x5>
	main_buff[6] = (oscal2 & 0xFF);
    2f2c:	80 93 70 01 	sts	0x0170, r24	; 0x800170 <main_buff+0x6>
	main_buff[7] = (oscal3 >> 8);
    2f30:	80 91 04 03 	lds	r24, 0x0304	; 0x800304 <oscal3>
    2f34:	90 91 05 03 	lds	r25, 0x0305	; 0x800305 <oscal3+0x1>
    2f38:	90 93 71 01 	sts	0x0171, r25	; 0x800171 <main_buff+0x7>
	main_buff[8] = (oscal3 & 0xFF);
    2f3c:	80 93 72 01 	sts	0x0172, r24	; 0x800172 <main_buff+0x8>
	send_frame(main_buff, 9);
    2f40:	69 e0       	ldi	r22, 0x09	; 9
    2f42:	8a e6       	ldi	r24, 0x6A	; 106
    2f44:	91 e0       	ldi	r25, 0x01	; 1
}
    2f46:	df 91       	pop	r29
    2f48:	cf 91       	pop	r28
	main_buff[4] = (oscal1 & 0xFF);
	main_buff[5] = (oscal2 >> 8);
	main_buff[6] = (oscal2 & 0xFF);
	main_buff[7] = (oscal3 >> 8);
	main_buff[8] = (oscal3 & 0xFF);
	send_frame(main_buff, 9);
    2f4a:	0c 94 25 1a 	jmp	0x344a	; 0x344a <send_frame>

00002f4e <p16f5x_readOscall>:
}


#ifdef BASELINE
void p16f5x_readOscall(void)
{
    2f4e:	0f 93       	push	r16
    2f50:	1f 93       	push	r17
    2f52:	cf 93       	push	r28
    2f54:	df 93       	push	r29
    2f56:	e0 91 17 03 	lds	r30, 0x0317	; 0x800317 <device>
    2f5a:	ea 50       	subi	r30, 0x0A	; 10
    2f5c:	e3 30       	cpi	r30, 0x03	; 3
    2f5e:	40 f4       	brcc	.+16     	; 0x2f70 <p16f5x_readOscall+0x22>
    2f60:	f0 e0       	ldi	r31, 0x00	; 0
    2f62:	ee 0f       	add	r30, r30
    2f64:	ff 1f       	adc	r31, r31
    2f66:	ee 5d       	subi	r30, 0xDE	; 222
    2f68:	fe 4f       	sbci	r31, 0xFE	; 254
    2f6a:	00 81       	ld	r16, Z
    2f6c:	11 81       	ldd	r17, Z+1	; 0x01
    2f6e:	02 c0       	rjmp	.+4      	; 0x2f74 <p16f5x_readOscall+0x26>
	uint16_t osc_start = 0;
	switch(device)
    2f70:	00 e0       	ldi	r16, 0x00	; 0
    2f72:	10 e0       	ldi	r17, 0x00	; 0
		case 0x0A: {osc_start = 0x400; break;}
		case 0x0B: {osc_start = 0x100; break;}
		case 0x0C: {osc_start = 0x200; break;}
	}

	progMode();
    2f74:	0e 94 60 05 	call	0xac0	; 0xac0 <progMode>
	for(int i = 0; i < osc_start; i++) p16f7x_writeComm(P16F7X_INC_ADD, 0x0000, 1);
    2f78:	c0 e0       	ldi	r28, 0x00	; 0
    2f7a:	d0 e0       	ldi	r29, 0x00	; 0
    2f7c:	c0 17       	cp	r28, r16
    2f7e:	d1 07       	cpc	r29, r17
    2f80:	41 f0       	breq	.+16     	; 0x2f92 <p16f5x_readOscall+0x44>
    2f82:	41 e0       	ldi	r20, 0x01	; 1
    2f84:	60 e0       	ldi	r22, 0x00	; 0
    2f86:	70 e0       	ldi	r23, 0x00	; 0
    2f88:	86 e0       	ldi	r24, 0x06	; 6
    2f8a:	0e 94 c3 01 	call	0x386	; 0x386 <p16f7x_writeComm>
    2f8e:	21 96       	adiw	r28, 0x01	; 1
    2f90:	f5 cf       	rjmp	.-22     	; 0x2f7c <p16f5x_readOscall+0x2e>
	oscal1 = p16f7x_readComm(P16F7X_READ_DATA);
    2f92:	84 e0       	ldi	r24, 0x04	; 4
    2f94:	0e 94 f1 03 	call	0x7e2	; 0x7e2 <p16f7x_readComm>
    2f98:	90 93 03 03 	sts	0x0303, r25	; 0x800303 <oscal1+0x1>
    2f9c:	80 93 02 03 	sts	0x0302, r24	; 0x800302 <oscal1>
	reset();
    2fa0:	0e 94 45 06 	call	0xc8a	; 0xc8a <reset>

	main_buff[0] = 0xFE;
    2fa4:	8e ef       	ldi	r24, 0xFE	; 254
    2fa6:	80 93 6a 01 	sts	0x016A, r24	; 0x80016a <main_buff>
	main_buff[1] = 0x02;
    2faa:	82 e0       	ldi	r24, 0x02	; 2
    2fac:	80 93 6b 01 	sts	0x016B, r24	; 0x80016b <main_buff+0x1>
	main_buff[2] = 0xAB;
    2fb0:	8b ea       	ldi	r24, 0xAB	; 171
    2fb2:	80 93 6c 01 	sts	0x016C, r24	; 0x80016c <main_buff+0x2>
	main_buff[3] = (oscal1 >> 8);
    2fb6:	80 91 02 03 	lds	r24, 0x0302	; 0x800302 <oscal1>
    2fba:	90 91 03 03 	lds	r25, 0x0303	; 0x800303 <oscal1+0x1>
    2fbe:	90 93 6d 01 	sts	0x016D, r25	; 0x80016d <main_buff+0x3>
	main_buff[4] = (oscal1 & 0xFF);
    2fc2:	80 93 6e 01 	sts	0x016E, r24	; 0x80016e <main_buff+0x4>
	send_frame(main_buff, 5);
    2fc6:	65 e0       	ldi	r22, 0x05	; 5
    2fc8:	8a e6       	ldi	r24, 0x6A	; 106
    2fca:	91 e0       	ldi	r25, 0x01	; 1
}
    2fcc:	df 91       	pop	r29
    2fce:	cf 91       	pop	r28
    2fd0:	1f 91       	pop	r17
    2fd2:	0f 91       	pop	r16
	main_buff[0] = 0xFE;
	main_buff[1] = 0x02;
	main_buff[2] = 0xAB;
	main_buff[3] = (oscal1 >> 8);
	main_buff[4] = (oscal1 & 0xFF);
	send_frame(main_buff, 5);
    2fd4:	0c 94 25 1a 	jmp	0x344a	; 0x344a <send_frame>

00002fd8 <p12f5x_writeOscall>:
}

void p12f5x_writeOscall(void)
{
    2fd8:	0f 93       	push	r16
    2fda:	1f 93       	push	r17
    2fdc:	cf 93       	push	r28
    2fde:	df 93       	push	r29
	uint16_t osc_start = 0;
	oscal1 = exchange[4] | (exchange[5] << 8);
    2fe0:	80 91 6f 02 	lds	r24, 0x026F	; 0x80026f <exchange+0x5>
    2fe4:	90 e0       	ldi	r25, 0x00	; 0
    2fe6:	98 2f       	mov	r25, r24
    2fe8:	88 27       	eor	r24, r24
    2fea:	20 91 6e 02 	lds	r18, 0x026E	; 0x80026e <exchange+0x4>
    2fee:	82 2b       	or	r24, r18
    2ff0:	90 93 03 03 	sts	0x0303, r25	; 0x800303 <oscal1+0x1>
    2ff4:	80 93 02 03 	sts	0x0302, r24	; 0x800302 <oscal1>
    2ff8:	e0 91 17 03 	lds	r30, 0x0317	; 0x800317 <device>
    2ffc:	ea 50       	subi	r30, 0x0A	; 10
    2ffe:	e3 30       	cpi	r30, 0x03	; 3
    3000:	40 f4       	brcc	.+16     	; 0x3012 <p12f5x_writeOscall+0x3a>
    3002:	f0 e0       	ldi	r31, 0x00	; 0
    3004:	ee 0f       	add	r30, r30
    3006:	ff 1f       	adc	r31, r31
    3008:	e4 5e       	subi	r30, 0xE4	; 228
    300a:	fe 4f       	sbci	r31, 0xFE	; 254
    300c:	00 81       	ld	r16, Z
    300e:	11 81       	ldd	r17, Z+1	; 0x01
    3010:	02 c0       	rjmp	.+4      	; 0x3016 <p12f5x_writeOscall+0x3e>

		switch(device)
    3012:	00 e0       	ldi	r16, 0x00	; 0
    3014:	10 e0       	ldi	r17, 0x00	; 0
			case 0x0A: {osc_start = 0x400; break;}
			case 0x0B: {osc_start = 0x100; break;}
			case 0x0C: {osc_start = 0x200; break;}
		}

		progMode();
    3016:	0e 94 60 05 	call	0xac0	; 0xac0 <progMode>
		for(int a = 0; a < osc_start; a++) p16f7x_writeComm(P16F7X_INC_ADD, 0x0000, 1);
    301a:	c0 e0       	ldi	r28, 0x00	; 0
    301c:	d0 e0       	ldi	r29, 0x00	; 0
    301e:	c0 17       	cp	r28, r16
    3020:	d1 07       	cpc	r29, r17
    3022:	41 f0       	breq	.+16     	; 0x3034 <p12f5x_writeOscall+0x5c>
    3024:	41 e0       	ldi	r20, 0x01	; 1
    3026:	60 e0       	ldi	r22, 0x00	; 0
    3028:	70 e0       	ldi	r23, 0x00	; 0
    302a:	86 e0       	ldi	r24, 0x06	; 6
    302c:	0e 94 c3 01 	call	0x386	; 0x386 <p16f7x_writeComm>
    3030:	21 96       	adiw	r28, 0x01	; 1
    3032:	f5 cf       	rjmp	.-22     	; 0x301e <p12f5x_writeOscall+0x46>
		p16f7x_writeComm(P16F7X_LOAD_DATA, oscal1, 0);
    3034:	60 91 02 03 	lds	r22, 0x0302	; 0x800302 <oscal1>
    3038:	70 91 03 03 	lds	r23, 0x0303	; 0x800303 <oscal1+0x1>
    303c:	40 e0       	ldi	r20, 0x00	; 0
    303e:	82 e0       	ldi	r24, 0x02	; 2
    3040:	0e 94 c3 01 	call	0x386	; 0x386 <p16f7x_writeComm>
		p16f7x_writeComm(P16F7X_BEGIN_PROG, 0x0000, 1);
    3044:	41 e0       	ldi	r20, 0x01	; 1
    3046:	60 e0       	ldi	r22, 0x00	; 0
    3048:	70 e0       	ldi	r23, 0x00	; 0
    304a:	88 e0       	ldi	r24, 0x08	; 8
    304c:	0e 94 c3 01 	call	0x386	; 0x386 <p16f7x_writeComm>
    3050:	8f e1       	ldi	r24, 0x1F	; 31
    3052:	9e e4       	ldi	r25, 0x4E	; 78
    3054:	01 97       	sbiw	r24, 0x01	; 1
    3056:	f1 f7       	brne	.-4      	; 0x3054 <p12f5x_writeOscall+0x7c>
    3058:	00 c0       	rjmp	.+0      	; 0x305a <p12f5x_writeOscall+0x82>
    305a:	00 00       	nop
		_delay_ms(5);
		p16f7x_writeComm(P16F7X_END_PROG, 0x0000, 1);
    305c:	41 e0       	ldi	r20, 0x01	; 1
    305e:	60 e0       	ldi	r22, 0x00	; 0
    3060:	70 e0       	ldi	r23, 0x00	; 0
    3062:	8e e0       	ldi	r24, 0x0E	; 14
    3064:	0e 94 c3 01 	call	0x386	; 0x386 <p16f7x_writeComm>
	#else
		//round up by default
		__ticks_dc = (uint32_t)(ceil(fabs(__tmp)));
	#endif

	__builtin_avr_delay_cycles(__ticks_dc);
    3068:	8f e8       	ldi	r24, 0x8F	; 143
    306a:	91 e0       	ldi	r25, 0x01	; 1
    306c:	01 97       	sbiw	r24, 0x01	; 1
    306e:	f1 f7       	brne	.-4      	; 0x306c <p12f5x_writeOscall+0x94>
    3070:	00 c0       	rjmp	.+0      	; 0x3072 <p12f5x_writeOscall+0x9a>
    3072:	00 00       	nop
		_delay_us(100);
		reset();
}
    3074:	df 91       	pop	r29
    3076:	cf 91       	pop	r28
    3078:	1f 91       	pop	r17
    307a:	0f 91       	pop	r16
		p16f7x_writeComm(P16F7X_LOAD_DATA, oscal1, 0);
		p16f7x_writeComm(P16F7X_BEGIN_PROG, 0x0000, 1);
		_delay_ms(5);
		p16f7x_writeComm(P16F7X_END_PROG, 0x0000, 1);
		_delay_us(100);
		reset();
    307c:	0c 94 45 06 	jmp	0xc8a	; 0xc8a <reset>

00003080 <p16f676_writeOscall>:
}
#endif

#ifdef PIC16F676
void p16f676_writeOscall(void)
{
    3080:	cf 93       	push	r28
    3082:	df 93       	push	r29
	oscal1 = exchange[4] | (exchange[5] << 8);
    3084:	80 91 6f 02 	lds	r24, 0x026F	; 0x80026f <exchange+0x5>
    3088:	90 e0       	ldi	r25, 0x00	; 0
    308a:	98 2f       	mov	r25, r24
    308c:	88 27       	eor	r24, r24
    308e:	20 91 6e 02 	lds	r18, 0x026E	; 0x80026e <exchange+0x4>
    3092:	82 2b       	or	r24, r18
    3094:	90 93 03 03 	sts	0x0303, r25	; 0x800303 <oscal1+0x1>
    3098:	80 93 02 03 	sts	0x0302, r24	; 0x800302 <oscal1>

	progMode();
    309c:	0e 94 60 05 	call	0xac0	; 0xac0 <progMode>
    30a0:	cf ef       	ldi	r28, 0xFF	; 255
    30a2:	d3 e0       	ldi	r29, 0x03	; 3
	for(int i = 0; i < 0x3FF; i++) p16f7x_writeComm(P16F7X_INC_ADD, 0x0000, 1);
    30a4:	41 e0       	ldi	r20, 0x01	; 1
    30a6:	60 e0       	ldi	r22, 0x00	; 0
    30a8:	70 e0       	ldi	r23, 0x00	; 0
    30aa:	86 e0       	ldi	r24, 0x06	; 6
    30ac:	0e 94 c3 01 	call	0x386	; 0x386 <p16f7x_writeComm>
    30b0:	21 97       	sbiw	r28, 0x01	; 1
    30b2:	c1 f7       	brne	.-16     	; 0x30a4 <p16f676_writeOscall+0x24>
	p16f7x_writeComm(P16F7X_LOAD_DATA, oscal1, 0);
    30b4:	60 91 02 03 	lds	r22, 0x0302	; 0x800302 <oscal1>
    30b8:	70 91 03 03 	lds	r23, 0x0303	; 0x800303 <oscal1+0x1>
    30bc:	40 e0       	ldi	r20, 0x00	; 0
    30be:	82 e0       	ldi	r24, 0x02	; 2
    30c0:	0e 94 c3 01 	call	0x386	; 0x386 <p16f7x_writeComm>
	p16f7x_writeComm(P16F7X_BEGIN_PROG, 0x0000, 1);
    30c4:	41 e0       	ldi	r20, 0x01	; 1
    30c6:	60 e0       	ldi	r22, 0x00	; 0
    30c8:	70 e0       	ldi	r23, 0x00	; 0
    30ca:	88 e0       	ldi	r24, 0x08	; 8
    30cc:	0e 94 c3 01 	call	0x386	; 0x386 <p16f7x_writeComm>
	#else
		//round up by default
		__ticks_dc = (uint32_t)(ceil(fabs(__tmp)));
	#endif

	__builtin_avr_delay_cycles(__ticks_dc);
    30d0:	8f e1       	ldi	r24, 0x1F	; 31
    30d2:	9e e4       	ldi	r25, 0x4E	; 78
    30d4:	01 97       	sbiw	r24, 0x01	; 1
    30d6:	f1 f7       	brne	.-4      	; 0x30d4 <p16f676_writeOscall+0x54>
    30d8:	00 c0       	rjmp	.+0      	; 0x30da <p16f676_writeOscall+0x5a>
    30da:	00 00       	nop
	_delay_ms(5);
	p16f7x_writeComm(0x0A, 0x0000, 1);
    30dc:	41 e0       	ldi	r20, 0x01	; 1
    30de:	60 e0       	ldi	r22, 0x00	; 0
    30e0:	70 e0       	ldi	r23, 0x00	; 0
    30e2:	8a e0       	ldi	r24, 0x0A	; 10
    30e4:	0e 94 c3 01 	call	0x386	; 0x386 <p16f7x_writeComm>
	reset();
}
    30e8:	df 91       	pop	r29
    30ea:	cf 91       	pop	r28
	for(int i = 0; i < 0x3FF; i++) p16f7x_writeComm(P16F7X_INC_ADD, 0x0000, 1);
	p16f7x_writeComm(P16F7X_LOAD_DATA, oscal1, 0);
	p16f7x_writeComm(P16F7X_BEGIN_PROG, 0x0000, 1);
	_delay_ms(5);
	p16f7x_writeComm(0x0A, 0x0000, 1);
	reset();
    30ec:	0c 94 45 06 	jmp	0xc8a	; 0xc8a <reset>

000030f0 <p12f1840_writeOscall>:
}
#endif

void p12f1840_writeOscall(void)
{
    30f0:	0f 93       	push	r16
    30f2:	1f 93       	push	r17
    30f4:	cf 93       	push	r28
    30f6:	df 93       	push	r29
	progMode();
    30f8:	0e 94 60 05 	call	0xac0	; 0xac0 <progMode>

	p16f7x_writeComm(P16F7X_LOAD_CONF, 0x0000, 0);
    30fc:	40 e0       	ldi	r20, 0x00	; 0
    30fe:	60 e0       	ldi	r22, 0x00	; 0
    3100:	70 e0       	ldi	r23, 0x00	; 0
    3102:	80 e0       	ldi	r24, 0x00	; 0
    3104:	0e 94 c3 01 	call	0x386	; 0x386 <p16f7x_writeComm>
	for(int i = 0; i < osc_start; i++) p16f7x_writeComm(P16F7X_INC_ADD, 0x0000, 1);
    3108:	c0 e0       	ldi	r28, 0x00	; 0
    310a:	d0 e0       	ldi	r29, 0x00	; 0
    310c:	80 91 15 03 	lds	r24, 0x0315	; 0x800315 <osc_start>
    3110:	90 e0       	ldi	r25, 0x00	; 0
    3112:	c8 17       	cp	r28, r24
    3114:	d9 07       	cpc	r29, r25
    3116:	44 f4       	brge	.+16     	; 0x3128 <p12f1840_writeOscall+0x38>
    3118:	41 e0       	ldi	r20, 0x01	; 1
    311a:	60 e0       	ldi	r22, 0x00	; 0
    311c:	70 e0       	ldi	r23, 0x00	; 0
    311e:	86 e0       	ldi	r24, 0x06	; 6
    3120:	0e 94 c3 01 	call	0x386	; 0x386 <p16f7x_writeComm>
    3124:	21 96       	adiw	r28, 0x01	; 1
    3126:	f2 cf       	rjmp	.-28     	; 0x310c <p12f1840_writeOscall+0x1c>
    3128:	cf e6       	ldi	r28, 0x6F	; 111
    312a:	d2 e0       	ldi	r29, 0x02	; 2
    312c:	00 e0       	ldi	r16, 0x00	; 0
    312e:	10 e0       	ldi	r17, 0x00	; 0

	for(int k = 0; k < osc_cnt; k++)
    3130:	80 91 14 03 	lds	r24, 0x0314	; 0x800314 <osc_cnt>
    3134:	90 e0       	ldi	r25, 0x00	; 0
    3136:	08 17       	cp	r16, r24
    3138:	19 07       	cpc	r17, r25
    313a:	14 f5       	brge	.+68     	; 0x3180 <p12f1840_writeOscall+0x90>
	{
		p16f7x_writeComm(P16F7X_LOAD_DATA, (exchange[k*2 + 4] | (exchange[k*2 + 5] <<8)), 0);
    313c:	68 81       	ld	r22, Y
    313e:	70 e0       	ldi	r23, 0x00	; 0
    3140:	76 2f       	mov	r23, r22
    3142:	66 27       	eor	r22, r22
    3144:	fe 01       	movw	r30, r28
    3146:	31 97       	sbiw	r30, 0x01	; 1
    3148:	80 81       	ld	r24, Z
    314a:	68 2b       	or	r22, r24
    314c:	40 e0       	ldi	r20, 0x00	; 0
    314e:	82 e0       	ldi	r24, 0x02	; 2
    3150:	0e 94 c3 01 	call	0x386	; 0x386 <p16f7x_writeComm>
		p16f7x_writeComm(P16F7X_BEGIN_PROG, 0x0000, 1);
    3154:	41 e0       	ldi	r20, 0x01	; 1
    3156:	60 e0       	ldi	r22, 0x00	; 0
    3158:	70 e0       	ldi	r23, 0x00	; 0
    315a:	88 e0       	ldi	r24, 0x08	; 8
    315c:	0e 94 c3 01 	call	0x386	; 0x386 <p16f7x_writeComm>
    3160:	8f e1       	ldi	r24, 0x1F	; 31
    3162:	9e e4       	ldi	r25, 0x4E	; 78
    3164:	01 97       	sbiw	r24, 0x01	; 1
    3166:	f1 f7       	brne	.-4      	; 0x3164 <p12f1840_writeOscall+0x74>
    3168:	00 c0       	rjmp	.+0      	; 0x316a <p12f1840_writeOscall+0x7a>
    316a:	00 00       	nop
		_delay_ms(5);
		p16f7x_writeComm(P16F7X_INC_ADD, 0x0000, 1);
    316c:	41 e0       	ldi	r20, 0x01	; 1
    316e:	60 e0       	ldi	r22, 0x00	; 0
    3170:	70 e0       	ldi	r23, 0x00	; 0
    3172:	86 e0       	ldi	r24, 0x06	; 6
    3174:	0e 94 c3 01 	call	0x386	; 0x386 <p16f7x_writeComm>
	progMode();

	p16f7x_writeComm(P16F7X_LOAD_CONF, 0x0000, 0);
	for(int i = 0; i < osc_start; i++) p16f7x_writeComm(P16F7X_INC_ADD, 0x0000, 1);

	for(int k = 0; k < osc_cnt; k++)
    3178:	0f 5f       	subi	r16, 0xFF	; 255
    317a:	1f 4f       	sbci	r17, 0xFF	; 255
    317c:	22 96       	adiw	r28, 0x02	; 2
    317e:	d8 cf       	rjmp	.-80     	; 0x3130 <p12f1840_writeOscall+0x40>
		p16f7x_writeComm(P16F7X_BEGIN_PROG, 0x0000, 1);
		_delay_ms(5);
		p16f7x_writeComm(P16F7X_INC_ADD, 0x0000, 1);
	}
	reset();
}
    3180:	df 91       	pop	r29
    3182:	cf 91       	pop	r28
    3184:	1f 91       	pop	r17
    3186:	0f 91       	pop	r16
		p16f7x_writeComm(P16F7X_LOAD_DATA, (exchange[k*2 + 4] | (exchange[k*2 + 5] <<8)), 0);
		p16f7x_writeComm(P16F7X_BEGIN_PROG, 0x0000, 1);
		_delay_ms(5);
		p16f7x_writeComm(P16F7X_INC_ADD, 0x0000, 1);
	}
	reset();
    3188:	0c 94 45 06 	jmp	0xc8a	; 0xc8a <reset>

0000318c <p16f676_storeOsc>:
}

#ifdef PIC16F676
void p16f676_storeOsc(void)
{
    318c:	cf 93       	push	r28
    318e:	df 93       	push	r29
	progMode();
    3190:	0e 94 60 05 	call	0xac0	; 0xac0 <progMode>
    3194:	cf ef       	ldi	r28, 0xFF	; 255
    3196:	d3 e0       	ldi	r29, 0x03	; 3
	for(int i = 0; i < 0x3FF; i++) p16f7x_writeComm(P16F7X_INC_ADD, 0x0000, 1);
    3198:	41 e0       	ldi	r20, 0x01	; 1
    319a:	60 e0       	ldi	r22, 0x00	; 0
    319c:	70 e0       	ldi	r23, 0x00	; 0
    319e:	86 e0       	ldi	r24, 0x06	; 6
    31a0:	0e 94 c3 01 	call	0x386	; 0x386 <p16f7x_writeComm>
    31a4:	21 97       	sbiw	r28, 0x01	; 1
    31a6:	c1 f7       	brne	.-16     	; 0x3198 <p16f676_storeOsc+0xc>
	oscal1 = p16f7x_readComm(P16F7X_READ_DATA);
    31a8:	84 e0       	ldi	r24, 0x04	; 4
    31aa:	0e 94 f1 03 	call	0x7e2	; 0x7e2 <p16f7x_readComm>
    31ae:	90 93 03 03 	sts	0x0303, r25	; 0x800303 <oscal1+0x1>
    31b2:	80 93 02 03 	sts	0x0302, r24	; 0x800302 <oscal1>
	reset();
    31b6:	0e 94 45 06 	call	0xc8a	; 0xc8a <reset>
    31ba:	8f e1       	ldi	r24, 0x1F	; 31
    31bc:	9e e4       	ldi	r25, 0x4E	; 78
    31be:	01 97       	sbiw	r24, 0x01	; 1
    31c0:	f1 f7       	brne	.-4      	; 0x31be <p16f676_storeOsc+0x32>
    31c2:	00 c0       	rjmp	.+0      	; 0x31c4 <p16f676_storeOsc+0x38>
    31c4:	00 00       	nop
	_delay_ms(5);

	p16f628A_progMode();
    31c6:	0e 94 a9 01 	call	0x352	; 0x352 <p16f628A_progMode>
	p16f7x_writeComm(P16F7X_LOAD_CONF, 0x2000, 0);
    31ca:	40 e0       	ldi	r20, 0x00	; 0
    31cc:	60 e0       	ldi	r22, 0x00	; 0
    31ce:	70 e2       	ldi	r23, 0x20	; 32
    31d0:	80 e0       	ldi	r24, 0x00	; 0
    31d2:	0e 94 c3 01 	call	0x386	; 0x386 <p16f7x_writeComm>
    31d6:	c7 e0       	ldi	r28, 0x07	; 7
    31d8:	d0 e0       	ldi	r29, 0x00	; 0
	for(int i = 0; i < 7; i++) p16f7x_writeComm(P16F7X_INC_ADD, 0x0000, 1);
    31da:	41 e0       	ldi	r20, 0x01	; 1
    31dc:	60 e0       	ldi	r22, 0x00	; 0
    31de:	70 e0       	ldi	r23, 0x00	; 0
    31e0:	86 e0       	ldi	r24, 0x06	; 6
    31e2:	0e 94 c3 01 	call	0x386	; 0x386 <p16f7x_writeComm>
    31e6:	21 97       	sbiw	r28, 0x01	; 1
    31e8:	c1 f7       	brne	.-16     	; 0x31da <p16f676_storeOsc+0x4e>
	oscal2 = p16f7x_readComm(P16F7X_READ_DATA);
    31ea:	84 e0       	ldi	r24, 0x04	; 4
    31ec:	0e 94 f1 03 	call	0x7e2	; 0x7e2 <p16f7x_readComm>
    31f0:	90 93 01 03 	sts	0x0301, r25	; 0x800301 <oscal2+0x1>
    31f4:	80 93 00 03 	sts	0x0300, r24	; 0x800300 <oscal2>
	reset();
    31f8:	0e 94 45 06 	call	0xc8a	; 0xc8a <reset>

	oscal2 &= 0x3000;
    31fc:	80 91 00 03 	lds	r24, 0x0300	; 0x800300 <oscal2>
    3200:	90 91 01 03 	lds	r25, 0x0301	; 0x800301 <oscal2+0x1>
    3204:	88 27       	eor	r24, r24
    3206:	90 73       	andi	r25, 0x30	; 48
    3208:	90 93 01 03 	sts	0x0301, r25	; 0x800301 <oscal2+0x1>
    320c:	80 93 00 03 	sts	0x0300, r24	; 0x800300 <oscal2>
    3210:	8f e1       	ldi	r24, 0x1F	; 31
    3212:	9e e4       	ldi	r25, 0x4E	; 78
    3214:	01 97       	sbiw	r24, 0x01	; 1
    3216:	f1 f7       	brne	.-4      	; 0x3214 <p16f676_storeOsc+0x88>
    3218:	00 c0       	rjmp	.+0      	; 0x321a <p16f676_storeOsc+0x8e>
    321a:	00 00       	nop
	_delay_ms(5);
}
    321c:	df 91       	pop	r29
    321e:	cf 91       	pop	r28
    3220:	08 95       	ret

00003222 <p16f676_writeCfg>:
	reset();
}

#ifdef PIC16F676
void p16f676_writeCfg(void)
{
    3222:	0f 93       	push	r16
    3224:	1f 93       	push	r17
    3226:	cf 93       	push	r28
    3228:	df 93       	push	r29
	uint16_t cfg = exchange[4] | (exchange[5] << 8);
    322a:	c0 91 6f 02 	lds	r28, 0x026F	; 0x80026f <exchange+0x5>
    322e:	d0 e0       	ldi	r29, 0x00	; 0
    3230:	dc 2f       	mov	r29, r28
    3232:	cc 27       	eor	r28, r28
    3234:	80 91 6e 02 	lds	r24, 0x026E	; 0x80026e <exchange+0x4>
    3238:	c8 2b       	or	r28, r24
	p16f676_storeOsc();
    323a:	0e 94 c6 18 	call	0x318c	; 0x318c <p16f676_storeOsc>

	cfg &= 0x0FFF;
    323e:	df 70       	andi	r29, 0x0F	; 15
	cfg |= oscal2;
    3240:	80 91 00 03 	lds	r24, 0x0300	; 0x800300 <oscal2>
    3244:	90 91 01 03 	lds	r25, 0x0301	; 0x800301 <oscal2+0x1>
    3248:	c8 2b       	or	r28, r24
    324a:	d9 2b       	or	r29, r25

	progMode();
    324c:	0e 94 60 05 	call	0xac0	; 0xac0 <progMode>
	p16f7x_writeComm(P16F7X_LOAD_CONF, 0x2000, 0);
    3250:	40 e0       	ldi	r20, 0x00	; 0
    3252:	60 e0       	ldi	r22, 0x00	; 0
    3254:	70 e2       	ldi	r23, 0x20	; 32
    3256:	80 e0       	ldi	r24, 0x00	; 0
    3258:	0e 94 c3 01 	call	0x386	; 0x386 <p16f7x_writeComm>
    325c:	07 e0       	ldi	r16, 0x07	; 7
    325e:	10 e0       	ldi	r17, 0x00	; 0
	for(int i = 0; i < 7; i++) p16f7x_writeComm(P16F7X_INC_ADD, 0x0000, 1);
    3260:	41 e0       	ldi	r20, 0x01	; 1
    3262:	60 e0       	ldi	r22, 0x00	; 0
    3264:	70 e0       	ldi	r23, 0x00	; 0
    3266:	86 e0       	ldi	r24, 0x06	; 6
    3268:	0e 94 c3 01 	call	0x386	; 0x386 <p16f7x_writeComm>
    326c:	01 50       	subi	r16, 0x01	; 1
    326e:	11 09       	sbc	r17, r1
    3270:	b9 f7       	brne	.-18     	; 0x3260 <p16f676_writeCfg+0x3e>
	p16f7x_writeComm(P16F7X_LOAD_DATA, cfg, 0);
    3272:	40 e0       	ldi	r20, 0x00	; 0
    3274:	be 01       	movw	r22, r28
    3276:	82 e0       	ldi	r24, 0x02	; 2
    3278:	0e 94 c3 01 	call	0x386	; 0x386 <p16f7x_writeComm>
	p16f7x_writeComm(P16F7X_BEGIN_PROG, 0x0000, 1);
    327c:	41 e0       	ldi	r20, 0x01	; 1
    327e:	60 e0       	ldi	r22, 0x00	; 0
    3280:	70 e0       	ldi	r23, 0x00	; 0
    3282:	88 e0       	ldi	r24, 0x08	; 8
    3284:	0e 94 c3 01 	call	0x386	; 0x386 <p16f7x_writeComm>
    3288:	8f e1       	ldi	r24, 0x1F	; 31
    328a:	9e e4       	ldi	r25, 0x4E	; 78
    328c:	01 97       	sbiw	r24, 0x01	; 1
    328e:	f1 f7       	brne	.-4      	; 0x328c <p16f676_writeCfg+0x6a>
    3290:	00 c0       	rjmp	.+0      	; 0x3292 <p16f676_writeCfg+0x70>
    3292:	00 00       	nop
	_delay_ms(5);
	p16f7x_writeComm(0x0A, 0x0000, 1);
    3294:	41 e0       	ldi	r20, 0x01	; 1
    3296:	60 e0       	ldi	r22, 0x00	; 0
    3298:	70 e0       	ldi	r23, 0x00	; 0
    329a:	8a e0       	ldi	r24, 0x0A	; 10
    329c:	0e 94 c3 01 	call	0x386	; 0x386 <p16f7x_writeComm>
	reset();
}
    32a0:	df 91       	pop	r29
    32a2:	cf 91       	pop	r28
    32a4:	1f 91       	pop	r17
    32a6:	0f 91       	pop	r16
	for(int i = 0; i < 7; i++) p16f7x_writeComm(P16F7X_INC_ADD, 0x0000, 1);
	p16f7x_writeComm(P16F7X_LOAD_DATA, cfg, 0);
	p16f7x_writeComm(P16F7X_BEGIN_PROG, 0x0000, 1);
	_delay_ms(5);
	p16f7x_writeComm(0x0A, 0x0000, 1);
	reset();
    32a8:	0c 94 45 06 	jmp	0xc8a	; 0xc8a <reset>

000032ac <p16f676_restoreOsc>:
	oscal2 &= 0x3000;
	_delay_ms(5);
}

void p16f676_restoreOsc(void)
{
    32ac:	cf 93       	push	r28
    32ae:	df 93       	push	r29
	progMode();
    32b0:	0e 94 60 05 	call	0xac0	; 0xac0 <progMode>
	p16f7x_writeComm(P16F7X_LOAD_CONF, 0x2000, 0);
    32b4:	40 e0       	ldi	r20, 0x00	; 0
    32b6:	60 e0       	ldi	r22, 0x00	; 0
    32b8:	70 e2       	ldi	r23, 0x20	; 32
    32ba:	80 e0       	ldi	r24, 0x00	; 0
    32bc:	0e 94 c3 01 	call	0x386	; 0x386 <p16f7x_writeComm>
    32c0:	c7 e0       	ldi	r28, 0x07	; 7
    32c2:	d0 e0       	ldi	r29, 0x00	; 0
	for(int i = 0; i < 7; i++) p16f7x_writeComm(P16F7X_INC_ADD, 0x0000, 1);
    32c4:	41 e0       	ldi	r20, 0x01	; 1
    32c6:	60 e0       	ldi	r22, 0x00	; 0
    32c8:	70 e0       	ldi	r23, 0x00	; 0
    32ca:	86 e0       	ldi	r24, 0x06	; 6
    32cc:	0e 94 c3 01 	call	0x386	; 0x386 <p16f7x_writeComm>
    32d0:	21 97       	sbiw	r28, 0x01	; 1
    32d2:	c1 f7       	brne	.-16     	; 0x32c4 <p16f676_restoreOsc+0x18>
	oscal3 = p16f7x_readComm(P16F7X_READ_DATA);
    32d4:	84 e0       	ldi	r24, 0x04	; 4
    32d6:	0e 94 f1 03 	call	0x7e2	; 0x7e2 <p16f7x_readComm>
    32da:	90 93 05 03 	sts	0x0305, r25	; 0x800305 <oscal3+0x1>
    32de:	80 93 04 03 	sts	0x0304, r24	; 0x800304 <oscal3>
	reset();
    32e2:	0e 94 45 06 	call	0xc8a	; 0xc8a <reset>

	oscal3 &= 0x0FFF;
    32e6:	80 91 04 03 	lds	r24, 0x0304	; 0x800304 <oscal3>
    32ea:	90 91 05 03 	lds	r25, 0x0305	; 0x800305 <oscal3+0x1>
    32ee:	9f 70       	andi	r25, 0x0F	; 15
	oscal3 |= oscal2;
    32f0:	20 91 00 03 	lds	r18, 0x0300	; 0x800300 <oscal2>
    32f4:	30 91 01 03 	lds	r19, 0x0301	; 0x800301 <oscal2+0x1>
    32f8:	82 2b       	or	r24, r18
    32fa:	93 2b       	or	r25, r19
    32fc:	90 93 05 03 	sts	0x0305, r25	; 0x800305 <oscal3+0x1>
    3300:	80 93 04 03 	sts	0x0304, r24	; 0x800304 <oscal3>

	progMode();
    3304:	0e 94 60 05 	call	0xac0	; 0xac0 <progMode>
	p16f7x_writeComm(P16F7X_LOAD_CONF, 0x2000, 0);
    3308:	40 e0       	ldi	r20, 0x00	; 0
    330a:	60 e0       	ldi	r22, 0x00	; 0
    330c:	70 e2       	ldi	r23, 0x20	; 32
    330e:	80 e0       	ldi	r24, 0x00	; 0
    3310:	0e 94 c3 01 	call	0x386	; 0x386 <p16f7x_writeComm>
    3314:	c7 e0       	ldi	r28, 0x07	; 7
    3316:	d0 e0       	ldi	r29, 0x00	; 0
	for(int i = 0; i < 7; i++) p16f7x_writeComm(P16F7X_INC_ADD, 0x0000, 1);
    3318:	41 e0       	ldi	r20, 0x01	; 1
    331a:	60 e0       	ldi	r22, 0x00	; 0
    331c:	70 e0       	ldi	r23, 0x00	; 0
    331e:	86 e0       	ldi	r24, 0x06	; 6
    3320:	0e 94 c3 01 	call	0x386	; 0x386 <p16f7x_writeComm>
    3324:	21 97       	sbiw	r28, 0x01	; 1
    3326:	c1 f7       	brne	.-16     	; 0x3318 <p16f676_restoreOsc+0x6c>
	p16f7x_writeComm(P16F7X_LOAD_DATA, oscal3, 0);
    3328:	60 91 04 03 	lds	r22, 0x0304	; 0x800304 <oscal3>
    332c:	70 91 05 03 	lds	r23, 0x0305	; 0x800305 <oscal3+0x1>
    3330:	40 e0       	ldi	r20, 0x00	; 0
    3332:	82 e0       	ldi	r24, 0x02	; 2
    3334:	0e 94 c3 01 	call	0x386	; 0x386 <p16f7x_writeComm>
	p16f7x_writeComm(P16F7X_BEGIN_PROG, 0x0000, 1);
    3338:	41 e0       	ldi	r20, 0x01	; 1
    333a:	60 e0       	ldi	r22, 0x00	; 0
    333c:	70 e0       	ldi	r23, 0x00	; 0
    333e:	88 e0       	ldi	r24, 0x08	; 8
    3340:	0e 94 c3 01 	call	0x386	; 0x386 <p16f7x_writeComm>
    3344:	8f e1       	ldi	r24, 0x1F	; 31
    3346:	9e e4       	ldi	r25, 0x4E	; 78
    3348:	01 97       	sbiw	r24, 0x01	; 1
    334a:	f1 f7       	brne	.-4      	; 0x3348 <p16f676_restoreOsc+0x9c>
    334c:	00 c0       	rjmp	.+0      	; 0x334e <p16f676_restoreOsc+0xa2>
    334e:	00 00       	nop
	_delay_ms(5);
	p16f7x_writeComm(0x0A, 0x0000, 1);
    3350:	41 e0       	ldi	r20, 0x01	; 1
    3352:	60 e0       	ldi	r22, 0x00	; 0
    3354:	70 e0       	ldi	r23, 0x00	; 0
    3356:	8a e0       	ldi	r24, 0x0A	; 10
    3358:	0e 94 c3 01 	call	0x386	; 0x386 <p16f7x_writeComm>
	reset();
    335c:	0e 94 45 06 	call	0xc8a	; 0xc8a <reset>

	progMode();
    3360:	0e 94 60 05 	call	0xac0	; 0xac0 <progMode>
    3364:	cf ef       	ldi	r28, 0xFF	; 255
    3366:	d3 e0       	ldi	r29, 0x03	; 3
	for(int i = 0; i < 0x3FF; i++) p16f7x_writeComm(P16F7X_INC_ADD, 0x0000, 1);
    3368:	41 e0       	ldi	r20, 0x01	; 1
    336a:	60 e0       	ldi	r22, 0x00	; 0
    336c:	70 e0       	ldi	r23, 0x00	; 0
    336e:	86 e0       	ldi	r24, 0x06	; 6
    3370:	0e 94 c3 01 	call	0x386	; 0x386 <p16f7x_writeComm>
    3374:	21 97       	sbiw	r28, 0x01	; 1
    3376:	c1 f7       	brne	.-16     	; 0x3368 <p16f676_restoreOsc+0xbc>
	p16f7x_writeComm(P16F7X_LOAD_DATA, oscal1, 0);
    3378:	60 91 02 03 	lds	r22, 0x0302	; 0x800302 <oscal1>
    337c:	70 91 03 03 	lds	r23, 0x0303	; 0x800303 <oscal1+0x1>
    3380:	40 e0       	ldi	r20, 0x00	; 0
    3382:	82 e0       	ldi	r24, 0x02	; 2
    3384:	0e 94 c3 01 	call	0x386	; 0x386 <p16f7x_writeComm>
	p16f7x_writeComm(P16F7X_BEGIN_PROG, 0x0000, 1);
    3388:	41 e0       	ldi	r20, 0x01	; 1
    338a:	60 e0       	ldi	r22, 0x00	; 0
    338c:	70 e0       	ldi	r23, 0x00	; 0
    338e:	88 e0       	ldi	r24, 0x08	; 8
    3390:	0e 94 c3 01 	call	0x386	; 0x386 <p16f7x_writeComm>
    3394:	8f e1       	ldi	r24, 0x1F	; 31
    3396:	9e e4       	ldi	r25, 0x4E	; 78
    3398:	01 97       	sbiw	r24, 0x01	; 1
    339a:	f1 f7       	brne	.-4      	; 0x3398 <p16f676_restoreOsc+0xec>
    339c:	00 c0       	rjmp	.+0      	; 0x339e <p16f676_restoreOsc+0xf2>
    339e:	00 00       	nop
	_delay_ms(5);
	p16f7x_writeComm(0x0A, 0x0000, 1);
    33a0:	41 e0       	ldi	r20, 0x01	; 1
    33a2:	60 e0       	ldi	r22, 0x00	; 0
    33a4:	70 e0       	ldi	r23, 0x00	; 0
    33a6:	8a e0       	ldi	r24, 0x0A	; 10
    33a8:	0e 94 c3 01 	call	0x386	; 0x386 <p16f7x_writeComm>
	reset();
}
    33ac:	df 91       	pop	r29
    33ae:	cf 91       	pop	r28
	for(int i = 0; i < 0x3FF; i++) p16f7x_writeComm(P16F7X_INC_ADD, 0x0000, 1);
	p16f7x_writeComm(P16F7X_LOAD_DATA, oscal1, 0);
	p16f7x_writeComm(P16F7X_BEGIN_PROG, 0x0000, 1);
	_delay_ms(5);
	p16f7x_writeComm(0x0A, 0x0000, 1);
	reset();
    33b0:	0c 94 45 06 	jmp	0xc8a	; 0xc8a <reset>

000033b4 <p16f676_erase>:
}

#ifdef PIC16F676
void p16f676_erase(void)
{
	p16f676_storeOsc();
    33b4:	0e 94 c6 18 	call	0x318c	; 0x318c <p16f676_storeOsc>

	progMode();
    33b8:	0e 94 60 05 	call	0xac0	; 0xac0 <progMode>
	p16f7x_writeComm(P16F7X_LOAD_CONF, 0x0000, 0);
    33bc:	40 e0       	ldi	r20, 0x00	; 0
    33be:	60 e0       	ldi	r22, 0x00	; 0
    33c0:	70 e0       	ldi	r23, 0x00	; 0
    33c2:	80 e0       	ldi	r24, 0x00	; 0
    33c4:	0e 94 c3 01 	call	0x386	; 0x386 <p16f7x_writeComm>
    33c8:	2f ef       	ldi	r18, 0xFF	; 255
    33ca:	80 e7       	ldi	r24, 0x70	; 112
    33cc:	92 e0       	ldi	r25, 0x02	; 2
    33ce:	21 50       	subi	r18, 0x01	; 1
    33d0:	80 40       	sbci	r24, 0x00	; 0
    33d2:	90 40       	sbci	r25, 0x00	; 0
    33d4:	e1 f7       	brne	.-8      	; 0x33ce <p16f676_erase+0x1a>
    33d6:	00 c0       	rjmp	.+0      	; 0x33d8 <p16f676_erase+0x24>
    33d8:	00 00       	nop
	_delay_ms(50);
	p16f7x_writeComm(P16F628A_ERASE_CODE, 0x0000, 1);
    33da:	41 e0       	ldi	r20, 0x01	; 1
    33dc:	60 e0       	ldi	r22, 0x00	; 0
    33de:	70 e0       	ldi	r23, 0x00	; 0
    33e0:	89 e0       	ldi	r24, 0x09	; 9
    33e2:	0e 94 c3 01 	call	0x386	; 0x386 <p16f7x_writeComm>
    33e6:	2f ef       	ldi	r18, 0xFF	; 255
    33e8:	83 ec       	ldi	r24, 0xC3	; 195
    33ea:	99 e0       	ldi	r25, 0x09	; 9
    33ec:	21 50       	subi	r18, 0x01	; 1
    33ee:	80 40       	sbci	r24, 0x00	; 0
    33f0:	90 40       	sbci	r25, 0x00	; 0
    33f2:	e1 f7       	brne	.-8      	; 0x33ec <p16f676_erase+0x38>
    33f4:	00 c0       	rjmp	.+0      	; 0x33f6 <p16f676_erase+0x42>
    33f6:	00 00       	nop
	_delay_ms(200);
	reset();
    33f8:	0e 94 45 06 	call	0xc8a	; 0xc8a <reset>
    33fc:	2f ef       	ldi	r18, 0xFF	; 255
    33fe:	83 ec       	ldi	r24, 0xC3	; 195
    3400:	99 e0       	ldi	r25, 0x09	; 9
    3402:	21 50       	subi	r18, 0x01	; 1
    3404:	80 40       	sbci	r24, 0x00	; 0
    3406:	90 40       	sbci	r25, 0x00	; 0
    3408:	e1 f7       	brne	.-8      	; 0x3402 <p16f676_erase+0x4e>
    340a:	00 c0       	rjmp	.+0      	; 0x340c <p16f676_erase+0x58>
    340c:	00 00       	nop
	_delay_ms(200);

	progMode();
    340e:	0e 94 60 05 	call	0xac0	; 0xac0 <progMode>
    3412:	2f ef       	ldi	r18, 0xFF	; 255
    3414:	80 e7       	ldi	r24, 0x70	; 112
    3416:	92 e0       	ldi	r25, 0x02	; 2
    3418:	21 50       	subi	r18, 0x01	; 1
    341a:	80 40       	sbci	r24, 0x00	; 0
    341c:	90 40       	sbci	r25, 0x00	; 0
    341e:	e1 f7       	brne	.-8      	; 0x3418 <p16f676_erase+0x64>
    3420:	00 c0       	rjmp	.+0      	; 0x3422 <p16f676_erase+0x6e>
    3422:	00 00       	nop
	_delay_ms(50);
	p16f7x_writeComm(P16F628A_ERASE_DATA, 0x0000, 1);
    3424:	41 e0       	ldi	r20, 0x01	; 1
    3426:	60 e0       	ldi	r22, 0x00	; 0
    3428:	70 e0       	ldi	r23, 0x00	; 0
    342a:	8b e0       	ldi	r24, 0x0B	; 11
    342c:	0e 94 c3 01 	call	0x386	; 0x386 <p16f7x_writeComm>
    3430:	2f ef       	ldi	r18, 0xFF	; 255
    3432:	83 ec       	ldi	r24, 0xC3	; 195
    3434:	99 e0       	ldi	r25, 0x09	; 9
    3436:	21 50       	subi	r18, 0x01	; 1
    3438:	80 40       	sbci	r24, 0x00	; 0
    343a:	90 40       	sbci	r25, 0x00	; 0
    343c:	e1 f7       	brne	.-8      	; 0x3436 <p16f676_erase+0x82>
    343e:	00 c0       	rjmp	.+0      	; 0x3440 <p16f676_erase+0x8c>
    3440:	00 00       	nop
	_delay_ms(200);
	reset();
    3442:	0e 94 45 06 	call	0xc8a	; 0xc8a <reset>

	p16f676_restoreOsc();
    3446:	0c 94 56 19 	jmp	0x32ac	; 0x32ac <p16f676_restoreOsc>

0000344a <send_frame>:
	exchange[3] = 0x00;
	send_frame(exchange, 4);
}

void send_frame(uint8_t *buff, uint8_t count)
{
    344a:	ef 92       	push	r14
    344c:	ff 92       	push	r15
    344e:	0f 93       	push	r16
    3450:	1f 93       	push	r17
    3452:	cf 93       	push	r28
    3454:	df 93       	push	r29
    3456:	7c 01       	movw	r14, r24
	for(int n = 0; n < count; n++) USARTSend_char(buff[n]);
    3458:	8c 01       	movw	r16, r24
    345a:	c6 2f       	mov	r28, r22
    345c:	d0 e0       	ldi	r29, 0x00	; 0
    345e:	c8 01       	movw	r24, r16
    3460:	8e 19       	sub	r24, r14
    3462:	9f 09       	sbc	r25, r15
    3464:	8c 17       	cp	r24, r28
    3466:	9d 07       	cpc	r25, r29
    3468:	34 f4       	brge	.+12     	; 0x3476 <send_frame+0x2c>
    346a:	f8 01       	movw	r30, r16
    346c:	81 91       	ld	r24, Z+
    346e:	8f 01       	movw	r16, r30
    3470:	0e 94 41 1d 	call	0x3a82	; 0x3a82 <USARTSend_char>
    3474:	f4 cf       	rjmp	.-24     	; 0x345e <send_frame+0x14>
}
    3476:	df 91       	pop	r29
    3478:	cf 91       	pop	r28
    347a:	1f 91       	pop	r17
    347c:	0f 91       	pop	r16
    347e:	ff 90       	pop	r15
    3480:	ef 90       	pop	r14
    3482:	08 95       	ret

00003484 <send_successConn>:
uint32_t main_counter;


void send_successConn(void)
{
	exchange[0] = 0xFE;
    3484:	ea e6       	ldi	r30, 0x6A	; 106
    3486:	f2 e0       	ldi	r31, 0x02	; 2
    3488:	8e ef       	ldi	r24, 0xFE	; 254
    348a:	80 83       	st	Z, r24
	exchange[1] = 0x01;
    348c:	81 e0       	ldi	r24, 0x01	; 1
    348e:	81 83       	std	Z+1, r24	; 0x01
	exchange[2] = 0xCC;
    3490:	8c ec       	ldi	r24, 0xCC	; 204
    3492:	82 83       	std	Z+2, r24	; 0x02
	exchange[3] = 0x00;
    3494:	13 82       	std	Z+3, r1	; 0x03
	send_frame(exchange, 4);
    3496:	64 e0       	ldi	r22, 0x04	; 4
    3498:	cf 01       	movw	r24, r30
    349a:	0c 94 25 1a 	jmp	0x344a	; 0x344a <send_frame>

0000349e <send_arr>:
	for(int n = 0; n < count; n++) USARTSend_char(buff[n]);
}

//
void send_arr(uint8_t marker, uint8_t *buff, uint16_t count, uint16_t offset)
{
    349e:	df 92       	push	r13
    34a0:	ef 92       	push	r14
    34a2:	ff 92       	push	r15
    34a4:	0f 93       	push	r16
    34a6:	1f 93       	push	r17
    34a8:	cf 93       	push	r28
    34aa:	df 93       	push	r29
    34ac:	d8 2e       	mov	r13, r24
    34ae:	8b 01       	movw	r16, r22
    34b0:	7a 01       	movw	r14, r20
    34b2:	e9 01       	movw	r28, r18
	USARTSend_char(0xFE); //Start
    34b4:	8e ef       	ldi	r24, 0xFE	; 254
    34b6:	0e 94 41 1d 	call	0x3a82	; 0x3a82 <USARTSend_char>
	USARTSend_char(count);
    34ba:	8e 2d       	mov	r24, r14
    34bc:	0e 94 41 1d 	call	0x3a82	; 0x3a82 <USARTSend_char>
	USARTSend_char(marker);
    34c0:	8d 2d       	mov	r24, r13
    34c2:	0e 94 41 1d 	call	0x3a82	; 0x3a82 <USARTSend_char>
    34c6:	c0 0f       	add	r28, r16
    34c8:	d1 1f       	adc	r29, r17
	for(int u = 0; u < count; u++) USARTSend_char(buff[u + offset]);
    34ca:	8e 01       	movw	r16, r28
    34cc:	c8 01       	movw	r24, r16
    34ce:	8c 1b       	sub	r24, r28
    34d0:	9d 0b       	sbc	r25, r29
    34d2:	8e 15       	cp	r24, r14
    34d4:	9f 05       	cpc	r25, r15
    34d6:	30 f4       	brcc	.+12     	; 0x34e4 <send_arr+0x46>
    34d8:	f8 01       	movw	r30, r16
    34da:	81 91       	ld	r24, Z+
    34dc:	8f 01       	movw	r16, r30
    34de:	0e 94 41 1d 	call	0x3a82	; 0x3a82 <USARTSend_char>
    34e2:	f4 cf       	rjmp	.-24     	; 0x34cc <send_arr+0x2e>
}
    34e4:	df 91       	pop	r29
    34e6:	cf 91       	pop	r28
    34e8:	1f 91       	pop	r17
    34ea:	0f 91       	pop	r16
    34ec:	ff 90       	pop	r15
    34ee:	ef 90       	pop	r14
    34f0:	df 90       	pop	r13
    34f2:	08 95       	ret

000034f4 <deassemble_frame>:

void deassemble_frame(void)
{
    34f4:	0f 93       	push	r16
	PINS_ACTIVE
    34f6:	21 9a       	sbi	0x04, 1	; 4
    34f8:	22 9a       	sbi	0x04, 2	; 4

	switch(exchange[2])
    34fa:	80 91 6c 02 	lds	r24, 0x026C	; 0x80026c <exchange+0x2>
    34fe:	86 3a       	cpi	r24, 0xA6	; 166
    3500:	09 f4       	brne	.+2      	; 0x3504 <deassemble_frame+0x10>
    3502:	c6 c1       	rjmp	.+908    	; 0x3890 <deassemble_frame+0x39c>
    3504:	a0 f4       	brcc	.+40     	; 0x352e <deassemble_frame+0x3a>
    3506:	82 3a       	cpi	r24, 0xA2	; 162
    3508:	09 f4       	brne	.+2      	; 0x350c <deassemble_frame+0x18>
    350a:	d3 c0       	rjmp	.+422    	; 0x36b2 <deassemble_frame+0x1be>
    350c:	28 f4       	brcc	.+10     	; 0x3518 <deassemble_frame+0x24>
    350e:	80 3a       	cpi	r24, 0xA0	; 160
    3510:	29 f1       	breq	.+74     	; 0x355c <deassemble_frame+0x68>
    3512:	81 3a       	cpi	r24, 0xA1	; 161
    3514:	e1 f1       	breq	.+120    	; 0x358e <deassemble_frame+0x9a>
    3516:	a3 c2       	rjmp	.+1350   	; 0x3a5e <deassemble_frame+0x56a>
    3518:	e0 91 6d 02 	lds	r30, 0x026D	; 0x80026d <exchange+0x3>
    351c:	84 3a       	cpi	r24, 0xA4	; 164
    351e:	09 f4       	brne	.+2      	; 0x3522 <deassemble_frame+0x2e>
    3520:	18 c1       	rjmp	.+560    	; 0x3752 <deassemble_frame+0x25e>
    3522:	20 91 6e 02 	lds	r18, 0x026E	; 0x80026e <exchange+0x4>
    3526:	85 3a       	cpi	r24, 0xA5	; 165
    3528:	08 f4       	brcc	.+2      	; 0x352c <deassemble_frame+0x38>
    352a:	f7 c0       	rjmp	.+494    	; 0x371a <deassemble_frame+0x226>
    352c:	42 c1       	rjmp	.+644    	; 0x37b2 <deassemble_frame+0x2be>
    352e:	8b 3a       	cpi	r24, 0xAB	; 171
    3530:	09 f4       	brne	.+2      	; 0x3534 <deassemble_frame+0x40>
    3532:	3f c2       	rjmp	.+1150   	; 0x39b2 <deassemble_frame+0x4be>
    3534:	38 f4       	brcc	.+14     	; 0x3544 <deassemble_frame+0x50>
    3536:	87 3a       	cpi	r24, 0xA7	; 167
    3538:	09 f4       	brne	.+2      	; 0x353c <deassemble_frame+0x48>
    353a:	db c1       	rjmp	.+950    	; 0x38f2 <deassemble_frame+0x3fe>
    353c:	88 3a       	cpi	r24, 0xA8	; 168
    353e:	09 f4       	brne	.+2      	; 0x3542 <deassemble_frame+0x4e>
    3540:	10 c2       	rjmp	.+1056   	; 0x3962 <deassemble_frame+0x46e>
    3542:	8d c2       	rjmp	.+1306   	; 0x3a5e <deassemble_frame+0x56a>
    3544:	8f 3a       	cpi	r24, 0xAF	; 175
    3546:	09 f4       	brne	.+2      	; 0x354a <deassemble_frame+0x56>
    3548:	84 c2       	rjmp	.+1288   	; 0x3a52 <deassemble_frame+0x55e>
    354a:	8c 3c       	cpi	r24, 0xCC	; 204
    354c:	21 f0       	breq	.+8      	; 0x3556 <deassemble_frame+0x62>
    354e:	8c 3a       	cpi	r24, 0xAC	; 172
    3550:	09 f0       	breq	.+2      	; 0x3554 <deassemble_frame+0x60>
    3552:	85 c2       	rjmp	.+1290   	; 0x3a5e <deassemble_frame+0x56a>
    3554:	4d c2       	rjmp	.+1178   	; 0x39f0 <deassemble_frame+0x4fc>
	{
		case 0xCC:
		{
			send_successConn();
    3556:	0e 94 42 1a 	call	0x3484	; 0x3484 <send_successConn>
			break;
    355a:	81 c2       	rjmp	.+1282   	; 0x3a5e <deassemble_frame+0x56a>
		}
		case 0xA0: //Get ID
				{
					device = exchange[3];
    355c:	e0 91 6d 02 	lds	r30, 0x026D	; 0x80026d <exchange+0x3>
    3560:	e0 93 17 03 	sts	0x0317, r30	; 0x800317 <device>
					switch(device)
    3564:	8e 2f       	mov	r24, r30
    3566:	90 e0       	ldi	r25, 0x00	; 0
    3568:	fc 01       	movw	r30, r24
    356a:	31 97       	sbiw	r30, 0x01	; 1
    356c:	e4 31       	cpi	r30, 0x14	; 20
    356e:	f1 05       	cpc	r31, r1
    3570:	08 f0       	brcs	.+2      	; 0x3574 <deassemble_frame+0x80>
    3572:	75 c2       	rjmp	.+1258   	; 0x3a5e <deassemble_frame+0x56a>
    3574:	ec 5c       	subi	r30, 0xCC	; 204
    3576:	ff 4f       	sbci	r31, 0xFF	; 255
    3578:	0c 94 54 1d 	jmp	0x3aa8	; 0x3aa8 <__tablejump2__>
#endif
							case 0x07: { p16f7x_getId(); break; }
							case 0x0D: { p18fx5xx_getId(); break; }
							case 0x0E: { p16f7x_getId(); break; }
							case 0x0F: { p16f7x_getId(); break; }
							case 0x10: { p18fx5xx_getId(); break; }
    357c:	0e 94 c6 06 	call	0xd8c	; 0xd8c <p18fx5xx_getId>
    3580:	6e c2       	rjmp	.+1244   	; 0x3a5e <deassemble_frame+0x56a>
							case 0x11: { p16f7x_getId(); break; }
							case 0x12: { p16f184xx_getId(); break; }
							case 0x13: { p16f184xx_getId(); break; }
    3582:	0e 94 88 06 	call	0xd10	; 0xd10 <p16f184xx_getId>
    3586:	6b c2       	rjmp	.+1238   	; 0x3a5e <deassemble_frame+0x56a>
							case 0x14: { p16f7x_getId(); break; }
    3588:	0e 94 4d 06 	call	0xc9a	; 0xc9a <p16f7x_getId>
    358c:	68 c2       	rjmp	.+1232   	; 0x3a5e <deassemble_frame+0x56a>
					f_size = (uint32_t)(exchange[4] << 8);
					f_size = (f_size << 8);
					f_size |= (uint32_t)((exchange[5] << 8) | exchange[6]);
					*/

					switch(exchange[4])
    358e:	e0 91 6e 02 	lds	r30, 0x026E	; 0x80026e <exchange+0x4>
    3592:	8e 2f       	mov	r24, r30
    3594:	90 e0       	ldi	r25, 0x00	; 0
    3596:	fc 01       	movw	r30, r24
    3598:	31 97       	sbiw	r30, 0x01	; 1
    359a:	ed 30       	cpi	r30, 0x0D	; 13
    359c:	f1 05       	cpc	r31, r1
    359e:	08 f0       	brcs	.+2      	; 0x35a2 <deassemble_frame+0xae>
    35a0:	40 c0       	rjmp	.+128    	; 0x3622 <deassemble_frame+0x12e>
    35a2:	e8 5b       	subi	r30, 0xB8	; 184
    35a4:	ff 4f       	sbci	r31, 0xFF	; 255
    35a6:	0c 94 54 1d 	jmp	0x3aa8	; 0x3aa8 <__tablejump2__>
					{
						case 0x01: {f_size = 128; break;}
						case 0x02: {f_size = 256; break;}
    35aa:	80 e0       	ldi	r24, 0x00	; 0
    35ac:	91 e0       	ldi	r25, 0x01	; 1
    35ae:	a0 e0       	ldi	r26, 0x00	; 0
    35b0:	b0 e0       	ldi	r27, 0x00	; 0
    35b2:	3b c0       	rjmp	.+118    	; 0x362a <deassemble_frame+0x136>
						case 0x03: {f_size = 512; break;}
    35b4:	80 e0       	ldi	r24, 0x00	; 0
    35b6:	92 e0       	ldi	r25, 0x02	; 2
    35b8:	a0 e0       	ldi	r26, 0x00	; 0
    35ba:	b0 e0       	ldi	r27, 0x00	; 0
    35bc:	36 c0       	rjmp	.+108    	; 0x362a <deassemble_frame+0x136>
						case 0x04: {f_size = 1024; break;}
    35be:	80 e0       	ldi	r24, 0x00	; 0
    35c0:	94 e0       	ldi	r25, 0x04	; 4
    35c2:	a0 e0       	ldi	r26, 0x00	; 0
    35c4:	b0 e0       	ldi	r27, 0x00	; 0
    35c6:	31 c0       	rjmp	.+98     	; 0x362a <deassemble_frame+0x136>
						case 0x05: {f_size = 2048; break;}
    35c8:	80 e0       	ldi	r24, 0x00	; 0
    35ca:	98 e0       	ldi	r25, 0x08	; 8
    35cc:	a0 e0       	ldi	r26, 0x00	; 0
    35ce:	b0 e0       	ldi	r27, 0x00	; 0
    35d0:	2c c0       	rjmp	.+88     	; 0x362a <deassemble_frame+0x136>
						case 0x06: {f_size = 4096; break;}
    35d2:	80 e0       	ldi	r24, 0x00	; 0
    35d4:	90 e1       	ldi	r25, 0x10	; 16
    35d6:	a0 e0       	ldi	r26, 0x00	; 0
    35d8:	b0 e0       	ldi	r27, 0x00	; 0
    35da:	27 c0       	rjmp	.+78     	; 0x362a <deassemble_frame+0x136>
						case 0x07: {f_size = 8192; break;}
    35dc:	80 e0       	ldi	r24, 0x00	; 0
    35de:	90 e2       	ldi	r25, 0x20	; 32
    35e0:	a0 e0       	ldi	r26, 0x00	; 0
    35e2:	b0 e0       	ldi	r27, 0x00	; 0
    35e4:	22 c0       	rjmp	.+68     	; 0x362a <deassemble_frame+0x136>
						case 0x08: {f_size = 16384; break;}
    35e6:	80 e0       	ldi	r24, 0x00	; 0
    35e8:	90 e4       	ldi	r25, 0x40	; 64
    35ea:	a0 e0       	ldi	r26, 0x00	; 0
    35ec:	b0 e0       	ldi	r27, 0x00	; 0
    35ee:	1d c0       	rjmp	.+58     	; 0x362a <deassemble_frame+0x136>
						case 0x09: {f_size = 32768; break;}
    35f0:	80 e0       	ldi	r24, 0x00	; 0
    35f2:	90 e8       	ldi	r25, 0x80	; 128
    35f4:	a0 e0       	ldi	r26, 0x00	; 0
    35f6:	b0 e0       	ldi	r27, 0x00	; 0
    35f8:	18 c0       	rjmp	.+48     	; 0x362a <deassemble_frame+0x136>
						case 0x0A: {f_size = 65536; break;}
    35fa:	80 e0       	ldi	r24, 0x00	; 0
    35fc:	90 e0       	ldi	r25, 0x00	; 0
    35fe:	a1 e0       	ldi	r26, 0x01	; 1
    3600:	b0 e0       	ldi	r27, 0x00	; 0
    3602:	13 c0       	rjmp	.+38     	; 0x362a <deassemble_frame+0x136>
						case 0x0B: {f_size = 131072; break;}
    3604:	80 e0       	ldi	r24, 0x00	; 0
    3606:	90 e0       	ldi	r25, 0x00	; 0
    3608:	a2 e0       	ldi	r26, 0x02	; 2
    360a:	b0 e0       	ldi	r27, 0x00	; 0
    360c:	0e c0       	rjmp	.+28     	; 0x362a <deassemble_frame+0x136>
						case 0x0C: {f_size = 262144; break;}
    360e:	80 e0       	ldi	r24, 0x00	; 0
    3610:	90 e0       	ldi	r25, 0x00	; 0
    3612:	a4 e0       	ldi	r26, 0x04	; 4
    3614:	b0 e0       	ldi	r27, 0x00	; 0
    3616:	09 c0       	rjmp	.+18     	; 0x362a <deassemble_frame+0x136>
						case 0x0D: {f_size = 49152; break;}
    3618:	80 e0       	ldi	r24, 0x00	; 0
    361a:	90 ec       	ldi	r25, 0xC0	; 192
    361c:	a0 e0       	ldi	r26, 0x00	; 0
    361e:	b0 e0       	ldi	r27, 0x00	; 0
    3620:	04 c0       	rjmp	.+8      	; 0x362a <deassemble_frame+0x136>
						default:  {f_size = 128; break;}
    3622:	80 e8       	ldi	r24, 0x80	; 128
    3624:	90 e0       	ldi	r25, 0x00	; 0
    3626:	a0 e0       	ldi	r26, 0x00	; 0
    3628:	b0 e0       	ldi	r27, 0x00	; 0
    362a:	80 93 0a 03 	sts	0x030A, r24	; 0x80030a <f_size>
    362e:	90 93 0b 03 	sts	0x030B, r25	; 0x80030b <f_size+0x1>
    3632:	a0 93 0c 03 	sts	0x030C, r26	; 0x80030c <f_size+0x2>
    3636:	b0 93 0d 03 	sts	0x030D, r27	; 0x80030d <f_size+0x3>
					}

					ee_size = (uint32_t)((exchange[7] << 8) | exchange[8]);
    363a:	80 91 71 02 	lds	r24, 0x0271	; 0x800271 <exchange+0x7>
    363e:	90 e0       	ldi	r25, 0x00	; 0
    3640:	98 2f       	mov	r25, r24
    3642:	88 27       	eor	r24, r24
    3644:	20 91 72 02 	lds	r18, 0x0272	; 0x800272 <exchange+0x8>
    3648:	82 2b       	or	r24, r18
    364a:	90 93 11 03 	sts	0x0311, r25	; 0x800311 <ee_size+0x1>
    364e:	80 93 10 03 	sts	0x0310, r24	; 0x800310 <ee_size>

					device = exchange[3];
    3652:	e0 91 6d 02 	lds	r30, 0x026D	; 0x80026d <exchange+0x3>
    3656:	e0 93 17 03 	sts	0x0317, r30	; 0x800317 <device>

					osc_cnt = exchange[9];
    365a:	80 91 73 02 	lds	r24, 0x0273	; 0x800273 <exchange+0x9>
    365e:	80 93 14 03 	sts	0x0314, r24	; 0x800314 <osc_cnt>
					osc_start = exchange[10];
    3662:	80 91 74 02 	lds	r24, 0x0274	; 0x800274 <exchange+0xa>
    3666:	80 93 15 03 	sts	0x0315, r24	; 0x800315 <osc_start>

					switch(device)
    366a:	8e 2f       	mov	r24, r30
    366c:	90 e0       	ldi	r25, 0x00	; 0
    366e:	fc 01       	movw	r30, r24
    3670:	31 97       	sbiw	r30, 0x01	; 1
    3672:	e4 31       	cpi	r30, 0x14	; 20
    3674:	f1 05       	cpc	r31, r1
    3676:	08 f0       	brcs	.+2      	; 0x367a <deassemble_frame+0x186>
    3678:	f2 c1       	rjmp	.+996    	; 0x3a5e <deassemble_frame+0x56a>
    367a:	eb 5a       	subi	r30, 0xAB	; 171
    367c:	ff 4f       	sbci	r31, 0xFF	; 255
    367e:	0c 94 54 1d 	jmp	0x3aa8	; 0x3aa8 <__tablejump2__>
#ifdef PIC18FX5XX
							case 0x03: { p18fx5xx_read(); break; }
#endif
							case 0x04: { p16f628a_read(); break; }
#ifdef PIC18FXXK80
							case 0x05: { p18fxxk80_read(); break; }
    3682:	0e 94 1a 0d 	call	0x1a34	; 0x1a34 <p18fxxk80_read>
    3686:	eb c1       	rjmp	.+982    	; 0x3a5e <deassemble_frame+0x56a>
#endif

#ifdef PIC16F676
							case 0x06: { p16f628a_read(); p16f676_readOscall(); break; }
    3688:	0e 94 9e 0b 	call	0x173c	; 0x173c <p16f628a_read>
    368c:	a8 c1       	rjmp	.+848    	; 0x39de <deassemble_frame+0x4ea>
#endif
							case 0x07: { p16f628a_read(); p12f1840_readOscall(); break; }
    368e:	0e 94 9e 0b 	call	0x173c	; 0x173c <p16f628a_read>
    3692:	ab c1       	rjmp	.+854    	; 0x39ea <deassemble_frame+0x4f6>
							case 0x0A: { p16f7x_read(); break; }
							case 0x0B: { p16f7x_read(); break; }
							case 0x0C: { p16f7x_read(); break; }
#endif
							case 0x0D: { p18fx5xx_read(); break; }
							case 0x0E: { p16f183xx_read(); break; }
    3694:	0e 94 86 0a 	call	0x150c	; 0x150c <p16f183xx_read>
    3698:	e2 c1       	rjmp	.+964    	; 0x3a5e <deassemble_frame+0x56a>
							case 0x0F: { p16f628a_read(); break; }
							case 0x10: { p18fx5xx_read(); break; }
    369a:	0e 94 33 0c 	call	0x1866	; 0x1866 <p18fx5xx_read>
    369e:	df c1       	rjmp	.+958    	; 0x3a5e <deassemble_frame+0x56a>
							case 0x11: { p16f628a_read(); break; }
    36a0:	0e 94 9e 0b 	call	0x173c	; 0x173c <p16f628a_read>
    36a4:	dc c1       	rjmp	.+952    	; 0x3a5e <deassemble_frame+0x56a>
							case 0x12: { p16f184xx_read(); break; }
							case 0x13: { p16f184xx_read(); break; }
    36a6:	0e 94 0c 0b 	call	0x1618	; 0x1618 <p16f184xx_read>
    36aa:	d9 c1       	rjmp	.+946    	; 0x3a5e <deassemble_frame+0x56a>
							case 0x14: { p16f7x_read(); break; }
    36ac:	0e 94 26 0a 	call	0x144c	; 0x144c <p16f7x_read>
    36b0:	d6 c1       	rjmp	.+940    	; 0x3a5e <deassemble_frame+0x56a>
						}
					break;
				}
				case 0xA2: //Erase
						{
							device = exchange[3];
    36b2:	e0 91 6d 02 	lds	r30, 0x026D	; 0x80026d <exchange+0x3>
    36b6:	e0 93 17 03 	sts	0x0317, r30	; 0x800317 <device>
							switch(device)
    36ba:	8e 2f       	mov	r24, r30
    36bc:	90 e0       	ldi	r25, 0x00	; 0
    36be:	fc 01       	movw	r30, r24
    36c0:	31 97       	sbiw	r30, 0x01	; 1
    36c2:	e4 31       	cpi	r30, 0x14	; 20
    36c4:	f1 05       	cpc	r31, r1
    36c6:	08 f5       	brcc	.+66     	; 0x370a <deassemble_frame+0x216>
    36c8:	e7 59       	subi	r30, 0x97	; 151
    36ca:	ff 4f       	sbci	r31, 0xFF	; 255
    36cc:	0c 94 54 1d 	jmp	0x3aa8	; 0x3aa8 <__tablejump2__>
									case 0x01: { p16f7x_erase(); break; }
									case 0x02: { p16f628a_erase(); break; }
#ifdef PIC18FX5XX
									case 0x03: { p18fx5xx_erase(); break; }
#endif
									case 0x04: { p16f84a_erase(); break; }
    36d0:	0e 94 a3 0f 	call	0x1f46	; 0x1f46 <p16f84a_erase>
    36d4:	1a c0       	rjmp	.+52     	; 0x370a <deassemble_frame+0x216>
#ifdef PIC18FXXK80
									case 0x05: { p18fxxk80_erase(); break; }
    36d6:	0e 94 ce 10 	call	0x219c	; 0x219c <p18fxxk80_erase>
    36da:	17 c0       	rjmp	.+46     	; 0x370a <deassemble_frame+0x216>
#endif

#ifdef PIC16F676
									case 0x06: { p16f676_erase(); break; }
    36dc:	0e 94 da 19 	call	0x33b4	; 0x33b4 <p16f676_erase>
    36e0:	14 c0       	rjmp	.+40     	; 0x370a <deassemble_frame+0x216>
#endif
									case 0x07: { p16f628a_erase(); break; }
    36e2:	0e 94 34 0f 	call	0x1e68	; 0x1e68 <p16f628a_erase>
    36e6:	11 c0       	rjmp	.+34     	; 0x370a <deassemble_frame+0x216>
#ifdef BASELINE
									case 0x09: { p16f5x_erase(); break; }
									case 0x0A: { p16f5x_erase(); break; }
									case 0x0B: { p16f5x_erase(); break; }
									case 0x0C: { p16f5x_erase(); break; }
    36e8:	0e 94 67 0e 	call	0x1cce	; 0x1cce <p16f5x_erase>
    36ec:	0e c0       	rjmp	.+28     	; 0x370a <deassemble_frame+0x216>
#endif
									case 0x0D: { p18fx5xx_erase(); break; }
									case 0x0E: { p16f7x_erase(); break; }
									case 0x0F: { p16f81x_erase(); break; }
    36ee:	0e 94 8a 0f 	call	0x1f14	; 0x1f14 <p16f81x_erase>
    36f2:	0b c0       	rjmp	.+22     	; 0x370a <deassemble_frame+0x216>
									case 0x10: { p18fx5xx_erase(); break; }
    36f4:	0e 94 84 10 	call	0x2108	; 0x2108 <p18fx5xx_erase>
    36f8:	08 c0       	rjmp	.+16     	; 0x370a <deassemble_frame+0x216>
									case 0x11: { p16f87x_erase(); break; }
    36fa:	0e 94 26 10 	call	0x204c	; 0x204c <p16f87x_erase>
    36fe:	05 c0       	rjmp	.+10     	; 0x370a <deassemble_frame+0x216>
									case 0x12: { p16f184xx_erase(); break; }
									case 0x13: { p16f184xx_erase(); break; }
    3700:	0e 94 1a 0e 	call	0x1c34	; 0x1c34 <p16f184xx_erase>
    3704:	02 c0       	rjmp	.+4      	; 0x370a <deassemble_frame+0x216>
									case 0x14: { p16f7x_erase(); break; }
    3706:	0e 94 fd 0d 	call	0x1bfa	; 0x1bfa <p16f7x_erase>
									default: break;
								}

							main_buff[0] = 0xFE;
    370a:	8e ef       	ldi	r24, 0xFE	; 254
    370c:	80 93 6a 01 	sts	0x016A, r24	; 0x80016a <main_buff>
							main_buff[1] = 0x01;
    3710:	81 e0       	ldi	r24, 0x01	; 1
    3712:	80 93 6b 01 	sts	0x016B, r24	; 0x80016b <main_buff+0x1>
							main_buff[2] = 0xA2;
    3716:	82 ea       	ldi	r24, 0xA2	; 162
    3718:	92 c1       	rjmp	.+804    	; 0x3a3e <deassemble_frame+0x54a>
							send_frame(main_buff, 4);
							break;
						}
				case 0xA3: //Read config
						{
							device = exchange[3];
    371a:	e0 93 17 03 	sts	0x0317, r30	; 0x800317 <device>
							conf_cnt = exchange[4];
    371e:	20 93 16 03 	sts	0x0316, r18	; 0x800316 <conf_cnt>

							switch(device)
    3722:	8e 2f       	mov	r24, r30
    3724:	90 e0       	ldi	r25, 0x00	; 0
    3726:	fc 01       	movw	r30, r24
    3728:	31 97       	sbiw	r30, 0x01	; 1
    372a:	e4 31       	cpi	r30, 0x14	; 20
    372c:	f1 05       	cpc	r31, r1
    372e:	08 f0       	brcs	.+2      	; 0x3732 <deassemble_frame+0x23e>
    3730:	96 c1       	rjmp	.+812    	; 0x3a5e <deassemble_frame+0x56a>
    3732:	e3 58       	subi	r30, 0x83	; 131
    3734:	ff 4f       	sbci	r31, 0xFF	; 255
    3736:	0c 94 54 1d 	jmp	0x3aa8	; 0x3aa8 <__tablejump2__>
									case 0x07: { p16f7x_readCfg(); break; }
#ifdef BASELINE
									case 0x09: { p16f5x_readCfg(); break; }
									case 0x0A: { p16f5x_readCfg(); break; }
									case 0x0B: { p16f5x_readCfg(); break; }
									case 0x0C: { p16f5x_readCfg(); break; }
    373a:	0e 94 01 08 	call	0x1002	; 0x1002 <p16f5x_readCfg>
    373e:	8f c1       	rjmp	.+798    	; 0x3a5e <deassemble_frame+0x56a>
#endif
									case 0x0E: { p16f7x_readCfg(); break; }
									case 0x0F: { p16f7x_readCfg(); break; }
									case 0x10: { p18fx5xx_readCfg(); break; }
    3740:	0e 94 23 08 	call	0x1046	; 0x1046 <p18fx5xx_readCfg>
    3744:	8c c1       	rjmp	.+792    	; 0x3a5e <deassemble_frame+0x56a>
									case 0x11: { p16f7x_readCfg(); break; }
									case 0x12: { p16f184xx_readCfg(); break; }
									case 0x13: { p16f184xx_readCfg(); break; }
    3746:	0e 94 76 07 	call	0xeec	; 0xeec <p16f184xx_readCfg>
    374a:	89 c1       	rjmp	.+786    	; 0x3a5e <deassemble_frame+0x56a>
									case 0x14: { p16f7x_readCfg(); break; }
    374c:	0e 94 f4 06 	call	0xde8	; 0xde8 <p16f7x_readCfg>
    3750:	86 c1       	rjmp	.+780    	; 0x3a5e <deassemble_frame+0x56a>
								}
							break;
						}
				case 0xA4: //Write config
						{
							device = exchange[3];
    3752:	e0 93 17 03 	sts	0x0317, r30	; 0x800317 <device>
							conf_cnt = exchange[18];
    3756:	80 91 7c 02 	lds	r24, 0x027C	; 0x80027c <exchange+0x12>
    375a:	80 93 16 03 	sts	0x0316, r24	; 0x800316 <conf_cnt>

							switch(device)
    375e:	8e 2f       	mov	r24, r30
    3760:	90 e0       	ldi	r25, 0x00	; 0
    3762:	fc 01       	movw	r30, r24
    3764:	31 97       	sbiw	r30, 0x01	; 1
    3766:	e4 31       	cpi	r30, 0x14	; 20
    3768:	f1 05       	cpc	r31, r1
    376a:	d8 f4       	brcc	.+54     	; 0x37a2 <deassemble_frame+0x2ae>
    376c:	ef 56       	subi	r30, 0x6F	; 111
    376e:	ff 4f       	sbci	r31, 0xFF	; 255
    3770:	0c 94 54 1d 	jmp	0x3aa8	; 0x3aa8 <__tablejump2__>
									case 0x01: { p16f7x_writeCfg(); break; }
									case 0x02: { p16f7x_writeCfg(); break; }
#ifdef PIC18FX5XX
									case 0x03: { p18fx5xx_writeCfg(); break; }
#endif
									case 0x04: { p16f84a_writeCfg(); break; }
    3774:	0e 94 6f 09 	call	0x12de	; 0x12de <p16f84a_writeCfg>
    3778:	14 c0       	rjmp	.+40     	; 0x37a2 <deassemble_frame+0x2ae>
#ifdef PIC18FXXK80
									case 0x05: { p18fxxk80_writeCfg(); break; }
    377a:	0e 94 dd 09 	call	0x13ba	; 0x13ba <p18fxxk80_writeCfg>
    377e:	11 c0       	rjmp	.+34     	; 0x37a2 <deassemble_frame+0x2ae>
#endif

#ifdef PIC16F676
									case 0x06: { p16f676_writeCfg(); break; }
    3780:	0e 94 11 19 	call	0x3222	; 0x3222 <p16f676_writeCfg>
    3784:	0e c0       	rjmp	.+28     	; 0x37a2 <deassemble_frame+0x2ae>
									case 0x07: { p12f1840_writeCfg(); break; }
#ifdef BASELINE
									case 0x09: { p16f5x_writeCfg(); break; }
									case 0x0A: { p16f5x_writeCfg(); break; }
									case 0x0B: { p16f5x_writeCfg(); break; }
									case 0x0C: { p16f5x_writeCfg(); break; }
    3786:	0e 94 04 09 	call	0x1208	; 0x1208 <p16f5x_writeCfg>
    378a:	0b c0       	rjmp	.+22     	; 0x37a2 <deassemble_frame+0x2ae>
#endif
									case 0x0E: { p12f1840_writeCfg(); break; }
									case 0x0F: { p12f1840_writeCfg(); break; }
									case 0x10: { p18fx5xx_writeCfg(); break; }
    378c:	0e 94 9f 09 	call	0x133e	; 0x133e <p18fx5xx_writeCfg>
    3790:	08 c0       	rjmp	.+16     	; 0x37a2 <deassemble_frame+0x2ae>
									case 0x11: { p12f1840_writeCfg(); break; }
    3792:	0e 94 2c 09 	call	0x1258	; 0x1258 <p12f1840_writeCfg>
    3796:	05 c0       	rjmp	.+10     	; 0x37a2 <deassemble_frame+0x2ae>
									case 0x12: { p16f184xx_writeCfg(); break; }
									case 0x13: { p16f184xx_writeCfg(); break; }
    3798:	0e 94 a5 08 	call	0x114a	; 0x114a <p16f184xx_writeCfg>
    379c:	02 c0       	rjmp	.+4      	; 0x37a2 <deassemble_frame+0x2ae>
									case 0x14: { p16f7x_writeCfg(); break; }
    379e:	0e 94 63 08 	call	0x10c6	; 0x10c6 <p16f7x_writeCfg>
									default: break;
								}

							main_buff[0] = 0xFE;
    37a2:	8e ef       	ldi	r24, 0xFE	; 254
    37a4:	80 93 6a 01 	sts	0x016A, r24	; 0x80016a <main_buff>
							main_buff[1] = 0x01;
    37a8:	81 e0       	ldi	r24, 0x01	; 1
    37aa:	80 93 6b 01 	sts	0x016B, r24	; 0x80016b <main_buff+0x1>
							main_buff[2] = 0xA4;
    37ae:	84 ea       	ldi	r24, 0xA4	; 164
    37b0:	46 c1       	rjmp	.+652    	; 0x3a3e <deassemble_frame+0x54a>
							send_frame(main_buff, 4);
							break;
						}
				case 0xA5: //Prepare to write code
				{
					device = exchange[3];
    37b2:	e0 93 17 03 	sts	0x0317, r30	; 0x800317 <device>
					f_size = (exchange[4] << 8);
					f_size = f_size << 8;
					f_size |= exchange[6] | (exchange[5] << 8);
    37b6:	80 91 6f 02 	lds	r24, 0x026F	; 0x80026f <exchange+0x5>
    37ba:	90 e0       	ldi	r25, 0x00	; 0
    37bc:	98 2f       	mov	r25, r24
    37be:	88 27       	eor	r24, r24
    37c0:	30 91 70 02 	lds	r19, 0x0270	; 0x800270 <exchange+0x6>
    37c4:	83 2b       	or	r24, r19
    37c6:	ac 01       	movw	r20, r24
    37c8:	99 0f       	add	r25, r25
    37ca:	66 0b       	sbc	r22, r22
    37cc:	77 0b       	sbc	r23, r23
							break;
						}
				case 0xA5: //Prepare to write code
				{
					device = exchange[3];
					f_size = (exchange[4] << 8);
    37ce:	30 e0       	ldi	r19, 0x00	; 0
    37d0:	92 2f       	mov	r25, r18
    37d2:	88 27       	eor	r24, r24
    37d4:	09 2e       	mov	r0, r25
    37d6:	00 0c       	add	r0, r0
    37d8:	aa 0b       	sbc	r26, r26
    37da:	bb 0b       	sbc	r27, r27
					f_size = f_size << 8;
    37dc:	ba 2f       	mov	r27, r26
    37de:	a9 2f       	mov	r26, r25
    37e0:	98 2f       	mov	r25, r24
    37e2:	88 27       	eor	r24, r24
					f_size |= exchange[6] | (exchange[5] << 8);
    37e4:	84 2b       	or	r24, r20
    37e6:	95 2b       	or	r25, r21
    37e8:	a6 2b       	or	r26, r22
    37ea:	b7 2b       	or	r27, r23
    37ec:	80 93 0a 03 	sts	0x030A, r24	; 0x80030a <f_size>
    37f0:	90 93 0b 03 	sts	0x030B, r25	; 0x80030b <f_size+0x1>
    37f4:	a0 93 0c 03 	sts	0x030C, r26	; 0x80030c <f_size+0x2>
    37f8:	b0 93 0d 03 	sts	0x030D, r27	; 0x80030d <f_size+0x3>
					ee_size = exchange[8] | (exchange[7] << 8);
    37fc:	80 91 71 02 	lds	r24, 0x0271	; 0x800271 <exchange+0x7>
    3800:	90 e0       	ldi	r25, 0x00	; 0
    3802:	98 2f       	mov	r25, r24
    3804:	88 27       	eor	r24, r24
    3806:	20 91 72 02 	lds	r18, 0x0272	; 0x800272 <exchange+0x8>
    380a:	82 2b       	or	r24, r18
    380c:	90 93 11 03 	sts	0x0311, r25	; 0x800311 <ee_size+0x1>
    3810:	80 93 10 03 	sts	0x0310, r24	; 0x800310 <ee_size>
					wr_delay = exchange[10] | (exchange[9] << 8);
    3814:	80 91 73 02 	lds	r24, 0x0273	; 0x800273 <exchange+0x9>
    3818:	90 e0       	ldi	r25, 0x00	; 0
    381a:	98 2f       	mov	r25, r24
    381c:	88 27       	eor	r24, r24
    381e:	20 91 74 02 	lds	r18, 0x0274	; 0x800274 <exchange+0xa>
    3822:	82 2b       	or	r24, r18
    3824:	90 93 0f 03 	sts	0x030F, r25	; 0x80030f <wr_delay+0x1>
    3828:	80 93 0e 03 	sts	0x030E, r24	; 0x80030e <wr_delay>
					f_psize = exchange[11];
    382c:	80 91 75 02 	lds	r24, 0x0275	; 0x800275 <exchange+0xb>
    3830:	90 e0       	ldi	r25, 0x00	; 0
    3832:	90 93 13 03 	sts	0x0313, r25	; 0x800313 <f_psize+0x1>
    3836:	80 93 12 03 	sts	0x0312, r24	; 0x800312 <f_psize>
					switch(device)
    383a:	8e 2f       	mov	r24, r30
    383c:	90 e0       	ldi	r25, 0x00	; 0
    383e:	fc 01       	movw	r30, r24
    3840:	31 97       	sbiw	r30, 0x01	; 1
    3842:	e4 31       	cpi	r30, 0x14	; 20
    3844:	f1 05       	cpc	r31, r1
    3846:	08 f0       	brcs	.+2      	; 0x384a <deassemble_frame+0x356>
    3848:	4c c0       	rjmp	.+152    	; 0x38e2 <deassemble_frame+0x3ee>
    384a:	eb 55       	subi	r30, 0x5B	; 91
    384c:	ff 4f       	sbci	r31, 0xFF	; 255
    384e:	0c 94 54 1d 	jmp	0x3aa8	; 0x3aa8 <__tablejump2__>
						{
							case 0x01: { p16f7x_progMode(); break; }
							case 0x02: { p16f628A_progMode(); break; }
    3852:	0e 94 a9 01 	call	0x352	; 0x352 <p16f628A_progMode>
    3856:	45 c0       	rjmp	.+138    	; 0x38e2 <deassemble_frame+0x3ee>
#ifdef PIC18FXXK80
							case 0x05: { main_counter = 0; break; }
#endif

#ifdef PIC16F676
							case 0x06: { p16f676_storeOsc(); p16f628A_progMode(); main_counter = 0; break; }
    3858:	0e 94 c6 18 	call	0x318c	; 0x318c <p16f676_storeOsc>
    385c:	0e 94 a9 01 	call	0x352	; 0x352 <p16f628A_progMode>
    3860:	0b c0       	rjmp	.+22     	; 0x3878 <deassemble_frame+0x384>
							case 0x07: { p16f7x_progMode(); break; }
#ifdef BASELINE
							case 0x09: { p16f7x_progMode(); p16f7x_writeComm(P16F7X_INC_ADD, 0x0000, 1); break; }
							case 0x0A: { p16f7x_progMode(); p16f7x_writeComm(P16F7X_INC_ADD, 0x0000, 1); break; }
							case 0x0B: { p16f7x_progMode(); p16f7x_writeComm(P16F7X_INC_ADD, 0x0000, 1); break; }
							case 0x0C: { p16f7x_progMode(); p16f7x_writeComm(P16F7X_INC_ADD, 0x0000, 1); break; }
    3862:	0e 94 8f 01 	call	0x31e	; 0x31e <p16f7x_progMode>
    3866:	41 e0       	ldi	r20, 0x01	; 1
    3868:	60 e0       	ldi	r22, 0x00	; 0
    386a:	70 e0       	ldi	r23, 0x00	; 0
    386c:	86 e0       	ldi	r24, 0x06	; 6
    386e:	0e 94 c3 01 	call	0x386	; 0x386 <p16f7x_writeComm>
    3872:	37 c0       	rjmp	.+110    	; 0x38e2 <deassemble_frame+0x3ee>
#endif
							case 0x0E: { p16f7x_progMode(); break; }
							case 0x0F: { p16f7x_progMode(); break; }
							case 0x10: { main_counter = 0; break; }
							case 0x11: { p16f7x_progMode(); break; }
							case 0x12: { p16f7x_progMode(); main_counter = 0; break; }
    3874:	0e 94 8f 01 	call	0x31e	; 0x31e <p16f7x_progMode>
    3878:	10 92 06 03 	sts	0x0306, r1	; 0x800306 <main_counter>
    387c:	10 92 07 03 	sts	0x0307, r1	; 0x800307 <main_counter+0x1>
    3880:	10 92 08 03 	sts	0x0308, r1	; 0x800308 <main_counter+0x2>
    3884:	10 92 09 03 	sts	0x0309, r1	; 0x800309 <main_counter+0x3>
    3888:	2c c0       	rjmp	.+88     	; 0x38e2 <deassemble_frame+0x3ee>
							case 0x13: { p16f7x_progMode(); break; }
							case 0x14: { p16f7x_progMode(); break; }
    388a:	0e 94 8f 01 	call	0x31e	; 0x31e <p16f7x_progMode>
    388e:	29 c0       	rjmp	.+82     	; 0x38e2 <deassemble_frame+0x3ee>
					send_frame(main_buff, 4);
					break;
				}
				case 0xA6: //Write code
				{
					device = exchange[3];
    3890:	e0 91 6d 02 	lds	r30, 0x026D	; 0x80026d <exchange+0x3>
    3894:	e0 93 17 03 	sts	0x0317, r30	; 0x800317 <device>
					switch(device)
    3898:	8e 2f       	mov	r24, r30
    389a:	90 e0       	ldi	r25, 0x00	; 0
    389c:	fc 01       	movw	r30, r24
    389e:	31 97       	sbiw	r30, 0x01	; 1
    38a0:	e4 31       	cpi	r30, 0x14	; 20
    38a2:	f1 05       	cpc	r31, r1
    38a4:	f0 f4       	brcc	.+60     	; 0x38e2 <deassemble_frame+0x3ee>
    38a6:	e7 54       	subi	r30, 0x47	; 71
    38a8:	ff 4f       	sbci	r31, 0xFF	; 255
    38aa:	0c 94 54 1d 	jmp	0x3aa8	; 0x3aa8 <__tablejump2__>
							case 0x01: { p16f7x_progCode(); break; }
							case 0x02: { p16f628a_progCode(); break; }
#ifdef PIC18FX5XX
							case 0x03: { p18fx5xx_progCode(); break; }
#endif
							case 0x04: { p16f84a_progCode(); break; }
    38ae:	0e 94 58 12 	call	0x24b0	; 0x24b0 <p16f84a_progCode>
    38b2:	17 c0       	rjmp	.+46     	; 0x38e2 <deassemble_frame+0x3ee>
#ifdef PIC18FXXK80
							case 0x05: { p18fxxk80_progCode(); break; }
    38b4:	0e 94 2a 14 	call	0x2854	; 0x2854 <p18fxxk80_progCode>
    38b8:	14 c0       	rjmp	.+40     	; 0x38e2 <deassemble_frame+0x3ee>
#endif

#ifdef PIC16F676
							case 0x06: { p16f676_progCode(); break; }
    38ba:	0e 94 fe 11 	call	0x23fc	; 0x23fc <p16f676_progCode>
    38be:	11 c0       	rjmp	.+34     	; 0x38e2 <deassemble_frame+0x3ee>
							case 0x0A: { p16f7x_progCode(); break; }
							case 0x0B: { p16f7x_progCode(); break; }
							case 0x0C: { p16f7x_progCode(); break; }
#endif
							case 0x0E: { p16f628a_progCode(); break; }
							case 0x0F: { p16f81x_progCode(); break; }
    38c0:	0e 94 ca 11 	call	0x2394	; 0x2394 <p16f81x_progCode>
    38c4:	0e c0       	rjmp	.+28     	; 0x38e2 <deassemble_frame+0x3ee>
							case 0x10: { p18fx5xx_progCode(); break; }
    38c6:	0e 94 66 13 	call	0x26cc	; 0x26cc <p18fx5xx_progCode>
    38ca:	0b c0       	rjmp	.+22     	; 0x38e2 <deassemble_frame+0x3ee>
							case 0x11: { p16f628a_progCode(); break; }
    38cc:	0e 94 9c 11 	call	0x2338	; 0x2338 <p16f628a_progCode>
    38d0:	08 c0       	rjmp	.+16     	; 0x38e2 <deassemble_frame+0x3ee>
							case 0x12: { p16f184xx_progCode(); break; }
    38d2:	0e 94 95 12 	call	0x252a	; 0x252a <p16f184xx_progCode>
    38d6:	05 c0       	rjmp	.+10     	; 0x38e2 <deassemble_frame+0x3ee>
							case 0x13: { p18fxxq10_progCode(); break; }
    38d8:	0e 94 3c 13 	call	0x2678	; 0x2678 <p18fxxq10_progCode>
    38dc:	02 c0       	rjmp	.+4      	; 0x38e2 <deassemble_frame+0x3ee>
							case 0x14: { p16f7x_progCode(); break; }
    38de:	0e 94 4f 11 	call	0x229e	; 0x229e <p16f7x_progCode>
							default: break;
						}
					main_buff[0] = 0xFE;
    38e2:	8e ef       	ldi	r24, 0xFE	; 254
    38e4:	80 93 6a 01 	sts	0x016A, r24	; 0x80016a <main_buff>
					main_buff[1] = 0x01;
    38e8:	81 e0       	ldi	r24, 0x01	; 1
    38ea:	80 93 6b 01 	sts	0x016B, r24	; 0x80016b <main_buff+0x1>
					main_buff[2] = 0xA6;
    38ee:	86 ea       	ldi	r24, 0xA6	; 166
    38f0:	a6 c0       	rjmp	.+332    	; 0x3a3e <deassemble_frame+0x54a>
					send_frame(main_buff, 4);
					break;
				}
				case 0xA7: //Prepare to write eeprom
				{
					device = exchange[3];
    38f2:	e0 91 6d 02 	lds	r30, 0x026D	; 0x80026d <exchange+0x3>
    38f6:	e0 93 17 03 	sts	0x0317, r30	; 0x800317 <device>
					switch(device)
    38fa:	8e 2f       	mov	r24, r30
    38fc:	90 e0       	ldi	r25, 0x00	; 0
    38fe:	fc 01       	movw	r30, r24
    3900:	32 97       	sbiw	r30, 0x02	; 2
    3902:	e2 31       	cpi	r30, 0x12	; 18
    3904:	f1 05       	cpc	r31, r1
    3906:	08 f0       	brcs	.+2      	; 0x390a <deassemble_frame+0x416>
    3908:	4c c0       	rjmp	.+152    	; 0x39a2 <deassemble_frame+0x4ae>
    390a:	e3 53       	subi	r30, 0x33	; 51
    390c:	ff 4f       	sbci	r31, 0xFF	; 255
    390e:	0c 94 54 1d 	jmp	0x3aa8	; 0x3aa8 <__tablejump2__>
#ifdef PIC18FXXK80
							case 0x05: { main_counter = 0; break; }
#endif

#ifdef PIC16F676
							case 0x06: { p16f628A_progMode(); break; }
    3912:	0e 94 a9 01 	call	0x352	; 0x352 <p16f628A_progMode>
    3916:	45 c0       	rjmp	.+138    	; 0x39a2 <deassemble_frame+0x4ae>
#endif
							case 0x07: { p16f7x_progMode(); break; }
							case 0x0E:
							{
								p16f7x_progMode();
    3918:	0e 94 8f 01 	call	0x31e	; 0x31e <p16f7x_progMode>
								p16f183xx_setAdd(0x1D, 0x00, 0xF0, 0x00); //Load ADD to 0xF000
    391c:	20 e0       	ldi	r18, 0x00	; 0
    391e:	40 ef       	ldi	r20, 0xF0	; 240
    3920:	60 e0       	ldi	r22, 0x00	; 0
    3922:	8d e1       	ldi	r24, 0x1D	; 29
    3924:	0e 94 31 02 	call	0x462	; 0x462 <p16f183xx_setAdd>
								break;
    3928:	3c c0       	rjmp	.+120    	; 0x39a2 <deassemble_frame+0x4ae>
							}
							case 0x0F: { p16f7x_progMode(); break; }
							case 0x10: { main_counter = 0; break; }
    392a:	10 92 06 03 	sts	0x0306, r1	; 0x800306 <main_counter>
    392e:	10 92 07 03 	sts	0x0307, r1	; 0x800307 <main_counter+0x1>
    3932:	10 92 08 03 	sts	0x0308, r1	; 0x800308 <main_counter+0x2>
    3936:	10 92 09 03 	sts	0x0309, r1	; 0x800309 <main_counter+0x3>
    393a:	33 c0       	rjmp	.+102    	; 0x39a2 <deassemble_frame+0x4ae>
							case 0x11: { p16f7x_progMode(); break; }
    393c:	0e 94 8f 01 	call	0x31e	; 0x31e <p16f7x_progMode>
    3940:	30 c0       	rjmp	.+96     	; 0x39a2 <deassemble_frame+0x4ae>
							case 0x12:
							{
								p16f7x_progMode();
    3942:	0e 94 8f 01 	call	0x31e	; 0x31e <p16f7x_progMode>
								p16f184xx_writeComm(0x80, 0, 0x00, 0xF0, 0x00);
    3946:	00 e0       	ldi	r16, 0x00	; 0
    3948:	20 ef       	ldi	r18, 0xF0	; 240
    394a:	40 e0       	ldi	r20, 0x00	; 0
    394c:	05 c0       	rjmp	.+10     	; 0x3958 <deassemble_frame+0x464>
								break;
							}
							case 0x13:
							{
								p16f7x_progMode();
    394e:	0e 94 8f 01 	call	0x31e	; 0x31e <p16f7x_progMode>
								p16f184xx_writeComm(0x80, 0, 0x31, 0x00, 0x00);
    3952:	00 e0       	ldi	r16, 0x00	; 0
    3954:	20 e0       	ldi	r18, 0x00	; 0
    3956:	41 e3       	ldi	r20, 0x31	; 49
    3958:	60 e0       	ldi	r22, 0x00	; 0
    395a:	80 e8       	ldi	r24, 0x80	; 128
    395c:	0e 94 d4 02 	call	0x5a8	; 0x5a8 <p16f184xx_writeComm>
								break;
    3960:	20 c0       	rjmp	.+64     	; 0x39a2 <deassemble_frame+0x4ae>

					break;
				}
				case 0xA8: //Write eeprom
				{
					device = exchange[3];
    3962:	e0 91 6d 02 	lds	r30, 0x026D	; 0x80026d <exchange+0x3>
    3966:	e0 93 17 03 	sts	0x0317, r30	; 0x800317 <device>
					switch(device)
    396a:	8e 2f       	mov	r24, r30
    396c:	90 e0       	ldi	r25, 0x00	; 0
    396e:	fc 01       	movw	r30, r24
    3970:	32 97       	sbiw	r30, 0x02	; 2
    3972:	e2 31       	cpi	r30, 0x12	; 18
    3974:	f1 05       	cpc	r31, r1
    3976:	a8 f4       	brcc	.+42     	; 0x39a2 <deassemble_frame+0x4ae>
    3978:	e1 52       	subi	r30, 0x21	; 33
    397a:	ff 4f       	sbci	r31, 0xFF	; 255
    397c:	0c 94 54 1d 	jmp	0x3aa8	; 0x3aa8 <__tablejump2__>
#ifdef PIC18FX5XX
							case 0x03: { p18fx5xx_progData(); break; }
#endif
							case 0x04: { p16f628a_progData(); break; }
#ifdef PIC18FXXK80
							case 0x05: { p18fxxk80_progData(); break; }
    3980:	0e 94 58 16 	call	0x2cb0	; 0x2cb0 <p18fxxk80_progData>
    3984:	0e c0       	rjmp	.+28     	; 0x39a2 <deassemble_frame+0x4ae>

#ifdef PIC16F676
							case 0x06: { p16f628a_progData(); break; }
#endif
							case 0x07: { p16f628a_progData(); break; }
							case 0x0E: { p16f183xx_progData(); break; }
    3986:	0e 94 3c 15 	call	0x2a78	; 0x2a78 <p16f183xx_progData>
    398a:	0b c0       	rjmp	.+22     	; 0x39a2 <deassemble_frame+0x4ae>
							case 0x0F: { p16f81x_progData(); break; }
    398c:	0e 94 10 15 	call	0x2a20	; 0x2a20 <p16f81x_progData>
    3990:	08 c0       	rjmp	.+16     	; 0x39a2 <deassemble_frame+0x4ae>
							case 0x10: { p18fx5xx_progData(); break; }
    3992:	0e 94 ae 15 	call	0x2b5c	; 0x2b5c <p18fx5xx_progData>
    3996:	05 c0       	rjmp	.+10     	; 0x39a2 <deassemble_frame+0x4ae>
							case 0x11: { p16f628a_progData(); break; }
    3998:	0e 94 ea 14 	call	0x29d4	; 0x29d4 <p16f628a_progData>
    399c:	02 c0       	rjmp	.+4      	; 0x39a2 <deassemble_frame+0x4ae>
							case 0x12: { p16f184xx_progData(); break; }
							case 0x13: { p16f184xx_progData(); break; }
    399e:	0e 94 62 15 	call	0x2ac4	; 0x2ac4 <p16f184xx_progData>
							default: break;
						}
					main_buff[0] = 0xFE;
    39a2:	8e ef       	ldi	r24, 0xFE	; 254
    39a4:	80 93 6a 01 	sts	0x016A, r24	; 0x80016a <main_buff>
					main_buff[1] = 0x01;
    39a8:	81 e0       	ldi	r24, 0x01	; 1
    39aa:	80 93 6b 01 	sts	0x016B, r24	; 0x80016b <main_buff+0x1>
					main_buff[2] = 0xA8;
    39ae:	88 ea       	ldi	r24, 0xA8	; 168
    39b0:	46 c0       	rjmp	.+140    	; 0x3a3e <deassemble_frame+0x54a>
					break;
				}
				//Read Oscal
				case 0xAB:
				{
					device = exchange[3];
    39b2:	80 91 6d 02 	lds	r24, 0x026D	; 0x80026d <exchange+0x3>
    39b6:	80 93 17 03 	sts	0x0317, r24	; 0x800317 <device>
					osc_start = exchange[4];
    39ba:	90 91 6e 02 	lds	r25, 0x026E	; 0x80026e <exchange+0x4>
    39be:	90 93 15 03 	sts	0x0315, r25	; 0x800315 <osc_start>
					switch(device)
    39c2:	8a 30       	cpi	r24, 0x0A	; 10
    39c4:	79 f0       	breq	.+30     	; 0x39e4 <deassemble_frame+0x4f0>
    39c6:	28 f4       	brcc	.+10     	; 0x39d2 <deassemble_frame+0x4de>
    39c8:	86 30       	cpi	r24, 0x06	; 6
    39ca:	49 f0       	breq	.+18     	; 0x39de <deassemble_frame+0x4ea>
    39cc:	87 30       	cpi	r24, 0x07	; 7
    39ce:	69 f0       	breq	.+26     	; 0x39ea <deassemble_frame+0x4f6>
    39d0:	46 c0       	rjmp	.+140    	; 0x3a5e <deassemble_frame+0x56a>
    39d2:	8c 30       	cpi	r24, 0x0C	; 12
    39d4:	39 f0       	breq	.+14     	; 0x39e4 <deassemble_frame+0x4f0>
    39d6:	30 f0       	brcs	.+12     	; 0x39e4 <deassemble_frame+0x4f0>
    39d8:	8e 30       	cpi	r24, 0x0E	; 14
    39da:	39 f0       	breq	.+14     	; 0x39ea <deassemble_frame+0x4f6>
    39dc:	40 c0       	rjmp	.+128    	; 0x3a5e <deassemble_frame+0x56a>
						{
#ifdef PIC16F676
							case 0x06: { p16f676_readOscall(); break; }
    39de:	0e 94 02 17 	call	0x2e04	; 0x2e04 <p16f676_readOscall>
    39e2:	3d c0       	rjmp	.+122    	; 0x3a5e <deassemble_frame+0x56a>
#endif
							case 0x07: { p12f1840_readOscall(); break; }
#ifdef BASELINE
							case 0x0A: { p16f5x_readOscall(); break; }
							case 0x0B: { p16f5x_readOscall(); break; }
							case 0x0C: { p16f5x_readOscall(); break; }
    39e4:	0e 94 a7 17 	call	0x2f4e	; 0x2f4e <p16f5x_readOscall>
    39e8:	3a c0       	rjmp	.+116    	; 0x3a5e <deassemble_frame+0x56a>
#endif
							case 0x0E: { p12f1840_readOscall(); break; }
    39ea:	0e 94 37 17 	call	0x2e6e	; 0x2e6e <p12f1840_readOscall>
    39ee:	37 c0       	rjmp	.+110    	; 0x3a5e <deassemble_frame+0x56a>
					break;
				}
				//Write Oscal
				case 0xAC:
				{
					device = exchange[3];
    39f0:	80 91 6d 02 	lds	r24, 0x026D	; 0x80026d <exchange+0x3>
    39f4:	80 93 17 03 	sts	0x0317, r24	; 0x800317 <device>
					osc_start = exchange[10];
    39f8:	90 91 74 02 	lds	r25, 0x0274	; 0x800274 <exchange+0xa>
    39fc:	90 93 15 03 	sts	0x0315, r25	; 0x800315 <osc_start>
					osc_cnt = exchange[11];
    3a00:	90 91 75 02 	lds	r25, 0x0275	; 0x800275 <exchange+0xb>
    3a04:	90 93 14 03 	sts	0x0314, r25	; 0x800314 <osc_cnt>

					switch(device)
    3a08:	8a 30       	cpi	r24, 0x0A	; 10
    3a0a:	81 f0       	breq	.+32     	; 0x3a2c <deassemble_frame+0x538>
    3a0c:	38 f4       	brcc	.+14     	; 0x3a1c <deassemble_frame+0x528>
    3a0e:	86 30       	cpi	r24, 0x06	; 6
    3a10:	51 f0       	breq	.+20     	; 0x3a26 <deassemble_frame+0x532>
    3a12:	87 30       	cpi	r24, 0x07	; 7
    3a14:	69 f4       	brne	.+26     	; 0x3a30 <deassemble_frame+0x53c>
						{
#ifdef PIC16F676
							case 0x06: { p16f676_writeOscall(); break; }
#endif
							case 0x07: { p12f1840_writeOscall(); break; }
    3a16:	0e 94 78 18 	call	0x30f0	; 0x30f0 <p12f1840_writeOscall>
    3a1a:	0a c0       	rjmp	.+20     	; 0x3a30 <deassemble_frame+0x53c>
				{
					device = exchange[3];
					osc_start = exchange[10];
					osc_cnt = exchange[11];

					switch(device)
    3a1c:	8b 30       	cpi	r24, 0x0B	; 11
    3a1e:	31 f0       	breq	.+12     	; 0x3a2c <deassemble_frame+0x538>
    3a20:	8c 30       	cpi	r24, 0x0C	; 12
    3a22:	21 f0       	breq	.+8      	; 0x3a2c <deassemble_frame+0x538>
    3a24:	05 c0       	rjmp	.+10     	; 0x3a30 <deassemble_frame+0x53c>
						{
#ifdef PIC16F676
							case 0x06: { p16f676_writeOscall(); break; }
    3a26:	0e 94 40 18 	call	0x3080	; 0x3080 <p16f676_writeOscall>
    3a2a:	02 c0       	rjmp	.+4      	; 0x3a30 <deassemble_frame+0x53c>
#endif
							case 0x07: { p12f1840_writeOscall(); break; }
#ifdef BASELINE
							case 0x0A: { p12f5x_writeOscall(); break; }
							case 0x0B: { p12f5x_writeOscall(); break; }
							case 0x0C: { p12f5x_writeOscall(); break; }
    3a2c:	0e 94 ec 17 	call	0x2fd8	; 0x2fd8 <p12f5x_writeOscall>
#endif

							default: break;
						}

					main_buff[0] = 0xFE;
    3a30:	8e ef       	ldi	r24, 0xFE	; 254
    3a32:	80 93 6a 01 	sts	0x016A, r24	; 0x80016a <main_buff>
					main_buff[1] = 0x01;
    3a36:	81 e0       	ldi	r24, 0x01	; 1
    3a38:	80 93 6b 01 	sts	0x016B, r24	; 0x80016b <main_buff+0x1>
					main_buff[2] = 0xAC;
    3a3c:	8c ea       	ldi	r24, 0xAC	; 172
    3a3e:	80 93 6c 01 	sts	0x016C, r24	; 0x80016c <main_buff+0x2>
					main_buff[3] = 0x00;
    3a42:	10 92 6d 01 	sts	0x016D, r1	; 0x80016d <main_buff+0x3>
					send_frame(main_buff, 4);
    3a46:	64 e0       	ldi	r22, 0x04	; 4
    3a48:	8a e6       	ldi	r24, 0x6A	; 106
    3a4a:	91 e0       	ldi	r25, 0x01	; 1
    3a4c:	0e 94 25 1a 	call	0x344a	; 0x344a <send_frame>
					break;
    3a50:	06 c0       	rjmp	.+12     	; 0x3a5e <deassemble_frame+0x56a>
				}
				//Reset
				case 0xAF:
				{
					device = exchange[3];
    3a52:	80 91 6d 02 	lds	r24, 0x026D	; 0x80026d <exchange+0x3>
    3a56:	80 93 17 03 	sts	0x0317, r24	; 0x800317 <device>
					reset();
    3a5a:	0e 94 45 06 	call	0xc8a	; 0xc8a <reset>
		default:
		{
			break;
		}
	}
	PINS_IDDLE
    3a5e:	21 98       	cbi	0x04, 1	; 4
    3a60:	22 98       	cbi	0x04, 2	; 4
}
    3a62:	0f 91       	pop	r16
    3a64:	08 95       	ret

00003a66 <usart_init>:

void usart_init(void)
{
	uint16_t divider = CPU_CLOCK/(16 * BAUDE) - 1;
	
	UCSR0A = 0x00;
    3a66:	10 92 c0 00 	sts	0x00C0, r1	; 0x8000c0 <__TEXT_REGION_LENGTH__+0x7e00c0>
	//UCSR0B = 0x00;
	UCSR0B = (1<<RXEN0)|(1<<TXEN0)|(1<<RXCIE0);
    3a6a:	88 e9       	ldi	r24, 0x98	; 152
    3a6c:	80 93 c1 00 	sts	0x00C1, r24	; 0x8000c1 <__TEXT_REGION_LENGTH__+0x7e00c1>
	UCSR0C = ((1 << UCSZ00) | (1 << UCSZ01));
    3a70:	86 e0       	ldi	r24, 0x06	; 6
    3a72:	80 93 c2 00 	sts	0x00C2, r24	; 0x8000c2 <__TEXT_REGION_LENGTH__+0x7e00c2>

	UBRR0H = ((divider>>8) & 0xFF);
    3a76:	10 92 c5 00 	sts	0x00C5, r1	; 0x8000c5 <__TEXT_REGION_LENGTH__+0x7e00c5>
	UBRR0L = (divider & 0xFF);
    3a7a:	80 e1       	ldi	r24, 0x10	; 16
    3a7c:	80 93 c4 00 	sts	0x00C4, r24	; 0x8000c4 <__TEXT_REGION_LENGTH__+0x7e00c4>
    3a80:	08 95       	ret

00003a82 <USARTSend_char>:

}

void USARTSend_char(uint8_t data)
{
	while(!(UCSR0A & (1<<UDRE0)));
    3a82:	90 91 c0 00 	lds	r25, 0x00C0	; 0x8000c0 <__TEXT_REGION_LENGTH__+0x7e00c0>
    3a86:	95 ff       	sbrs	r25, 5
    3a88:	fc cf       	rjmp	.-8      	; 0x3a82 <USARTSend_char>
	UDR0 = data;
    3a8a:	80 93 c6 00 	sts	0x00C6, r24	; 0x8000c6 <__TEXT_REGION_LENGTH__+0x7e00c6>
    3a8e:	08 95       	ret

00003a90 <usart_sendString>:
}

void usart_sendString(uint8_t* str)
{
    3a90:	cf 93       	push	r28
    3a92:	df 93       	push	r29
    3a94:	ec 01       	movw	r28, r24
	int chr = 0;
	while(str[chr]!=0)
    3a96:	89 91       	ld	r24, Y+
    3a98:	88 23       	and	r24, r24
    3a9a:	19 f0       	breq	.+6      	; 0x3aa2 <usart_sendString+0x12>
	{
		USARTSend_char(str[chr]);
    3a9c:	0e 94 41 1d 	call	0x3a82	; 0x3a82 <USARTSend_char>
    3aa0:	fa cf       	rjmp	.-12     	; 0x3a96 <usart_sendString+0x6>
		chr++;
	}
}
    3aa2:	df 91       	pop	r29
    3aa4:	cf 91       	pop	r28
    3aa6:	08 95       	ret

00003aa8 <__tablejump2__>:
    3aa8:	ee 0f       	add	r30, r30
    3aaa:	ff 1f       	adc	r31, r31
    3aac:	05 90       	lpm	r0, Z+
    3aae:	f4 91       	lpm	r31, Z
    3ab0:	e0 2d       	mov	r30, r0
    3ab2:	09 94       	ijmp

00003ab4 <_exit>:
    3ab4:	f8 94       	cli

00003ab6 <__stop_program>:
    3ab6:	ff cf       	rjmp	.-2      	; 0x3ab6 <__stop_program>
