
PIC_PROG.elf:     file format elf32-avr

Sections:
Idx Name          Size      VMA       LMA       File off  Algn
  0 .data         0000001c  00800100  00002bd8  00002c6c  2**0
                  CONTENTS, ALLOC, LOAD, DATA
  1 .text         00002bd8  00000000  00000000  00000094  2**1
                  CONTENTS, ALLOC, LOAD, READONLY, CODE
  2 .bss          000001b2  0080011c  0080011c  00002c88  2**0
                  ALLOC
  3 .stab         00005b80  00000000  00000000  00002c88  2**2
                  CONTENTS, READONLY, DEBUGGING
  4 .stabstr      00002169  00000000  00000000  00008808  2**0
                  CONTENTS, READONLY, DEBUGGING
  5 .comment      00000060  00000000  00000000  0000a971  2**0
                  CONTENTS, READONLY
  6 .note.gnu.avr.deviceinfo 00000040  00000000  00000000  0000a9d4  2**2
                  CONTENTS, READONLY
  7 .debug_info   000005f4  00000000  00000000  0000aa14  2**0
                  CONTENTS, READONLY, DEBUGGING
  8 .debug_abbrev 000005a2  00000000  00000000  0000b008  2**0
                  CONTENTS, READONLY, DEBUGGING
  9 .debug_line   0000001a  00000000  00000000  0000b5aa  2**0
                  CONTENTS, READONLY, DEBUGGING
 10 .debug_str    00000208  00000000  00000000  0000b5c4  2**0
                  CONTENTS, READONLY, DEBUGGING

Disassembly of section .text:

00000000 <__vectors>:
       0:	0c 94 92 00 	jmp	0x124	; 0x124 <__ctors_end>
       4:	0c 94 af 00 	jmp	0x15e	; 0x15e <__bad_interrupt>
       8:	0c 94 af 00 	jmp	0x15e	; 0x15e <__bad_interrupt>
       c:	0c 94 af 00 	jmp	0x15e	; 0x15e <__bad_interrupt>
      10:	0c 94 af 00 	jmp	0x15e	; 0x15e <__bad_interrupt>
      14:	0c 94 af 00 	jmp	0x15e	; 0x15e <__bad_interrupt>
      18:	0c 94 af 00 	jmp	0x15e	; 0x15e <__bad_interrupt>
      1c:	0c 94 af 00 	jmp	0x15e	; 0x15e <__bad_interrupt>
      20:	0c 94 af 00 	jmp	0x15e	; 0x15e <__bad_interrupt>
      24:	0c 94 af 00 	jmp	0x15e	; 0x15e <__bad_interrupt>
      28:	0c 94 af 00 	jmp	0x15e	; 0x15e <__bad_interrupt>
      2c:	0c 94 af 00 	jmp	0x15e	; 0x15e <__bad_interrupt>
      30:	0c 94 af 00 	jmp	0x15e	; 0x15e <__bad_interrupt>
      34:	0c 94 af 00 	jmp	0x15e	; 0x15e <__bad_interrupt>
      38:	0c 94 af 00 	jmp	0x15e	; 0x15e <__bad_interrupt>
      3c:	0c 94 af 00 	jmp	0x15e	; 0x15e <__bad_interrupt>
      40:	0c 94 af 00 	jmp	0x15e	; 0x15e <__bad_interrupt>
      44:	0c 94 af 00 	jmp	0x15e	; 0x15e <__bad_interrupt>
      48:	0c 94 bb 00 	jmp	0x176	; 0x176 <__vector_18>
      4c:	0c 94 af 00 	jmp	0x15e	; 0x15e <__bad_interrupt>
      50:	0c 94 af 00 	jmp	0x15e	; 0x15e <__bad_interrupt>
      54:	0c 94 af 00 	jmp	0x15e	; 0x15e <__bad_interrupt>
      58:	0c 94 af 00 	jmp	0x15e	; 0x15e <__bad_interrupt>
      5c:	0c 94 af 00 	jmp	0x15e	; 0x15e <__bad_interrupt>
      60:	0c 94 af 00 	jmp	0x15e	; 0x15e <__bad_interrupt>
      64:	0c 94 af 00 	jmp	0x15e	; 0x15e <__bad_interrupt>
      68:	33 13       	cpse	r19, r19
      6a:	58 13       	cpse	r21, r24
      6c:	b4 13       	cpse	r27, r20
      6e:	e5 13       	cpse	r30, r21
      70:	11 14       	cp	r1, r1
      72:	49 14       	cp	r4, r9
      74:	cd 14       	cp	r12, r13
      76:	fe 14       	cp	r15, r14
      78:	3b 15       	cp	r19, r11
      7a:	bc 15       	cp	r27, r12
      7c:	bc 15       	cp	r27, r12
      7e:	6c 15       	cp	r22, r12
      80:	7f 15       	cp	r23, r15
      82:	bc 15       	cp	r27, r12
      84:	bc 15       	cp	r27, r12
      86:	a2 15       	cp	r26, r2
      88:	bc 15       	cp	r27, r12
      8a:	bc 15       	cp	r27, r12
      8c:	bc 15       	cp	r27, r12
      8e:	bc 15       	cp	r27, r12
      90:	bc 15       	cp	r27, r12
      92:	bc 15       	cp	r27, r12
      94:	bc 15       	cp	r27, r12
      96:	bc 15       	cp	r27, r12
      98:	bc 15       	cp	r27, r12
      9a:	bc 15       	cp	r27, r12
      9c:	bc 15       	cp	r27, r12
      9e:	bc 15       	cp	r27, r12
      a0:	bc 15       	cp	r27, r12
      a2:	bc 15       	cp	r27, r12
      a4:	bc 15       	cp	r27, r12
      a6:	bc 15       	cp	r27, r12
      a8:	bc 15       	cp	r27, r12
      aa:	bc 15       	cp	r27, r12
      ac:	bc 15       	cp	r27, r12
      ae:	bc 15       	cp	r27, r12
      b0:	bc 15       	cp	r27, r12
      b2:	bc 15       	cp	r27, r12
      b4:	bc 15       	cp	r27, r12
      b6:	bc 15       	cp	r27, r12
      b8:	bc 15       	cp	r27, r12
      ba:	bc 15       	cp	r27, r12
      bc:	bc 15       	cp	r27, r12
      be:	bc 15       	cp	r27, r12
      c0:	30 13       	cpse	r19, r16
      c2:	43 13       	cpse	r20, r19
      c4:	46 13       	cpse	r20, r22
      c6:	49 13       	cpse	r20, r25
      c8:	4c 13       	cpse	r20, r28
      ca:	4f 13       	cpse	r20, r31
      cc:	52 13       	cpse	r21, r18
      ce:	55 13       	cpse	r21, r21
      d0:	9b 13       	cpse	r25, r27
      d2:	9e 13       	cpse	r25, r30
      d4:	a1 13       	cpse	r26, r17
      d6:	a4 13       	cpse	r26, r20
      d8:	a7 13       	cpse	r26, r23
      da:	aa 13       	cpse	r26, r26
      dc:	af 13       	cpse	r26, r31
      de:	c3 13       	cpse	r28, r19
      e0:	c6 13       	cpse	r28, r22
      e2:	c9 13       	cpse	r28, r25
      e4:	cc 13       	cpse	r28, r28
      e6:	cf 13       	cpse	r28, r31
      e8:	d2 13       	cpse	r29, r18
      ea:	d5 13       	cpse	r29, r21
      ec:	fc 13       	cpse	r31, r28
      ee:	ff 13       	cpse	r31, r31
      f0:	02 14       	cp	r0, r2
      f2:	05 14       	cp	r0, r5
      f4:	08 14       	cp	r0, r8
      f6:	0b 14       	cp	r0, r11
      f8:	0e 14       	cp	r0, r14
      fa:	27 14       	cp	r2, r7
      fc:	2a 14       	cp	r2, r10
      fe:	2d 14       	cp	r2, r13
     100:	30 14       	cp	r3, r0
     102:	33 14       	cp	r3, r3
     104:	36 14       	cp	r3, r6
     106:	39 14       	cp	r3, r9
     108:	95 14       	cp	r9, r5
     10a:	98 14       	cp	r9, r8
     10c:	9b 14       	cp	r9, r11
     10e:	a4 14       	cp	r10, r4
     110:	a7 14       	cp	r10, r7
     112:	b0 14       	cp	r11, r0
     114:	bd 14       	cp	r11, r13
     116:	dc 14       	cp	r13, r12
     118:	df 14       	cp	r13, r15
     11a:	e2 14       	cp	r14, r2
     11c:	e5 14       	cp	r14, r5
     11e:	e8 14       	cp	r14, r8
     120:	eb 14       	cp	r14, r11
     122:	ee 14       	cp	r14, r14

00000124 <__ctors_end>:
     124:	11 24       	eor	r1, r1
     126:	1f be       	out	0x3f, r1	; 63
     128:	cf ef       	ldi	r28, 0xFF	; 255
     12a:	d8 e0       	ldi	r29, 0x08	; 8
     12c:	de bf       	out	0x3e, r29	; 62
     12e:	cd bf       	out	0x3d, r28	; 61

00000130 <__do_copy_data>:
     130:	11 e0       	ldi	r17, 0x01	; 1
     132:	a0 e0       	ldi	r26, 0x00	; 0
     134:	b1 e0       	ldi	r27, 0x01	; 1
     136:	e8 ed       	ldi	r30, 0xD8	; 216
     138:	fb e2       	ldi	r31, 0x2B	; 43
     13a:	02 c0       	rjmp	.+4      	; 0x140 <__do_copy_data+0x10>
     13c:	05 90       	lpm	r0, Z+
     13e:	0d 92       	st	X+, r0
     140:	ac 31       	cpi	r26, 0x1C	; 28
     142:	b1 07       	cpc	r27, r17
     144:	d9 f7       	brne	.-10     	; 0x13c <__do_copy_data+0xc>

00000146 <__do_clear_bss>:
     146:	22 e0       	ldi	r18, 0x02	; 2
     148:	ac e1       	ldi	r26, 0x1C	; 28
     14a:	b1 e0       	ldi	r27, 0x01	; 1
     14c:	01 c0       	rjmp	.+2      	; 0x150 <.do_clear_bss_start>

0000014e <.do_clear_bss_loop>:
     14e:	1d 92       	st	X+, r1

00000150 <.do_clear_bss_start>:
     150:	ae 3c       	cpi	r26, 0xCE	; 206
     152:	b2 07       	cpc	r27, r18
     154:	e1 f7       	brne	.-8      	; 0x14e <.do_clear_bss_loop>
     156:	0e 94 01 01 	call	0x202	; 0x202 <main>
     15a:	0c 94 ea 15 	jmp	0x2bd4	; 0x2bd4 <_exit>

0000015e <__bad_interrupt>:
     15e:	0c 94 00 00 	jmp	0	; 0x0 <__vectors>

00000162 <gpio_init>:

#include "gpio.h"

void gpio_init(void)
{
	PGD_DDR |= (1 << PGD_PIN);
     162:	24 9a       	sbi	0x04, 4	; 4
	PGC_DDR |= (1 << PGC_PIN);
     164:	25 9a       	sbi	0x04, 5	; 4
	PGM_DDR |= (1 << PGM_PIN);
     166:	23 9a       	sbi	0x04, 3	; 4
	VDD_DDR |= (1 << VDD_PIN);
     168:	53 9a       	sbi	0x0a, 3	; 10
	VPP_DDR |= (1 << VPP_PIN);
     16a:	54 9a       	sbi	0x0a, 4	; 10
     16c:	08 95       	ret

0000016e <pgd_read>:
}

void pgd_read(void)
{
	PGD_DDR &= ~(1 << PGD_PIN);
     16e:	24 98       	cbi	0x04, 4	; 4
     170:	08 95       	ret

00000172 <pgd_write>:
}

void pgd_write(void)
{
	PGD_DDR |= (1 << PGD_PIN);
     172:	24 9a       	sbi	0x04, 4	; 4
     174:	08 95       	ret

00000176 <__vector_18>:
uint8_t main_buff[256];
uint8_t read_bsy = 0;


ISR(USART_RX_vect)
{
     176:	1f 92       	push	r1
     178:	0f 92       	push	r0
     17a:	0f b6       	in	r0, 0x3f	; 63
     17c:	0f 92       	push	r0
     17e:	11 24       	eor	r1, r1
     180:	2f 93       	push	r18
     182:	3f 93       	push	r19
     184:	8f 93       	push	r24
     186:	9f 93       	push	r25
     188:	ef 93       	push	r30
     18a:	ff 93       	push	r31
	if(!(UCSR0A & ((1 << FE0) | (1 << DOR0) | (1 << UPE0))))
     18c:	80 91 c0 00 	lds	r24, 0x00C0	; 0x8000c0 <__TEXT_REGION_LENGTH__+0x7e00c0>
     190:	8c 71       	andi	r24, 0x1C	; 28
     192:	61 f5       	brne	.+88     	; 0x1ec <__vector_18+0x76>
	{
		exchange[rx_counter] = UDR0;
     194:	80 91 1f 01 	lds	r24, 0x011F	; 0x80011f <rx_counter>
     198:	90 91 c6 00 	lds	r25, 0x00C6	; 0x8000c6 <__TEXT_REGION_LENGTH__+0x7e00c6>
     19c:	e8 2f       	mov	r30, r24
     19e:	f0 e0       	ldi	r31, 0x00	; 0
     1a0:	e0 5e       	subi	r30, 0xE0	; 224
     1a2:	fd 4f       	sbci	r31, 0xFD	; 253
     1a4:	90 83       	st	Z, r25
		rx_counter++;
     1a6:	8f 5f       	subi	r24, 0xFF	; 255
     1a8:	80 93 1f 01 	sts	0x011F, r24	; 0x80011f <rx_counter>
		if(rx_counter == 3) {packet_size = exchange[1];}
     1ac:	83 30       	cpi	r24, 0x03	; 3
     1ae:	21 f4       	brne	.+8      	; 0x1b8 <__vector_18+0x42>
     1b0:	90 91 21 02 	lds	r25, 0x0221	; 0x800221 <exchange+0x1>
     1b4:	90 93 1d 01 	sts	0x011D, r25	; 0x80011d <packet_size>
		if((packet_size > 0) && (rx_counter == packet_size + 3))
     1b8:	20 91 1d 01 	lds	r18, 0x011D	; 0x80011d <packet_size>
     1bc:	22 23       	and	r18, r18
     1be:	b1 f0       	breq	.+44     	; 0x1ec <__vector_18+0x76>
     1c0:	90 e0       	ldi	r25, 0x00	; 0
     1c2:	30 e0       	ldi	r19, 0x00	; 0
     1c4:	2d 5f       	subi	r18, 0xFD	; 253
     1c6:	3f 4f       	sbci	r19, 0xFF	; 255
     1c8:	82 17       	cp	r24, r18
     1ca:	93 07       	cpc	r25, r19
     1cc:	79 f4       	brne	.+30     	; 0x1ec <__vector_18+0x76>
		{
			rx_counter = 0;
     1ce:	10 92 1f 01 	sts	0x011F, r1	; 0x80011f <rx_counter>
			packet_size = 0;
     1d2:	10 92 1d 01 	sts	0x011D, r1	; 0x80011d <packet_size>
			if(exchange[2] == 0x3D) read_bsy = 1;
     1d6:	80 91 22 02 	lds	r24, 0x0222	; 0x800222 <exchange+0x2>
     1da:	8d 33       	cpi	r24, 0x3D	; 61
     1dc:	21 f4       	brne	.+8      	; 0x1e6 <__vector_18+0x70>
     1de:	81 e0       	ldi	r24, 0x01	; 1
     1e0:	80 93 1c 01 	sts	0x011C, r24	; 0x80011c <__data_end>
     1e4:	03 c0       	rjmp	.+6      	; 0x1ec <__vector_18+0x76>
			else full_buff = 1;
     1e6:	81 e0       	ldi	r24, 0x01	; 1
     1e8:	80 93 1e 01 	sts	0x011E, r24	; 0x80011e <full_buff>
		}
	}
}
     1ec:	ff 91       	pop	r31
     1ee:	ef 91       	pop	r30
     1f0:	9f 91       	pop	r25
     1f2:	8f 91       	pop	r24
     1f4:	3f 91       	pop	r19
     1f6:	2f 91       	pop	r18
     1f8:	0f 90       	pop	r0
     1fa:	0f be       	out	0x3f, r0	; 63
     1fc:	0f 90       	pop	r0
     1fe:	1f 90       	pop	r1
     200:	18 95       	reti

00000202 <main>:


int main(void)
{

	usart_init();
     202:	0e 94 bf 15 	call	0x2b7e	; 0x2b7e <usart_init>
	gpio_init();
     206:	0e 94 b1 00 	call	0x162	; 0x162 <gpio_init>

	PGD_LOW
     20a:	2c 98       	cbi	0x05, 4	; 5
	PGC_LOW
     20c:	2d 98       	cbi	0x05, 5	; 5
	PGM_LOW
     20e:	2b 98       	cbi	0x05, 3	; 5
	VDD_LOW
     210:	5b 98       	cbi	0x0b, 3	; 11
	VPP_LOW
     212:	5c 98       	cbi	0x0b, 4	; 11

	sei();
     214:	78 94       	sei


	while(1)
	{
		if(full_buff)
     216:	80 91 1e 01 	lds	r24, 0x011E	; 0x80011e <full_buff>
     21a:	88 23       	and	r24, r24
     21c:	21 f0       	breq	.+8      	; 0x226 <main+0x24>
		{
			deassemble_frame();
     21e:	0e 94 1f 13 	call	0x263e	; 0x263e <deassemble_frame>
			full_buff = 0;
     222:	10 92 1e 01 	sts	0x011E, r1	; 0x80011e <full_buff>
		}
		asm(" ");
	}
     226:	f7 cf       	rjmp	.-18     	; 0x216 <main+0x14>

00000228 <delay_ms>:
uint16_t oscal1, oscal2, oscal3;


void delay_ms(uint16_t del)
{
	for(int d = 0; d < del; d++) _delay_ms(1);
     228:	00 97       	sbiw	r24, 0x00	; 0
     22a:	69 f0       	breq	.+26     	; 0x246 <delay_ms+0x1e>
     22c:	20 e0       	ldi	r18, 0x00	; 0
     22e:	30 e0       	ldi	r19, 0x00	; 0
	#else
		//round up by default
		__ticks_dc = (uint32_t)(ceil(fabs(__tmp)));
	#endif

	__builtin_avr_delay_cycles(__ticks_dc);
     230:	ef e9       	ldi	r30, 0x9F	; 159
     232:	ff e0       	ldi	r31, 0x0F	; 15
     234:	31 97       	sbiw	r30, 0x01	; 1
     236:	f1 f7       	brne	.-4      	; 0x234 <delay_ms+0xc>
     238:	00 c0       	rjmp	.+0      	; 0x23a <delay_ms+0x12>
     23a:	00 00       	nop
     23c:	2f 5f       	subi	r18, 0xFF	; 255
     23e:	3f 4f       	sbci	r19, 0xFF	; 255
     240:	28 17       	cp	r18, r24
     242:	39 07       	cpc	r19, r25
     244:	a9 f7       	brne	.-22     	; 0x230 <delay_ms+0x8>
     246:	08 95       	ret

00000248 <delay_us>:
}

void delay_us(uint16_t del)
{
	for(int d = 0; d < del; d++) _delay_us(1);
     248:	00 97       	sbiw	r24, 0x00	; 0
     24a:	59 f0       	breq	.+22     	; 0x262 <delay_us+0x1a>
     24c:	20 e0       	ldi	r18, 0x00	; 0
     24e:	30 e0       	ldi	r19, 0x00	; 0
	#else
		//round up by default
		__ticks_dc = (uint32_t)(ceil(fabs(__tmp)));
	#endif

	__builtin_avr_delay_cycles(__ticks_dc);
     250:	45 e0       	ldi	r20, 0x05	; 5
     252:	4a 95       	dec	r20
     254:	f1 f7       	brne	.-4      	; 0x252 <delay_us+0xa>
     256:	00 00       	nop
     258:	2f 5f       	subi	r18, 0xFF	; 255
     25a:	3f 4f       	sbci	r19, 0xFF	; 255
     25c:	28 17       	cp	r18, r24
     25e:	39 07       	cpc	r19, r25
     260:	b9 f7       	brne	.-18     	; 0x250 <delay_us+0x8>
     262:	08 95       	ret

00000264 <p16f7x_progMode>:
}


void p16f7x_progMode(void)
{
	pgd_write();
     264:	0e 94 b9 00 	call	0x172	; 0x172 <pgd_write>
	  PGM_LOW
     268:	2b 98       	cbi	0x05, 3	; 5
	  PGC_LOW
     26a:	2d 98       	cbi	0x05, 5	; 5
	  PGD_LOW
     26c:	2c 98       	cbi	0x05, 4	; 5
     26e:	87 ec       	ldi	r24, 0xC7	; 199
     270:	90 e0       	ldi	r25, 0x00	; 0
     272:	01 97       	sbiw	r24, 0x01	; 1
     274:	f1 f7       	brne	.-4      	; 0x272 <p16f7x_progMode+0xe>
     276:	00 c0       	rjmp	.+0      	; 0x278 <p16f7x_progMode+0x14>
     278:	00 00       	nop
	  _delay_us(50);
	  VDD_HIGH
     27a:	5b 9a       	sbi	0x0b, 3	; 11
     27c:	87 ec       	ldi	r24, 0xC7	; 199
     27e:	90 e0       	ldi	r25, 0x00	; 0
     280:	01 97       	sbiw	r24, 0x01	; 1
     282:	f1 f7       	brne	.-4      	; 0x280 <p16f7x_progMode+0x1c>
     284:	00 c0       	rjmp	.+0      	; 0x286 <p16f7x_progMode+0x22>
     286:	00 00       	nop
	  _delay_us(50);
	  VPP_HIGH
     288:	5c 9a       	sbi	0x0b, 4	; 11
	#else
		//round up by default
		__ticks_dc = (uint32_t)(ceil(fabs(__tmp)));
	#endif

	__builtin_avr_delay_cycles(__ticks_dc);
     28a:	8f e9       	ldi	r24, 0x9F	; 159
     28c:	9f e0       	ldi	r25, 0x0F	; 15
     28e:	01 97       	sbiw	r24, 0x01	; 1
     290:	f1 f7       	brne	.-4      	; 0x28e <p16f7x_progMode+0x2a>
     292:	00 c0       	rjmp	.+0      	; 0x294 <p16f7x_progMode+0x30>
     294:	00 00       	nop
     296:	08 95       	ret

00000298 <p16f628A_progMode>:
	  _delay_ms(1);
}

void p16f628A_progMode(void)
{
	pgd_write();
     298:	0e 94 b9 00 	call	0x172	; 0x172 <pgd_write>
	  PGM_LOW
     29c:	2b 98       	cbi	0x05, 3	; 5
	  PGC_LOW
     29e:	2d 98       	cbi	0x05, 5	; 5
	  PGD_LOW
     2a0:	2c 98       	cbi	0x05, 4	; 5
	#else
		//round up by default
		__ticks_dc = (uint32_t)(ceil(fabs(__tmp)));
	#endif

	__builtin_avr_delay_cycles(__ticks_dc);
     2a2:	87 ec       	ldi	r24, 0xC7	; 199
     2a4:	90 e0       	ldi	r25, 0x00	; 0
     2a6:	01 97       	sbiw	r24, 0x01	; 1
     2a8:	f1 f7       	brne	.-4      	; 0x2a6 <p16f628A_progMode+0xe>
     2aa:	00 c0       	rjmp	.+0      	; 0x2ac <p16f628A_progMode+0x14>
     2ac:	00 00       	nop
	  _delay_us(50);
	  VPP_HIGH
     2ae:	5c 9a       	sbi	0x0b, 4	; 11
     2b0:	87 ec       	ldi	r24, 0xC7	; 199
     2b2:	90 e0       	ldi	r25, 0x00	; 0
     2b4:	01 97       	sbiw	r24, 0x01	; 1
     2b6:	f1 f7       	brne	.-4      	; 0x2b4 <p16f628A_progMode+0x1c>
     2b8:	00 c0       	rjmp	.+0      	; 0x2ba <p16f628A_progMode+0x22>
     2ba:	00 00       	nop
	  _delay_us(50);
	  VDD_HIGH
     2bc:	5b 9a       	sbi	0x0b, 3	; 11
	#else
		//round up by default
		__ticks_dc = (uint32_t)(ceil(fabs(__tmp)));
	#endif

	__builtin_avr_delay_cycles(__ticks_dc);
     2be:	8f e3       	ldi	r24, 0x3F	; 63
     2c0:	9f e1       	ldi	r25, 0x1F	; 31
     2c2:	01 97       	sbiw	r24, 0x01	; 1
     2c4:	f1 f7       	brne	.-4      	; 0x2c2 <p16f628A_progMode+0x2a>
     2c6:	00 c0       	rjmp	.+0      	; 0x2c8 <p16f628A_progMode+0x30>
     2c8:	00 00       	nop
     2ca:	08 95       	ret

000002cc <p18fxxk80_progMode>:
	  _delay_ms(2);
}

void p18fxxk80_progMode(void)
{
	pgd_write();
     2cc:	0e 94 b9 00 	call	0x172	; 0x172 <pgd_write>
	  PGM_LOW
     2d0:	2b 98       	cbi	0x05, 3	; 5
	  PGC_LOW
     2d2:	2d 98       	cbi	0x05, 5	; 5
	  PGD_LOW
     2d4:	2c 98       	cbi	0x05, 4	; 5
	#else
		//round up by default
		__ticks_dc = (uint32_t)(ceil(fabs(__tmp)));
	#endif

	__builtin_avr_delay_cycles(__ticks_dc);
     2d6:	8a e6       	ldi	r24, 0x6A	; 106
     2d8:	8a 95       	dec	r24
     2da:	f1 f7       	brne	.-4      	; 0x2d8 <p18fxxk80_progMode+0xc>
     2dc:	00 c0       	rjmp	.+0      	; 0x2de <p18fxxk80_progMode+0x12>
	  _delay_us(20);
	  VDD_HIGH
     2de:	5b 9a       	sbi	0x0b, 3	; 11
     2e0:	9a e6       	ldi	r25, 0x6A	; 106
     2e2:	9a 95       	dec	r25
     2e4:	f1 f7       	brne	.-4      	; 0x2e2 <p18fxxk80_progMode+0x16>
     2e6:	00 c0       	rjmp	.+0      	; 0x2e8 <p18fxxk80_progMode+0x1c>
	  _delay_us(20);
	  VPP_HIGH
     2e8:	5c 9a       	sbi	0x0b, 4	; 11
     2ea:	8f ea       	ldi	r24, 0xAF	; 175
     2ec:	94 e0       	ldi	r25, 0x04	; 4
     2ee:	01 97       	sbiw	r24, 0x01	; 1
     2f0:	f1 f7       	brne	.-4      	; 0x2ee <p18fxxk80_progMode+0x22>
     2f2:	00 c0       	rjmp	.+0      	; 0x2f4 <p18fxxk80_progMode+0x28>
     2f4:	00 00       	nop
     2f6:	08 95       	ret

000002f8 <p16f7x_writeComm>:
	  _delay_us(300);
}

void p16f7x_writeComm(uint8_t comm, uint16_t data, uint8_t shrt)
{
     2f8:	0f 93       	push	r16
     2fa:	1f 93       	push	r17
     2fc:	cf 93       	push	r28
     2fe:	df 93       	push	r29
     300:	18 2f       	mov	r17, r24
     302:	eb 01       	movw	r28, r22
     304:	04 2f       	mov	r16, r20
	pgd_write();
     306:	0e 94 b9 00 	call	0x172	; 0x172 <pgd_write>
	PGD_LOW
     30a:	2c 98       	cbi	0x05, 4	; 5
     30c:	2a e0       	ldi	r18, 0x0A	; 10
     30e:	2a 95       	dec	r18
     310:	f1 f7       	brne	.-4      	; 0x30e <p16f7x_writeComm+0x16>
     312:	00 c0       	rjmp	.+0      	; 0x314 <p16f7x_writeComm+0x1c>
	_delay_us(2);
	for(int i = 0; i < 6; i++)
     314:	20 e0       	ldi	r18, 0x00	; 0
     316:	30 e0       	ldi	r19, 0x00	; 0
	{
		_delay_us(2);
		if(comm & (1 << i)) PGD_HIGH
     318:	81 2f       	mov	r24, r17
     31a:	90 e0       	ldi	r25, 0x00	; 0
     31c:	4a e0       	ldi	r20, 0x0A	; 10
     31e:	4a 95       	dec	r20
     320:	f1 f7       	brne	.-4      	; 0x31e <p16f7x_writeComm+0x26>
     322:	00 c0       	rjmp	.+0      	; 0x324 <p16f7x_writeComm+0x2c>
     324:	bc 01       	movw	r22, r24
     326:	02 2e       	mov	r0, r18
     328:	02 c0       	rjmp	.+4      	; 0x32e <p16f7x_writeComm+0x36>
     32a:	75 95       	asr	r23
     32c:	67 95       	ror	r22
     32e:	0a 94       	dec	r0
     330:	e2 f7       	brpl	.-8      	; 0x32a <p16f7x_writeComm+0x32>
     332:	60 ff       	sbrs	r22, 0
     334:	02 c0       	rjmp	.+4      	; 0x33a <p16f7x_writeComm+0x42>
     336:	2c 9a       	sbi	0x05, 4	; 5
     338:	01 c0       	rjmp	.+2      	; 0x33c <p16f7x_writeComm+0x44>
		else PGD_LOW
     33a:	2c 98       	cbi	0x05, 4	; 5
		PGC_HIGH
     33c:	2d 9a       	sbi	0x05, 5	; 5
     33e:	4a e0       	ldi	r20, 0x0A	; 10
     340:	4a 95       	dec	r20
     342:	f1 f7       	brne	.-4      	; 0x340 <p16f7x_writeComm+0x48>
     344:	00 c0       	rjmp	.+0      	; 0x346 <p16f7x_writeComm+0x4e>
		_delay_us(2);
		PGC_LOW
     346:	2d 98       	cbi	0x05, 5	; 5
void p16f7x_writeComm(uint8_t comm, uint16_t data, uint8_t shrt)
{
	pgd_write();
	PGD_LOW
	_delay_us(2);
	for(int i = 0; i < 6; i++)
     348:	2f 5f       	subi	r18, 0xFF	; 255
     34a:	3f 4f       	sbci	r19, 0xFF	; 255
     34c:	26 30       	cpi	r18, 0x06	; 6
     34e:	31 05       	cpc	r19, r1
     350:	29 f7       	brne	.-54     	; 0x31c <p16f7x_writeComm+0x24>
     352:	85 e0       	ldi	r24, 0x05	; 5
     354:	8a 95       	dec	r24
     356:	f1 f7       	brne	.-4      	; 0x354 <p16f7x_writeComm+0x5c>
     358:	00 00       	nop
		PGC_HIGH
		_delay_us(2);
		PGC_LOW
	}
	_delay_us(1);
	PGD_LOW
     35a:	2c 98       	cbi	0x05, 4	; 5
     35c:	2a e0       	ldi	r18, 0x0A	; 10
     35e:	2a 95       	dec	r18
     360:	f1 f7       	brne	.-4      	; 0x35e <p16f7x_writeComm+0x66>
     362:	00 c0       	rjmp	.+0      	; 0x364 <p16f7x_writeComm+0x6c>
	_delay_us(2);

	if(shrt) {_delay_us(10); return;}
     364:	00 23       	and	r16, r16
     366:	29 f0       	breq	.+10     	; 0x372 <p16f7x_writeComm+0x7a>
     368:	45 e3       	ldi	r20, 0x35	; 53
     36a:	4a 95       	dec	r20
     36c:	f1 f7       	brne	.-4      	; 0x36a <p16f7x_writeComm+0x72>
     36e:	00 00       	nop
     370:	27 c0       	rjmp	.+78     	; 0x3c0 <p16f7x_writeComm+0xc8>

	data = data << 1;
     372:	be 01       	movw	r22, r28
     374:	66 0f       	add	r22, r22
     376:	77 1f       	adc	r23, r23

	for(int i = 0; i < 16; i++)
     378:	80 e0       	ldi	r24, 0x00	; 0
     37a:	90 e0       	ldi	r25, 0x00	; 0
	{
		_delay_us(2);
		if(data & (1 << i)) PGD_HIGH
     37c:	41 e0       	ldi	r20, 0x01	; 1
     37e:	50 e0       	ldi	r21, 0x00	; 0
     380:	2a e0       	ldi	r18, 0x0A	; 10
     382:	2a 95       	dec	r18
     384:	f1 f7       	brne	.-4      	; 0x382 <p16f7x_writeComm+0x8a>
     386:	00 c0       	rjmp	.+0      	; 0x388 <p16f7x_writeComm+0x90>
     388:	9a 01       	movw	r18, r20
     38a:	08 2e       	mov	r0, r24
     38c:	02 c0       	rjmp	.+4      	; 0x392 <p16f7x_writeComm+0x9a>
     38e:	22 0f       	add	r18, r18
     390:	33 1f       	adc	r19, r19
     392:	0a 94       	dec	r0
     394:	e2 f7       	brpl	.-8      	; 0x38e <p16f7x_writeComm+0x96>
     396:	26 23       	and	r18, r22
     398:	37 23       	and	r19, r23
     39a:	23 2b       	or	r18, r19
     39c:	11 f0       	breq	.+4      	; 0x3a2 <p16f7x_writeComm+0xaa>
     39e:	2c 9a       	sbi	0x05, 4	; 5
     3a0:	01 c0       	rjmp	.+2      	; 0x3a4 <p16f7x_writeComm+0xac>
		else PGD_LOW
     3a2:	2c 98       	cbi	0x05, 4	; 5
		PGC_HIGH
     3a4:	2d 9a       	sbi	0x05, 5	; 5
     3a6:	2a e0       	ldi	r18, 0x0A	; 10
     3a8:	2a 95       	dec	r18
     3aa:	f1 f7       	brne	.-4      	; 0x3a8 <p16f7x_writeComm+0xb0>
     3ac:	00 c0       	rjmp	.+0      	; 0x3ae <p16f7x_writeComm+0xb6>
		_delay_us(2);
		PGC_LOW
     3ae:	2d 98       	cbi	0x05, 5	; 5

	if(shrt) {_delay_us(10); return;}

	data = data << 1;

	for(int i = 0; i < 16; i++)
     3b0:	01 96       	adiw	r24, 0x01	; 1
     3b2:	80 31       	cpi	r24, 0x10	; 16
     3b4:	91 05       	cpc	r25, r1
     3b6:	21 f7       	brne	.-56     	; 0x380 <p16f7x_writeComm+0x88>
     3b8:	45 e2       	ldi	r20, 0x25	; 37
     3ba:	4a 95       	dec	r20
     3bc:	f1 f7       	brne	.-4      	; 0x3ba <p16f7x_writeComm+0xc2>
     3be:	00 00       	nop
		PGC_HIGH
		_delay_us(2);
		PGC_LOW
	}
	_delay_us(7);
}
     3c0:	df 91       	pop	r29
     3c2:	cf 91       	pop	r28
     3c4:	1f 91       	pop	r17
     3c6:	0f 91       	pop	r16
     3c8:	08 95       	ret

000003ca <p16f7x_readComm>:

uint16_t p16f7x_readComm(uint8_t comm)
{
     3ca:	cf 93       	push	r28
     3cc:	df 93       	push	r29
     3ce:	c8 2f       	mov	r28, r24
	uint16_t data = 0;
	pgd_write();
     3d0:	0e 94 b9 00 	call	0x172	; 0x172 <pgd_write>
     3d4:	4a e1       	ldi	r20, 0x1A	; 26
     3d6:	4a 95       	dec	r20
     3d8:	f1 f7       	brne	.-4      	; 0x3d6 <p16f7x_readComm+0xc>
     3da:	00 c0       	rjmp	.+0      	; 0x3dc <p16f7x_readComm+0x12>
	_delay_us(5);
	for(int i = 0; i < 6; i++)
     3dc:	20 e0       	ldi	r18, 0x00	; 0
     3de:	30 e0       	ldi	r19, 0x00	; 0
	{
		_delay_us(2);
		if(comm & (1 << i)) PGD_HIGH
     3e0:	8c 2f       	mov	r24, r28
     3e2:	90 e0       	ldi	r25, 0x00	; 0
     3e4:	4a e0       	ldi	r20, 0x0A	; 10
     3e6:	4a 95       	dec	r20
     3e8:	f1 f7       	brne	.-4      	; 0x3e6 <p16f7x_readComm+0x1c>
     3ea:	00 c0       	rjmp	.+0      	; 0x3ec <p16f7x_readComm+0x22>
     3ec:	ac 01       	movw	r20, r24
     3ee:	02 2e       	mov	r0, r18
     3f0:	02 c0       	rjmp	.+4      	; 0x3f6 <p16f7x_readComm+0x2c>
     3f2:	55 95       	asr	r21
     3f4:	47 95       	ror	r20
     3f6:	0a 94       	dec	r0
     3f8:	e2 f7       	brpl	.-8      	; 0x3f2 <p16f7x_readComm+0x28>
     3fa:	40 ff       	sbrs	r20, 0
     3fc:	02 c0       	rjmp	.+4      	; 0x402 <__LOCK_REGION_LENGTH__+0x2>
     3fe:	2c 9a       	sbi	0x05, 4	; 5
     400:	01 c0       	rjmp	.+2      	; 0x404 <__LOCK_REGION_LENGTH__+0x4>
		else PGD_LOW
     402:	2c 98       	cbi	0x05, 4	; 5
		PGC_HIGH
     404:	2d 9a       	sbi	0x05, 5	; 5
     406:	4a e0       	ldi	r20, 0x0A	; 10
     408:	4a 95       	dec	r20
     40a:	f1 f7       	brne	.-4      	; 0x408 <__LOCK_REGION_LENGTH__+0x8>
     40c:	00 c0       	rjmp	.+0      	; 0x40e <__LOCK_REGION_LENGTH__+0xe>
		_delay_us(2);
		PGC_LOW
     40e:	2d 98       	cbi	0x05, 5	; 5
uint16_t p16f7x_readComm(uint8_t comm)
{
	uint16_t data = 0;
	pgd_write();
	_delay_us(5);
	for(int i = 0; i < 6; i++)
     410:	2f 5f       	subi	r18, 0xFF	; 255
     412:	3f 4f       	sbci	r19, 0xFF	; 255
     414:	26 30       	cpi	r18, 0x06	; 6
     416:	31 05       	cpc	r19, r1
     418:	29 f7       	brne	.-54     	; 0x3e4 <p16f7x_readComm+0x1a>
     41a:	8a e0       	ldi	r24, 0x0A	; 10
     41c:	8a 95       	dec	r24
     41e:	f1 f7       	brne	.-4      	; 0x41c <__LOCK_REGION_LENGTH__+0x1c>
     420:	00 c0       	rjmp	.+0      	; 0x422 <__LOCK_REGION_LENGTH__+0x22>
		_delay_us(2);
		PGC_LOW
	}

	_delay_us(2);
	PGD_LOW
     422:	2c 98       	cbi	0x05, 4	; 5
     424:	4a e0       	ldi	r20, 0x0A	; 10
     426:	4a 95       	dec	r20
     428:	f1 f7       	brne	.-4      	; 0x426 <__LOCK_REGION_LENGTH__+0x26>
     42a:	00 c0       	rjmp	.+0      	; 0x42c <__LOCK_REGION_LENGTH__+0x2c>
	_delay_us(2);
	PGC_HIGH
     42c:	2d 9a       	sbi	0x05, 5	; 5
     42e:	8a e0       	ldi	r24, 0x0A	; 10
     430:	8a 95       	dec	r24
     432:	f1 f7       	brne	.-4      	; 0x430 <__LOCK_REGION_LENGTH__+0x30>
     434:	00 c0       	rjmp	.+0      	; 0x436 <__LOCK_REGION_LENGTH__+0x36>
	_delay_us(2);
	PGC_LOW
     436:	2d 98       	cbi	0x05, 5	; 5
     438:	45 e2       	ldi	r20, 0x25	; 37
     43a:	4a 95       	dec	r20
     43c:	f1 f7       	brne	.-4      	; 0x43a <__LOCK_REGION_LENGTH__+0x3a>
     43e:	00 00       	nop
	_delay_us(7);
	pgd_read();
     440:	0e 94 b7 00 	call	0x16e	; 0x16e <pgd_read>
	for(int i = 0; i < 14; i++)
     444:	20 e0       	ldi	r18, 0x00	; 0
     446:	30 e0       	ldi	r19, 0x00	; 0
	_delay_us(7);
}

uint16_t p16f7x_readComm(uint8_t comm)
{
	uint16_t data = 0;
     448:	c0 e0       	ldi	r28, 0x00	; 0
     44a:	d0 e0       	ldi	r29, 0x00	; 0
	{
		_delay_us(2);
		PGC_HIGH
		_delay_us(2);
		PGC_LOW
		if(PGD_IDR & (1 << PGD_PIN)) data |= (1 << i);
     44c:	41 e0       	ldi	r20, 0x01	; 1
     44e:	50 e0       	ldi	r21, 0x00	; 0
     450:	8a e0       	ldi	r24, 0x0A	; 10
     452:	8a 95       	dec	r24
     454:	f1 f7       	brne	.-4      	; 0x452 <__LOCK_REGION_LENGTH__+0x52>
     456:	00 c0       	rjmp	.+0      	; 0x458 <__LOCK_REGION_LENGTH__+0x58>
	_delay_us(7);
	pgd_read();
	for(int i = 0; i < 14; i++)
	{
		_delay_us(2);
		PGC_HIGH
     458:	2d 9a       	sbi	0x05, 5	; 5
     45a:	8a e0       	ldi	r24, 0x0A	; 10
     45c:	8a 95       	dec	r24
     45e:	f1 f7       	brne	.-4      	; 0x45c <__LOCK_REGION_LENGTH__+0x5c>
     460:	00 c0       	rjmp	.+0      	; 0x462 <__LOCK_REGION_LENGTH__+0x62>
		_delay_us(2);
		PGC_LOW
     462:	2d 98       	cbi	0x05, 5	; 5
		if(PGD_IDR & (1 << PGD_PIN)) data |= (1 << i);
     464:	1c 9b       	sbis	0x03, 4	; 3
     466:	09 c0       	rjmp	.+18     	; 0x47a <__LOCK_REGION_LENGTH__+0x7a>
     468:	ca 01       	movw	r24, r20
     46a:	02 2e       	mov	r0, r18
     46c:	02 c0       	rjmp	.+4      	; 0x472 <__LOCK_REGION_LENGTH__+0x72>
     46e:	88 0f       	add	r24, r24
     470:	99 1f       	adc	r25, r25
     472:	0a 94       	dec	r0
     474:	e2 f7       	brpl	.-8      	; 0x46e <__LOCK_REGION_LENGTH__+0x6e>
     476:	c8 2b       	or	r28, r24
     478:	d9 2b       	or	r29, r25
	PGC_HIGH
	_delay_us(2);
	PGC_LOW
	_delay_us(7);
	pgd_read();
	for(int i = 0; i < 14; i++)
     47a:	2f 5f       	subi	r18, 0xFF	; 255
     47c:	3f 4f       	sbci	r19, 0xFF	; 255
     47e:	2e 30       	cpi	r18, 0x0E	; 14
     480:	31 05       	cpc	r19, r1
     482:	31 f7       	brne	.-52     	; 0x450 <__LOCK_REGION_LENGTH__+0x50>
     484:	4a e0       	ldi	r20, 0x0A	; 10
     486:	4a 95       	dec	r20
     488:	f1 f7       	brne	.-4      	; 0x486 <__LOCK_REGION_LENGTH__+0x86>
     48a:	00 c0       	rjmp	.+0      	; 0x48c <__LOCK_REGION_LENGTH__+0x8c>
		_delay_us(2);
		PGC_LOW
		if(PGD_IDR & (1 << PGD_PIN)) data |= (1 << i);
	}
	_delay_us(2);
	pgd_write();
     48c:	0e 94 b9 00 	call	0x172	; 0x172 <pgd_write>
	PGD_LOW
     490:	2c 98       	cbi	0x05, 4	; 5
	PGC_HIGH
     492:	2d 9a       	sbi	0x05, 5	; 5
     494:	8a e0       	ldi	r24, 0x0A	; 10
     496:	8a 95       	dec	r24
     498:	f1 f7       	brne	.-4      	; 0x496 <__LOCK_REGION_LENGTH__+0x96>
     49a:	00 c0       	rjmp	.+0      	; 0x49c <__LOCK_REGION_LENGTH__+0x9c>
	_delay_us(2);
	PGC_LOW
     49c:	2d 98       	cbi	0x05, 5	; 5
     49e:	45 e2       	ldi	r20, 0x25	; 37
     4a0:	4a 95       	dec	r20
     4a2:	f1 f7       	brne	.-4      	; 0x4a0 <__LOCK_REGION_LENGTH__+0xa0>
     4a4:	00 00       	nop

	_delay_us(7);
	return data;
}
     4a6:	ce 01       	movw	r24, r28
     4a8:	df 91       	pop	r29
     4aa:	cf 91       	pop	r28
     4ac:	08 95       	ret

000004ae <p18fx5xx_writeComm>:

void p18fx5xx_writeComm(uint8_t comm, uint16_t data)
{
     4ae:	1f 93       	push	r17
     4b0:	cf 93       	push	r28
     4b2:	df 93       	push	r29
     4b4:	18 2f       	mov	r17, r24
     4b6:	eb 01       	movw	r28, r22
	pgd_write();
     4b8:	0e 94 b9 00 	call	0x172	; 0x172 <pgd_write>
	PGD_LOW
     4bc:	2c 98       	cbi	0x05, 4	; 5
     4be:	25 e3       	ldi	r18, 0x35	; 53
     4c0:	2a 95       	dec	r18
     4c2:	f1 f7       	brne	.-4      	; 0x4c0 <p18fx5xx_writeComm+0x12>
     4c4:	00 00       	nop
	_delay_us(10);
	for(int i = 0; i < 4; i++)
     4c6:	20 e0       	ldi	r18, 0x00	; 0
     4c8:	30 e0       	ldi	r19, 0x00	; 0
	{
		_delay_us(5);
		if(comm & (1 << i)) PGD_HIGH
     4ca:	81 2f       	mov	r24, r17
     4cc:	90 e0       	ldi	r25, 0x00	; 0
     4ce:	4a e1       	ldi	r20, 0x1A	; 26
     4d0:	4a 95       	dec	r20
     4d2:	f1 f7       	brne	.-4      	; 0x4d0 <p18fx5xx_writeComm+0x22>
     4d4:	00 c0       	rjmp	.+0      	; 0x4d6 <p18fx5xx_writeComm+0x28>
     4d6:	ac 01       	movw	r20, r24
     4d8:	02 2e       	mov	r0, r18
     4da:	02 c0       	rjmp	.+4      	; 0x4e0 <p18fx5xx_writeComm+0x32>
     4dc:	55 95       	asr	r21
     4de:	47 95       	ror	r20
     4e0:	0a 94       	dec	r0
     4e2:	e2 f7       	brpl	.-8      	; 0x4dc <p18fx5xx_writeComm+0x2e>
     4e4:	40 ff       	sbrs	r20, 0
     4e6:	02 c0       	rjmp	.+4      	; 0x4ec <p18fx5xx_writeComm+0x3e>
     4e8:	2c 9a       	sbi	0x05, 4	; 5
     4ea:	01 c0       	rjmp	.+2      	; 0x4ee <p18fx5xx_writeComm+0x40>
		else PGD_LOW
     4ec:	2c 98       	cbi	0x05, 4	; 5
		PGC_HIGH
     4ee:	2d 9a       	sbi	0x05, 5	; 5
     4f0:	4a e1       	ldi	r20, 0x1A	; 26
     4f2:	4a 95       	dec	r20
     4f4:	f1 f7       	brne	.-4      	; 0x4f2 <p18fx5xx_writeComm+0x44>
     4f6:	00 c0       	rjmp	.+0      	; 0x4f8 <p18fx5xx_writeComm+0x4a>
		_delay_us(5);
		PGC_LOW
     4f8:	2d 98       	cbi	0x05, 5	; 5
void p18fx5xx_writeComm(uint8_t comm, uint16_t data)
{
	pgd_write();
	PGD_LOW
	_delay_us(10);
	for(int i = 0; i < 4; i++)
     4fa:	2f 5f       	subi	r18, 0xFF	; 255
     4fc:	3f 4f       	sbci	r19, 0xFF	; 255
     4fe:	24 30       	cpi	r18, 0x04	; 4
     500:	31 05       	cpc	r19, r1
     502:	29 f7       	brne	.-54     	; 0x4ce <p18fx5xx_writeComm+0x20>
     504:	8a e1       	ldi	r24, 0x1A	; 26
     506:	8a 95       	dec	r24
     508:	f1 f7       	brne	.-4      	; 0x506 <p18fx5xx_writeComm+0x58>
     50a:	00 c0       	rjmp	.+0      	; 0x50c <p18fx5xx_writeComm+0x5e>
		PGC_HIGH
		_delay_us(5);
		PGC_LOW
	}
	_delay_us(5);
	PGD_LOW
     50c:	2c 98       	cbi	0x05, 4	; 5
     50e:	2a e1       	ldi	r18, 0x1A	; 26
     510:	2a 95       	dec	r18
     512:	f1 f7       	brne	.-4      	; 0x510 <p18fx5xx_writeComm+0x62>
     514:	00 c0       	rjmp	.+0      	; 0x516 <p18fx5xx_writeComm+0x68>
	_delay_us(5);

	for(int i = 0; i < 16; i++)
     516:	80 e0       	ldi	r24, 0x00	; 0
     518:	90 e0       	ldi	r25, 0x00	; 0
	{
		_delay_us(5);
		if(data & (1 << i)) PGD_HIGH
     51a:	41 e0       	ldi	r20, 0x01	; 1
     51c:	50 e0       	ldi	r21, 0x00	; 0
     51e:	2a e1       	ldi	r18, 0x1A	; 26
     520:	2a 95       	dec	r18
     522:	f1 f7       	brne	.-4      	; 0x520 <p18fx5xx_writeComm+0x72>
     524:	00 c0       	rjmp	.+0      	; 0x526 <p18fx5xx_writeComm+0x78>
     526:	9a 01       	movw	r18, r20
     528:	08 2e       	mov	r0, r24
     52a:	02 c0       	rjmp	.+4      	; 0x530 <p18fx5xx_writeComm+0x82>
     52c:	22 0f       	add	r18, r18
     52e:	33 1f       	adc	r19, r19
     530:	0a 94       	dec	r0
     532:	e2 f7       	brpl	.-8      	; 0x52c <p18fx5xx_writeComm+0x7e>
     534:	2c 23       	and	r18, r28
     536:	3d 23       	and	r19, r29
     538:	23 2b       	or	r18, r19
     53a:	11 f0       	breq	.+4      	; 0x540 <p18fx5xx_writeComm+0x92>
     53c:	2c 9a       	sbi	0x05, 4	; 5
     53e:	01 c0       	rjmp	.+2      	; 0x542 <p18fx5xx_writeComm+0x94>
		else PGD_LOW
     540:	2c 98       	cbi	0x05, 4	; 5
		PGC_HIGH
     542:	2d 9a       	sbi	0x05, 5	; 5
     544:	2a e1       	ldi	r18, 0x1A	; 26
     546:	2a 95       	dec	r18
     548:	f1 f7       	brne	.-4      	; 0x546 <p18fx5xx_writeComm+0x98>
     54a:	00 c0       	rjmp	.+0      	; 0x54c <p18fx5xx_writeComm+0x9e>
		_delay_us(5);
		PGC_LOW
     54c:	2d 98       	cbi	0x05, 5	; 5
	}
	_delay_us(5);
	PGD_LOW
	_delay_us(5);

	for(int i = 0; i < 16; i++)
     54e:	01 96       	adiw	r24, 0x01	; 1
     550:	80 31       	cpi	r24, 0x10	; 16
     552:	91 05       	cpc	r25, r1
     554:	21 f7       	brne	.-56     	; 0x51e <p18fx5xx_writeComm+0x70>
		else PGD_LOW
		PGC_HIGH
		_delay_us(5);
		PGC_LOW
	}
	PGD_LOW
     556:	2c 98       	cbi	0x05, 4	; 5
     558:	45 e3       	ldi	r20, 0x35	; 53
     55a:	4a 95       	dec	r20
     55c:	f1 f7       	brne	.-4      	; 0x55a <p18fx5xx_writeComm+0xac>
     55e:	00 00       	nop
	_delay_us(10);
}
     560:	df 91       	pop	r29
     562:	cf 91       	pop	r28
     564:	1f 91       	pop	r17
     566:	08 95       	ret

00000568 <p18fx5xx_writeNop>:

void p18fx5xx_writeNop(void)
{
	pgd_write();
     568:	0e 94 b9 00 	call	0x172	; 0x172 <pgd_write>
		PGC_LOW
     56c:	2d 98       	cbi	0x05, 5	; 5
		PGD_LOW
     56e:	2c 98       	cbi	0x05, 4	; 5
     570:	2a e1       	ldi	r18, 0x1A	; 26
     572:	2a 95       	dec	r18
     574:	f1 f7       	brne	.-4      	; 0x572 <p18fx5xx_writeNop+0xa>
     576:	00 c0       	rjmp	.+0      	; 0x578 <p18fx5xx_writeNop+0x10>
     578:	83 e0       	ldi	r24, 0x03	; 3
     57a:	90 e0       	ldi	r25, 0x00	; 0
     57c:	2a e1       	ldi	r18, 0x1A	; 26
     57e:	2a 95       	dec	r18
     580:	f1 f7       	brne	.-4      	; 0x57e <p18fx5xx_writeNop+0x16>
     582:	00 c0       	rjmp	.+0      	; 0x584 <p18fx5xx_writeNop+0x1c>
		_delay_us(5);
		for(int i = 0; i < 3; i++)
		{
			_delay_us(5);
			PGC_HIGH
     584:	2d 9a       	sbi	0x05, 5	; 5
     586:	2a e1       	ldi	r18, 0x1A	; 26
     588:	2a 95       	dec	r18
     58a:	f1 f7       	brne	.-4      	; 0x588 <p18fx5xx_writeNop+0x20>
     58c:	00 c0       	rjmp	.+0      	; 0x58e <p18fx5xx_writeNop+0x26>
			_delay_us(5);
			PGC_LOW
     58e:	2d 98       	cbi	0x05, 5	; 5
     590:	01 97       	sbiw	r24, 0x01	; 1
{
	pgd_write();
		PGC_LOW
		PGD_LOW
		_delay_us(5);
		for(int i = 0; i < 3; i++)
     592:	a1 f7       	brne	.-24     	; 0x57c <p18fx5xx_writeNop+0x14>
     594:	8a e1       	ldi	r24, 0x1A	; 26
     596:	8a 95       	dec	r24
     598:	f1 f7       	brne	.-4      	; 0x596 <p18fx5xx_writeNop+0x2e>
     59a:	00 c0       	rjmp	.+0      	; 0x59c <p18fx5xx_writeNop+0x34>
			PGC_HIGH
			_delay_us(5);
			PGC_LOW
		}
		_delay_us(5);
		PGC_HIGH
     59c:	2d 9a       	sbi	0x05, 5	; 5
	#else
		//round up by default
		__ticks_dc = (uint32_t)(ceil(fabs(__tmp)));
	#endif

	__builtin_avr_delay_cycles(__ticks_dc);
     59e:	8f e3       	ldi	r24, 0x3F	; 63
     5a0:	9f e1       	ldi	r25, 0x1F	; 31
     5a2:	01 97       	sbiw	r24, 0x01	; 1
     5a4:	f1 f7       	brne	.-4      	; 0x5a2 <p18fx5xx_writeNop+0x3a>
     5a6:	00 c0       	rjmp	.+0      	; 0x5a8 <p18fx5xx_writeNop+0x40>
     5a8:	00 00       	nop
		_delay_ms(2);
		PGC_LOW
     5aa:	2d 98       	cbi	0x05, 5	; 5
	#else
		//round up by default
		__ticks_dc = (uint32_t)(ceil(fabs(__tmp)));
	#endif

	__builtin_avr_delay_cycles(__ticks_dc);
     5ac:	8f e8       	ldi	r24, 0x8F	; 143
     5ae:	91 e0       	ldi	r25, 0x01	; 1
     5b0:	01 97       	sbiw	r24, 0x01	; 1
     5b2:	f1 f7       	brne	.-4      	; 0x5b0 <p18fx5xx_writeNop+0x48>
     5b4:	00 c0       	rjmp	.+0      	; 0x5b6 <p18fx5xx_writeNop+0x4e>
     5b6:	00 00       	nop
     5b8:	08 95       	ret

000005ba <p18fxxk80_password>:
		_delay_us(100);
}

void p18fxxk80_password(uint16_t psw0, uint16_t psw1)
{
     5ba:	0f 93       	push	r16
     5bc:	1f 93       	push	r17
     5be:	cf 93       	push	r28
     5c0:	df 93       	push	r29
     5c2:	00 d0       	rcall	.+0      	; 0x5c4 <p18fxxk80_password+0xa>
     5c4:	00 d0       	rcall	.+0      	; 0x5c6 <p18fxxk80_password+0xc>
     5c6:	cd b7       	in	r28, 0x3d	; 61
     5c8:	de b7       	in	r29, 0x3e	; 62
	//uint16_t psw0 = 0x4D43;
	//uint16_t psw1 = 0x4850;

	uint16_t pass[] = {psw0, psw1};
     5ca:	9a 83       	std	Y+2, r25	; 0x02
     5cc:	89 83       	std	Y+1, r24	; 0x01
     5ce:	7c 83       	std	Y+4, r23	; 0x04
     5d0:	6b 83       	std	Y+3, r22	; 0x03

	pgd_write();
     5d2:	0e 94 b9 00 	call	0x172	; 0x172 <pgd_write>
     5d6:	2a e6       	ldi	r18, 0x6A	; 106
     5d8:	2a 95       	dec	r18
     5da:	f1 f7       	brne	.-4      	; 0x5d8 <p18fxxk80_password+0x1e>
     5dc:	00 c0       	rjmp	.+0      	; 0x5de <p18fxxk80_password+0x24>
     5de:	fe 01       	movw	r30, r28
     5e0:	31 96       	adiw	r30, 0x01	; 1
     5e2:	8e 01       	movw	r16, r28
     5e4:	0b 5f       	subi	r16, 0xFB	; 251
     5e6:	1f 4f       	sbci	r17, 0xFF	; 255
		PGC_LOW
		_delay_us(100);
}

void p18fxxk80_password(uint16_t psw0, uint16_t psw1)
{
     5e8:	bf e0       	ldi	r27, 0x0F	; 15
     5ea:	a0 e0       	ldi	r26, 0x00	; 0
	for(int k = 0; k < 2; k++)
	{
		for(int i = 0; i < 16; i++)
		{
			_delay_us(10);
			if(pass[k] & (1 << (15 - i))) PGD_HIGH
     5ec:	61 e0       	ldi	r22, 0x01	; 1
     5ee:	70 e0       	ldi	r23, 0x00	; 0
     5f0:	20 c0       	rjmp	.+64     	; 0x632 <p18fxxk80_password+0x78>
     5f2:	25 e3       	ldi	r18, 0x35	; 53
     5f4:	2a 95       	dec	r18
     5f6:	f1 f7       	brne	.-4      	; 0x5f4 <p18fxxk80_password+0x3a>
     5f8:	00 00       	nop
     5fa:	20 81       	ld	r18, Z
     5fc:	31 81       	ldd	r19, Z+1	; 0x01
     5fe:	ab 01       	movw	r20, r22
     600:	08 2e       	mov	r0, r24
     602:	02 c0       	rjmp	.+4      	; 0x608 <p18fxxk80_password+0x4e>
     604:	44 0f       	add	r20, r20
     606:	55 1f       	adc	r21, r21
     608:	0a 94       	dec	r0
     60a:	e2 f7       	brpl	.-8      	; 0x604 <p18fxxk80_password+0x4a>
     60c:	24 23       	and	r18, r20
     60e:	35 23       	and	r19, r21
     610:	23 2b       	or	r18, r19
     612:	11 f0       	breq	.+4      	; 0x618 <p18fxxk80_password+0x5e>
     614:	2c 9a       	sbi	0x05, 4	; 5
     616:	01 c0       	rjmp	.+2      	; 0x61a <p18fxxk80_password+0x60>
			else PGD_LOW
     618:	2c 98       	cbi	0x05, 4	; 5
			PGC_HIGH
     61a:	2d 9a       	sbi	0x05, 5	; 5
     61c:	25 e3       	ldi	r18, 0x35	; 53
     61e:	2a 95       	dec	r18
     620:	f1 f7       	brne	.-4      	; 0x61e <p18fxxk80_password+0x64>
     622:	00 00       	nop
			_delay_us(10);
			PGC_LOW
     624:	2d 98       	cbi	0x05, 5	; 5
     626:	01 97       	sbiw	r24, 0x01	; 1
     628:	20 f7       	brcc	.-56     	; 0x5f2 <p18fxxk80_password+0x38>
     62a:	32 96       	adiw	r30, 0x02	; 2

	uint16_t pass[] = {psw0, psw1};

	pgd_write();
	_delay_us(20);
	for(int k = 0; k < 2; k++)
     62c:	e0 17       	cp	r30, r16
     62e:	f1 07       	cpc	r31, r17
     630:	19 f0       	breq	.+6      	; 0x638 <p18fxxk80_password+0x7e>
		PGC_LOW
		_delay_us(100);
}

void p18fxxk80_password(uint16_t psw0, uint16_t psw1)
{
     632:	8b 2f       	mov	r24, r27
     634:	9a 2f       	mov	r25, r26
     636:	dd cf       	rjmp	.-70     	; 0x5f2 <p18fxxk80_password+0x38>
     638:	8a e6       	ldi	r24, 0x6A	; 106
     63a:	8a 95       	dec	r24
     63c:	f1 f7       	brne	.-4      	; 0x63a <p18fxxk80_password+0x80>
     63e:	00 c0       	rjmp	.+0      	; 0x640 <p18fxxk80_password+0x86>
			_delay_us(10);
			PGC_LOW
		}
	}
	_delay_us(20);
}
     640:	0f 90       	pop	r0
     642:	0f 90       	pop	r0
     644:	0f 90       	pop	r0
     646:	0f 90       	pop	r0
     648:	df 91       	pop	r29
     64a:	cf 91       	pop	r28
     64c:	1f 91       	pop	r17
     64e:	0f 91       	pop	r16
     650:	08 95       	ret

00000652 <p18fx5xx_readComm>:

uint8_t p18fx5xx_readComm(uint8_t comm, uint8_t data)
{
     652:	cf 93       	push	r28
     654:	df 93       	push	r29
     656:	d8 2f       	mov	r29, r24
     658:	c6 2f       	mov	r28, r22
	uint8_t result = 0;

	pgd_write();
     65a:	0e 94 b9 00 	call	0x172	; 0x172 <pgd_write>
		PGD_LOW
     65e:	2c 98       	cbi	0x05, 4	; 5
     660:	25 e3       	ldi	r18, 0x35	; 53
     662:	2a 95       	dec	r18
     664:	f1 f7       	brne	.-4      	; 0x662 <p18fx5xx_readComm+0x10>
     666:	00 00       	nop
		_delay_us(10);
		for(int i = 0; i < 4; i++)
     668:	20 e0       	ldi	r18, 0x00	; 0
     66a:	30 e0       	ldi	r19, 0x00	; 0
		{
			_delay_us(5);
			if(comm & (1 << i)) PGD_HIGH
     66c:	8d 2f       	mov	r24, r29
     66e:	90 e0       	ldi	r25, 0x00	; 0
     670:	4a e1       	ldi	r20, 0x1A	; 26
     672:	4a 95       	dec	r20
     674:	f1 f7       	brne	.-4      	; 0x672 <p18fx5xx_readComm+0x20>
     676:	00 c0       	rjmp	.+0      	; 0x678 <p18fx5xx_readComm+0x26>
     678:	ac 01       	movw	r20, r24
     67a:	02 2e       	mov	r0, r18
     67c:	02 c0       	rjmp	.+4      	; 0x682 <p18fx5xx_readComm+0x30>
     67e:	55 95       	asr	r21
     680:	47 95       	ror	r20
     682:	0a 94       	dec	r0
     684:	e2 f7       	brpl	.-8      	; 0x67e <p18fx5xx_readComm+0x2c>
     686:	40 ff       	sbrs	r20, 0
     688:	02 c0       	rjmp	.+4      	; 0x68e <p18fx5xx_readComm+0x3c>
     68a:	2c 9a       	sbi	0x05, 4	; 5
     68c:	01 c0       	rjmp	.+2      	; 0x690 <p18fx5xx_readComm+0x3e>
			else PGD_LOW
     68e:	2c 98       	cbi	0x05, 4	; 5
			PGC_HIGH
     690:	2d 9a       	sbi	0x05, 5	; 5
     692:	4a e1       	ldi	r20, 0x1A	; 26
     694:	4a 95       	dec	r20
     696:	f1 f7       	brne	.-4      	; 0x694 <p18fx5xx_readComm+0x42>
     698:	00 c0       	rjmp	.+0      	; 0x69a <p18fx5xx_readComm+0x48>
			_delay_us(5);
			PGC_LOW
     69a:	2d 98       	cbi	0x05, 5	; 5
	uint8_t result = 0;

	pgd_write();
		PGD_LOW
		_delay_us(10);
		for(int i = 0; i < 4; i++)
     69c:	2f 5f       	subi	r18, 0xFF	; 255
     69e:	3f 4f       	sbci	r19, 0xFF	; 255
     6a0:	24 30       	cpi	r18, 0x04	; 4
     6a2:	31 05       	cpc	r19, r1
     6a4:	29 f7       	brne	.-54     	; 0x670 <p18fx5xx_readComm+0x1e>
     6a6:	8a e1       	ldi	r24, 0x1A	; 26
     6a8:	8a 95       	dec	r24
     6aa:	f1 f7       	brne	.-4      	; 0x6a8 <p18fx5xx_readComm+0x56>
     6ac:	00 c0       	rjmp	.+0      	; 0x6ae <p18fx5xx_readComm+0x5c>
			PGC_HIGH
			_delay_us(5);
			PGC_LOW
		}
		_delay_us(5);
		PGD_LOW
     6ae:	2c 98       	cbi	0x05, 4	; 5
     6b0:	2a e1       	ldi	r18, 0x1A	; 26
     6b2:	2a 95       	dec	r18
     6b4:	f1 f7       	brne	.-4      	; 0x6b2 <p18fx5xx_readComm+0x60>
     6b6:	00 c0       	rjmp	.+0      	; 0x6b8 <p18fx5xx_readComm+0x66>
		_delay_us(5);

		for(int i = 0; i < 8; i++)
     6b8:	80 e0       	ldi	r24, 0x00	; 0
     6ba:	90 e0       	ldi	r25, 0x00	; 0
		{
			_delay_us(5);
			if(data & (1 << i)) PGD_HIGH
     6bc:	6c 2f       	mov	r22, r28
     6be:	70 e0       	ldi	r23, 0x00	; 0
     6c0:	4a e1       	ldi	r20, 0x1A	; 26
     6c2:	4a 95       	dec	r20
     6c4:	f1 f7       	brne	.-4      	; 0x6c2 <p18fx5xx_readComm+0x70>
     6c6:	00 c0       	rjmp	.+0      	; 0x6c8 <p18fx5xx_readComm+0x76>
     6c8:	9b 01       	movw	r18, r22
     6ca:	08 2e       	mov	r0, r24
     6cc:	02 c0       	rjmp	.+4      	; 0x6d2 <p18fx5xx_readComm+0x80>
     6ce:	35 95       	asr	r19
     6d0:	27 95       	ror	r18
     6d2:	0a 94       	dec	r0
     6d4:	e2 f7       	brpl	.-8      	; 0x6ce <p18fx5xx_readComm+0x7c>
     6d6:	20 ff       	sbrs	r18, 0
     6d8:	02 c0       	rjmp	.+4      	; 0x6de <p18fx5xx_readComm+0x8c>
     6da:	2c 9a       	sbi	0x05, 4	; 5
     6dc:	01 c0       	rjmp	.+2      	; 0x6e0 <p18fx5xx_readComm+0x8e>
			else PGD_LOW
     6de:	2c 98       	cbi	0x05, 4	; 5
			PGC_HIGH
     6e0:	2d 9a       	sbi	0x05, 5	; 5
     6e2:	2a e1       	ldi	r18, 0x1A	; 26
     6e4:	2a 95       	dec	r18
     6e6:	f1 f7       	brne	.-4      	; 0x6e4 <p18fx5xx_readComm+0x92>
     6e8:	00 c0       	rjmp	.+0      	; 0x6ea <p18fx5xx_readComm+0x98>
			_delay_us(5);
			PGC_LOW
     6ea:	2d 98       	cbi	0x05, 5	; 5
		}
		_delay_us(5);
		PGD_LOW
		_delay_us(5);

		for(int i = 0; i < 8; i++)
     6ec:	01 96       	adiw	r24, 0x01	; 1
     6ee:	88 30       	cpi	r24, 0x08	; 8
     6f0:	91 05       	cpc	r25, r1
     6f2:	31 f7       	brne	.-52     	; 0x6c0 <p18fx5xx_readComm+0x6e>
			PGC_HIGH
			_delay_us(5);
			PGC_LOW
		}

		pgd_read();
     6f4:	0e 94 b7 00 	call	0x16e	; 0x16e <pgd_read>
     6f8:	4a e1       	ldi	r20, 0x1A	; 26
     6fa:	4a 95       	dec	r20
     6fc:	f1 f7       	brne	.-4      	; 0x6fa <p18fx5xx_readComm+0xa8>
     6fe:	00 c0       	rjmp	.+0      	; 0x700 <p18fx5xx_readComm+0xae>
		_delay_us(5);

		for(int i = 0; i < 8; i++)
     700:	20 e0       	ldi	r18, 0x00	; 0
     702:	30 e0       	ldi	r19, 0x00	; 0
	_delay_us(20);
}

uint8_t p18fx5xx_readComm(uint8_t comm, uint8_t data)
{
	uint8_t result = 0;
     704:	c0 e0       	ldi	r28, 0x00	; 0
		{
			_delay_us(5);
			PGC_HIGH
			_delay_us(5);
			PGC_LOW
			if(PGD_IDR & (1 << PGD_PIN)) result |= (1 << i);
     706:	41 e0       	ldi	r20, 0x01	; 1
     708:	50 e0       	ldi	r21, 0x00	; 0
     70a:	8a e1       	ldi	r24, 0x1A	; 26
     70c:	8a 95       	dec	r24
     70e:	f1 f7       	brne	.-4      	; 0x70c <p18fx5xx_readComm+0xba>
     710:	00 c0       	rjmp	.+0      	; 0x712 <p18fx5xx_readComm+0xc0>
		_delay_us(5);

		for(int i = 0; i < 8; i++)
		{
			_delay_us(5);
			PGC_HIGH
     712:	2d 9a       	sbi	0x05, 5	; 5
     714:	8a e1       	ldi	r24, 0x1A	; 26
     716:	8a 95       	dec	r24
     718:	f1 f7       	brne	.-4      	; 0x716 <p18fx5xx_readComm+0xc4>
     71a:	00 c0       	rjmp	.+0      	; 0x71c <p18fx5xx_readComm+0xca>
			_delay_us(5);
			PGC_LOW
     71c:	2d 98       	cbi	0x05, 5	; 5
			if(PGD_IDR & (1 << PGD_PIN)) result |= (1 << i);
     71e:	1c 9b       	sbis	0x03, 4	; 3
     720:	08 c0       	rjmp	.+16     	; 0x732 <p18fx5xx_readComm+0xe0>
     722:	ca 01       	movw	r24, r20
     724:	02 2e       	mov	r0, r18
     726:	02 c0       	rjmp	.+4      	; 0x72c <p18fx5xx_readComm+0xda>
     728:	88 0f       	add	r24, r24
     72a:	99 1f       	adc	r25, r25
     72c:	0a 94       	dec	r0
     72e:	e2 f7       	brpl	.-8      	; 0x728 <p18fx5xx_readComm+0xd6>
     730:	c8 2b       	or	r28, r24
		}

		pgd_read();
		_delay_us(5);

		for(int i = 0; i < 8; i++)
     732:	2f 5f       	subi	r18, 0xFF	; 255
     734:	3f 4f       	sbci	r19, 0xFF	; 255
     736:	28 30       	cpi	r18, 0x08	; 8
     738:	31 05       	cpc	r19, r1
     73a:	39 f7       	brne	.-50     	; 0x70a <p18fx5xx_readComm+0xb8>
			PGC_HIGH
			_delay_us(5);
			PGC_LOW
			if(PGD_IDR & (1 << PGD_PIN)) result |= (1 << i);
		}
		pgd_write();
     73c:	0e 94 b9 00 	call	0x172	; 0x172 <pgd_write>
		PGD_LOW
     740:	2c 98       	cbi	0x05, 4	; 5
     742:	25 e3       	ldi	r18, 0x35	; 53
     744:	2a 95       	dec	r18
     746:	f1 f7       	brne	.-4      	; 0x744 <p18fx5xx_readComm+0xf2>
     748:	00 00       	nop
		_delay_us(10);
		return result;
}
     74a:	8c 2f       	mov	r24, r28
     74c:	df 91       	pop	r29
     74e:	cf 91       	pop	r28
     750:	08 95       	ret

00000752 <p18fx5xx_setDP>:

//    
void p18fx5xx_setDP(uint8_t h_add, uint8_t m_add, uint8_t l_add)
{
     752:	cf 93       	push	r28
     754:	df 93       	push	r29
     756:	d6 2f       	mov	r29, r22
     758:	c4 2f       	mov	r28, r20
	p18fx5xx_writeComm(P18FX5XX_CORE_INSTR, (0x0E00 | h_add));
     75a:	68 2f       	mov	r22, r24
     75c:	70 e0       	ldi	r23, 0x00	; 0
     75e:	7e 60       	ori	r23, 0x0E	; 14
     760:	80 e0       	ldi	r24, 0x00	; 0
     762:	0e 94 57 02 	call	0x4ae	; 0x4ae <p18fx5xx_writeComm>
	p18fx5xx_writeComm(P18FX5XX_CORE_INSTR, 0x6EF8);
     766:	68 ef       	ldi	r22, 0xF8	; 248
     768:	7e e6       	ldi	r23, 0x6E	; 110
     76a:	80 e0       	ldi	r24, 0x00	; 0
     76c:	0e 94 57 02 	call	0x4ae	; 0x4ae <p18fx5xx_writeComm>
	p18fx5xx_writeComm(P18FX5XX_CORE_INSTR, (0x0E00 | m_add));
     770:	6d 2f       	mov	r22, r29
     772:	70 e0       	ldi	r23, 0x00	; 0
     774:	7e 60       	ori	r23, 0x0E	; 14
     776:	80 e0       	ldi	r24, 0x00	; 0
     778:	0e 94 57 02 	call	0x4ae	; 0x4ae <p18fx5xx_writeComm>
	p18fx5xx_writeComm(P18FX5XX_CORE_INSTR, 0x6EF7);
     77c:	67 ef       	ldi	r22, 0xF7	; 247
     77e:	7e e6       	ldi	r23, 0x6E	; 110
     780:	80 e0       	ldi	r24, 0x00	; 0
     782:	0e 94 57 02 	call	0x4ae	; 0x4ae <p18fx5xx_writeComm>
	p18fx5xx_writeComm(P18FX5XX_CORE_INSTR, (0x0E00 | l_add));
     786:	6c 2f       	mov	r22, r28
     788:	70 e0       	ldi	r23, 0x00	; 0
     78a:	7e 60       	ori	r23, 0x0E	; 14
     78c:	80 e0       	ldi	r24, 0x00	; 0
     78e:	0e 94 57 02 	call	0x4ae	; 0x4ae <p18fx5xx_writeComm>
	p18fx5xx_writeComm(P18FX5XX_CORE_INSTR, 0x6EF6);
     792:	66 ef       	ldi	r22, 0xF6	; 246
     794:	7e e6       	ldi	r23, 0x6E	; 110
     796:	80 e0       	ldi	r24, 0x00	; 0
     798:	0e 94 57 02 	call	0x4ae	; 0x4ae <p18fx5xx_writeComm>
}
     79c:	df 91       	pop	r29
     79e:	cf 91       	pop	r28
     7a0:	08 95       	ret

000007a2 <p16f7x_reset>:



void p16f7x_reset(void)
{
	  VPP_LOW
     7a2:	5c 98       	cbi	0x0b, 4	; 11
	  VDD_LOW
     7a4:	5b 98       	cbi	0x0b, 3	; 11
	  PGM_LOW
     7a6:	2b 98       	cbi	0x05, 3	; 5
	  PGC_LOW
     7a8:	2d 98       	cbi	0x05, 5	; 5
	  PGD_LOW
     7aa:	2c 98       	cbi	0x05, 4	; 5
     7ac:	8f e1       	ldi	r24, 0x1F	; 31
     7ae:	93 e0       	ldi	r25, 0x03	; 3
     7b0:	01 97       	sbiw	r24, 0x01	; 1
     7b2:	f1 f7       	brne	.-4      	; 0x7b0 <p16f7x_reset+0xe>
     7b4:	00 c0       	rjmp	.+0      	; 0x7b6 <p16f7x_reset+0x14>
     7b6:	00 00       	nop
     7b8:	08 95       	ret

000007ba <p16f7x_getId>:
	  _delay_us(200);
}

void p16f7x_getId(void)
{
     7ba:	cf 93       	push	r28
     7bc:	df 93       	push	r29
	uint16_t id;

	if(device == 1 || device == 4  || device == 7) p16f7x_progMode();
     7be:	80 91 cd 02 	lds	r24, 0x02CD	; 0x8002cd <device>
     7c2:	81 30       	cpi	r24, 0x01	; 1
     7c4:	21 f0       	breq	.+8      	; 0x7ce <p16f7x_getId+0x14>
     7c6:	84 30       	cpi	r24, 0x04	; 4
     7c8:	11 f0       	breq	.+4      	; 0x7ce <p16f7x_getId+0x14>
     7ca:	87 30       	cpi	r24, 0x07	; 7
     7cc:	11 f4       	brne	.+4      	; 0x7d2 <p16f7x_getId+0x18>
     7ce:	0e 94 32 01 	call	0x264	; 0x264 <p16f7x_progMode>
	if(device == 2 || device == 6) p16f628A_progMode();
     7d2:	80 91 cd 02 	lds	r24, 0x02CD	; 0x8002cd <device>
     7d6:	8b 7f       	andi	r24, 0xFB	; 251
     7d8:	82 30       	cpi	r24, 0x02	; 2
     7da:	11 f4       	brne	.+4      	; 0x7e0 <p16f7x_getId+0x26>
     7dc:	0e 94 4c 01 	call	0x298	; 0x298 <p16f628A_progMode>

	p16f7x_writeComm(P16F7X_LOAD_CONF, 0x0000, 0);
     7e0:	40 e0       	ldi	r20, 0x00	; 0
     7e2:	60 e0       	ldi	r22, 0x00	; 0
     7e4:	70 e0       	ldi	r23, 0x00	; 0
     7e6:	80 e0       	ldi	r24, 0x00	; 0
     7e8:	0e 94 7c 01 	call	0x2f8	; 0x2f8 <p16f7x_writeComm>
     7ec:	c6 e0       	ldi	r28, 0x06	; 6
     7ee:	d0 e0       	ldi	r29, 0x00	; 0
	for(int i = 0; i < 6; i++) p16f7x_writeComm(P16F7X_INC_ADD, 0x0000, 1);
     7f0:	41 e0       	ldi	r20, 0x01	; 1
     7f2:	60 e0       	ldi	r22, 0x00	; 0
     7f4:	70 e0       	ldi	r23, 0x00	; 0
     7f6:	86 e0       	ldi	r24, 0x06	; 6
     7f8:	0e 94 7c 01 	call	0x2f8	; 0x2f8 <p16f7x_writeComm>
     7fc:	21 97       	sbiw	r28, 0x01	; 1
     7fe:	c1 f7       	brne	.-16     	; 0x7f0 <p16f7x_getId+0x36>
	id = p16f7x_readComm(P16F7X_READ_DATA);
     800:	84 e0       	ldi	r24, 0x04	; 4
     802:	0e 94 e5 01 	call	0x3ca	; 0x3ca <p16f7x_readComm>
     806:	c8 2f       	mov	r28, r24
     808:	d9 2f       	mov	r29, r25
	p16f7x_reset();
     80a:	0e 94 d1 03 	call	0x7a2	; 0x7a2 <p16f7x_reset>

	main_buff[0] = 0xFE;
     80e:	e0 e2       	ldi	r30, 0x20	; 32
     810:	f1 e0       	ldi	r31, 0x01	; 1
     812:	8e ef       	ldi	r24, 0xFE	; 254
     814:	80 83       	st	Z, r24
	main_buff[1] = 0x02;
     816:	82 e0       	ldi	r24, 0x02	; 2
     818:	81 83       	std	Z+1, r24	; 0x01
	main_buff[2] = 0xA0;
     81a:	80 ea       	ldi	r24, 0xA0	; 160
     81c:	82 83       	std	Z+2, r24	; 0x02
	main_buff[3] = (id >> 8);
     81e:	d3 83       	std	Z+3, r29	; 0x03
	main_buff[4] = (id & 0xFF);
     820:	c4 83       	std	Z+4, r28	; 0x04
	send_frame(main_buff, 5);
     822:	65 e0       	ldi	r22, 0x05	; 5
     824:	cf 01       	movw	r24, r30
     826:	0e 94 cd 12 	call	0x259a	; 0x259a <send_frame>
}
     82a:	df 91       	pop	r29
     82c:	cf 91       	pop	r28
     82e:	08 95       	ret

00000830 <p18fx5xx_getId>:


void p18fx5xx_getId(void)
{
     830:	cf 93       	push	r28
     832:	df 93       	push	r29
	p16f7x_progMode();
     834:	0e 94 32 01 	call	0x264	; 0x264 <p16f7x_progMode>
	if(device == 5) p18fxxk80_password(0x4D43, 0x4850);
     838:	80 91 cd 02 	lds	r24, 0x02CD	; 0x8002cd <device>
     83c:	85 30       	cpi	r24, 0x05	; 5
     83e:	31 f4       	brne	.+12     	; 0x84c <p18fx5xx_getId+0x1c>
     840:	60 e5       	ldi	r22, 0x50	; 80
     842:	78 e4       	ldi	r23, 0x48	; 72
     844:	83 e4       	ldi	r24, 0x43	; 67
     846:	9d e4       	ldi	r25, 0x4D	; 77
     848:	0e 94 dd 02 	call	0x5ba	; 0x5ba <p18fxxk80_password>
	p18fx5xx_setDP(0x3F, 0xFF, 0xFE);
     84c:	4e ef       	ldi	r20, 0xFE	; 254
     84e:	6f ef       	ldi	r22, 0xFF	; 255
     850:	8f e3       	ldi	r24, 0x3F	; 63
     852:	0e 94 a9 03 	call	0x752	; 0x752 <p18fx5xx_setDP>
	main_buff[4] = p18fx5xx_readComm(P18FX5XX_TABLE_RD, 0x00);
     856:	60 e0       	ldi	r22, 0x00	; 0
     858:	88 e0       	ldi	r24, 0x08	; 8
     85a:	0e 94 29 03 	call	0x652	; 0x652 <p18fx5xx_readComm>
     85e:	80 93 24 01 	sts	0x0124, r24	; 0x800124 <main_buff+0x4>
	p16f7x_reset();
     862:	0e 94 d1 03 	call	0x7a2	; 0x7a2 <p16f7x_reset>

	p16f7x_progMode();
     866:	0e 94 32 01 	call	0x264	; 0x264 <p16f7x_progMode>
	if(device == 5) p18fxxk80_password(0x4D43, 0x4850);
     86a:	80 91 cd 02 	lds	r24, 0x02CD	; 0x8002cd <device>
     86e:	85 30       	cpi	r24, 0x05	; 5
     870:	31 f4       	brne	.+12     	; 0x87e <p18fx5xx_getId+0x4e>
     872:	60 e5       	ldi	r22, 0x50	; 80
     874:	78 e4       	ldi	r23, 0x48	; 72
     876:	83 e4       	ldi	r24, 0x43	; 67
     878:	9d e4       	ldi	r25, 0x4D	; 77
     87a:	0e 94 dd 02 	call	0x5ba	; 0x5ba <p18fxxk80_password>
	p18fx5xx_setDP(0x3F, 0xFF, 0xFF);
     87e:	4f ef       	ldi	r20, 0xFF	; 255
     880:	6f ef       	ldi	r22, 0xFF	; 255
     882:	8f e3       	ldi	r24, 0x3F	; 63
     884:	0e 94 a9 03 	call	0x752	; 0x752 <p18fx5xx_setDP>
	main_buff[3] = p18fx5xx_readComm(P18FX5XX_TABLE_RD, 0x00);
     888:	60 e0       	ldi	r22, 0x00	; 0
     88a:	88 e0       	ldi	r24, 0x08	; 8
     88c:	0e 94 29 03 	call	0x652	; 0x652 <p18fx5xx_readComm>
     890:	c0 e2       	ldi	r28, 0x20	; 32
     892:	d1 e0       	ldi	r29, 0x01	; 1
     894:	8b 83       	std	Y+3, r24	; 0x03
	p16f7x_reset();
     896:	0e 94 d1 03 	call	0x7a2	; 0x7a2 <p16f7x_reset>
	#else
		//round up by default
		__ticks_dc = (uint32_t)(ceil(fabs(__tmp)));
	#endif

	__builtin_avr_delay_cycles(__ticks_dc);
     89a:	8f e1       	ldi	r24, 0x1F	; 31
     89c:	9e e4       	ldi	r25, 0x4E	; 78
     89e:	01 97       	sbiw	r24, 0x01	; 1
     8a0:	f1 f7       	brne	.-4      	; 0x89e <p18fx5xx_getId+0x6e>
     8a2:	00 c0       	rjmp	.+0      	; 0x8a4 <p18fx5xx_getId+0x74>
     8a4:	00 00       	nop

	_delay_ms(5);

	main_buff[0] = 0xFE;
     8a6:	8e ef       	ldi	r24, 0xFE	; 254
     8a8:	88 83       	st	Y, r24
	main_buff[1] = 0x02;
     8aa:	82 e0       	ldi	r24, 0x02	; 2
     8ac:	89 83       	std	Y+1, r24	; 0x01
	main_buff[2] = 0xA0;
     8ae:	80 ea       	ldi	r24, 0xA0	; 160
     8b0:	8a 83       	std	Y+2, r24	; 0x02
	send_frame(main_buff, 5);
     8b2:	65 e0       	ldi	r22, 0x05	; 5
     8b4:	ce 01       	movw	r24, r28
     8b6:	0e 94 cd 12 	call	0x259a	; 0x259a <send_frame>
}
     8ba:	df 91       	pop	r29
     8bc:	cf 91       	pop	r28
     8be:	08 95       	ret

000008c0 <p16f7x_readCfg>:


void p16f7x_readCfg(void)
{
     8c0:	ef 92       	push	r14
     8c2:	ff 92       	push	r15
     8c4:	0f 93       	push	r16
     8c6:	1f 93       	push	r17
     8c8:	cf 93       	push	r28
     8ca:	df 93       	push	r29
     8cc:	cd b7       	in	r28, 0x3d	; 61
     8ce:	de b7       	in	r29, 0x3e	; 62
     8d0:	2e 97       	sbiw	r28, 0x0e	; 14
     8d2:	0f b6       	in	r0, 0x3f	; 63
     8d4:	f8 94       	cli
     8d6:	de bf       	out	0x3e, r29	; 62
     8d8:	0f be       	out	0x3f, r0	; 63
     8da:	cd bf       	out	0x3d, r28	; 61
	uint16_t cfg[7];

	if(device == 1 || device == 4 || device == 7) p16f7x_progMode();
     8dc:	80 91 cd 02 	lds	r24, 0x02CD	; 0x8002cd <device>
     8e0:	81 30       	cpi	r24, 0x01	; 1
     8e2:	21 f0       	breq	.+8      	; 0x8ec <p16f7x_readCfg+0x2c>
     8e4:	84 30       	cpi	r24, 0x04	; 4
     8e6:	11 f0       	breq	.+4      	; 0x8ec <p16f7x_readCfg+0x2c>
     8e8:	87 30       	cpi	r24, 0x07	; 7
     8ea:	11 f4       	brne	.+4      	; 0x8f0 <p16f7x_readCfg+0x30>
     8ec:	0e 94 32 01 	call	0x264	; 0x264 <p16f7x_progMode>
	if(device == 2 || device == 6) p16f628A_progMode();
     8f0:	80 91 cd 02 	lds	r24, 0x02CD	; 0x8002cd <device>
     8f4:	8b 7f       	andi	r24, 0xFB	; 251
     8f6:	82 30       	cpi	r24, 0x02	; 2
     8f8:	11 f4       	brne	.+4      	; 0x8fe <p16f7x_readCfg+0x3e>
     8fa:	0e 94 4c 01 	call	0x298	; 0x298 <p16f628A_progMode>

	p16f7x_writeComm(P16F7X_LOAD_CONF, 0x0000, 0);
     8fe:	40 e0       	ldi	r20, 0x00	; 0
     900:	60 e0       	ldi	r22, 0x00	; 0
     902:	70 e0       	ldi	r23, 0x00	; 0
     904:	80 e0       	ldi	r24, 0x00	; 0
     906:	0e 94 7c 01 	call	0x2f8	; 0x2f8 <p16f7x_writeComm>
     90a:	07 e0       	ldi	r16, 0x07	; 7
     90c:	10 e0       	ldi	r17, 0x00	; 0
	for(int i = 0; i < 7; i++) p16f7x_writeComm(P16F7X_INC_ADD, 0x0000, 1);
     90e:	41 e0       	ldi	r20, 0x01	; 1
     910:	60 e0       	ldi	r22, 0x00	; 0
     912:	70 e0       	ldi	r23, 0x00	; 0
     914:	86 e0       	ldi	r24, 0x06	; 6
     916:	0e 94 7c 01 	call	0x2f8	; 0x2f8 <p16f7x_writeComm>
     91a:	01 50       	subi	r16, 0x01	; 1
     91c:	11 09       	sbc	r17, r1
     91e:	b9 f7       	brne	.-18     	; 0x90e <__stack+0xf>

	for(int k = 0; k < conf_cnt; k++)
     920:	80 91 cc 02 	lds	r24, 0x02CC	; 0x8002cc <conf_cnt>
     924:	88 23       	and	r24, r24
     926:	d1 f0       	breq	.+52     	; 0x95c <__stack+0x5d>
     928:	ce 01       	movw	r24, r28
     92a:	01 96       	adiw	r24, 0x01	; 1
     92c:	7c 01       	movw	r14, r24
     92e:	00 e0       	ldi	r16, 0x00	; 0
     930:	10 e0       	ldi	r17, 0x00	; 0
	{
		cfg[k] = p16f7x_readComm(P16F7X_READ_DATA);
     932:	84 e0       	ldi	r24, 0x04	; 4
     934:	0e 94 e5 01 	call	0x3ca	; 0x3ca <p16f7x_readComm>
     938:	f7 01       	movw	r30, r14
     93a:	81 93       	st	Z+, r24
     93c:	91 93       	st	Z+, r25
     93e:	7f 01       	movw	r14, r30
		p16f7x_writeComm(P16F7X_INC_ADD, 0x0000, 1);
     940:	41 e0       	ldi	r20, 0x01	; 1
     942:	60 e0       	ldi	r22, 0x00	; 0
     944:	70 e0       	ldi	r23, 0x00	; 0
     946:	86 e0       	ldi	r24, 0x06	; 6
     948:	0e 94 7c 01 	call	0x2f8	; 0x2f8 <p16f7x_writeComm>
	if(device == 2 || device == 6) p16f628A_progMode();

	p16f7x_writeComm(P16F7X_LOAD_CONF, 0x0000, 0);
	for(int i = 0; i < 7; i++) p16f7x_writeComm(P16F7X_INC_ADD, 0x0000, 1);

	for(int k = 0; k < conf_cnt; k++)
     94c:	0f 5f       	subi	r16, 0xFF	; 255
     94e:	1f 4f       	sbci	r17, 0xFF	; 255
     950:	80 91 cc 02 	lds	r24, 0x02CC	; 0x8002cc <conf_cnt>
     954:	90 e0       	ldi	r25, 0x00	; 0
     956:	08 17       	cp	r16, r24
     958:	19 07       	cpc	r17, r25
     95a:	5c f3       	brlt	.-42     	; 0x932 <__stack+0x33>
	{
		cfg[k] = p16f7x_readComm(P16F7X_READ_DATA);
		p16f7x_writeComm(P16F7X_INC_ADD, 0x0000, 1);
	}
	p16f7x_reset();
     95c:	0e 94 d1 03 	call	0x7a2	; 0x7a2 <p16f7x_reset>

	main_buff[0] = 0xFE;
     960:	e0 e2       	ldi	r30, 0x20	; 32
     962:	f1 e0       	ldi	r31, 0x01	; 1
     964:	8e ef       	ldi	r24, 0xFE	; 254
     966:	80 83       	st	Z, r24
	main_buff[1] = 0x0E;
     968:	8e e0       	ldi	r24, 0x0E	; 14
     96a:	81 83       	std	Z+1, r24	; 0x01
	main_buff[2] = 0xA3;
     96c:	83 ea       	ldi	r24, 0xA3	; 163
     96e:	82 83       	std	Z+2, r24	; 0x02
	main_buff[3] = (cfg[0] >> 8);
     970:	89 81       	ldd	r24, Y+1	; 0x01
     972:	9a 81       	ldd	r25, Y+2	; 0x02
     974:	93 83       	std	Z+3, r25	; 0x03
	main_buff[4] = (cfg[0] & 0xFF);
     976:	84 83       	std	Z+4, r24	; 0x04
	main_buff[5] = (cfg[1] >> 8);
     978:	8b 81       	ldd	r24, Y+3	; 0x03
     97a:	9c 81       	ldd	r25, Y+4	; 0x04
     97c:	95 83       	std	Z+5, r25	; 0x05
	main_buff[6] = (cfg[1] & 0xFF);
     97e:	86 83       	std	Z+6, r24	; 0x06
	main_buff[7] = (cfg[2] >> 8);
     980:	8d 81       	ldd	r24, Y+5	; 0x05
     982:	9e 81       	ldd	r25, Y+6	; 0x06
     984:	97 83       	std	Z+7, r25	; 0x07
	main_buff[8] = (cfg[2] & 0xFF);
     986:	80 87       	std	Z+8, r24	; 0x08
	main_buff[9] = (cfg[3] >> 8);
     988:	8f 81       	ldd	r24, Y+7	; 0x07
     98a:	98 85       	ldd	r25, Y+8	; 0x08
     98c:	91 87       	std	Z+9, r25	; 0x09
	main_buff[10] = (cfg[3] & 0xFF);
     98e:	82 87       	std	Z+10, r24	; 0x0a
	main_buff[11] = (cfg[4] >> 8);
     990:	89 85       	ldd	r24, Y+9	; 0x09
     992:	9a 85       	ldd	r25, Y+10	; 0x0a
     994:	93 87       	std	Z+11, r25	; 0x0b
	main_buff[12] = (cfg[4] & 0xFF);
     996:	84 87       	std	Z+12, r24	; 0x0c
	main_buff[13] = (cfg[5] >> 8);
     998:	8b 85       	ldd	r24, Y+11	; 0x0b
     99a:	9c 85       	ldd	r25, Y+12	; 0x0c
     99c:	95 87       	std	Z+13, r25	; 0x0d
	main_buff[14] = (cfg[5] & 0xFF);
     99e:	86 87       	std	Z+14, r24	; 0x0e
	main_buff[15] = (cfg[6] >> 8);
     9a0:	8d 85       	ldd	r24, Y+13	; 0x0d
     9a2:	9e 85       	ldd	r25, Y+14	; 0x0e
     9a4:	97 87       	std	Z+15, r25	; 0x0f
	main_buff[16] = (cfg[6] & 0xFF);
     9a6:	80 8b       	std	Z+16, r24	; 0x10
	send_frame(main_buff, 17);
     9a8:	61 e1       	ldi	r22, 0x11	; 17
     9aa:	cf 01       	movw	r24, r30
     9ac:	0e 94 cd 12 	call	0x259a	; 0x259a <send_frame>
}
     9b0:	2e 96       	adiw	r28, 0x0e	; 14
     9b2:	0f b6       	in	r0, 0x3f	; 63
     9b4:	f8 94       	cli
     9b6:	de bf       	out	0x3e, r29	; 62
     9b8:	0f be       	out	0x3f, r0	; 63
     9ba:	cd bf       	out	0x3d, r28	; 61
     9bc:	df 91       	pop	r29
     9be:	cf 91       	pop	r28
     9c0:	1f 91       	pop	r17
     9c2:	0f 91       	pop	r16
     9c4:	ff 90       	pop	r15
     9c6:	ef 90       	pop	r14
     9c8:	08 95       	ret

000009ca <p18fx5xx_readCfg>:

void p18fx5xx_readCfg(void)
{
     9ca:	0f 93       	push	r16
     9cc:	1f 93       	push	r17
     9ce:	cf 93       	push	r28
     9d0:	df 93       	push	r29
	main_buff[0] = 0xFE;
     9d2:	e0 e2       	ldi	r30, 0x20	; 32
     9d4:	f1 e0       	ldi	r31, 0x01	; 1
     9d6:	8e ef       	ldi	r24, 0xFE	; 254
     9d8:	80 83       	st	Z, r24
	main_buff[1] = 0x0E;
     9da:	8e e0       	ldi	r24, 0x0E	; 14
     9dc:	81 83       	std	Z+1, r24	; 0x01
	main_buff[2] = 0xA3;
     9de:	83 ea       	ldi	r24, 0xA3	; 163
     9e0:	82 83       	std	Z+2, r24	; 0x02
	for(int i = 0; i < 14; i+= 2)
     9e2:	c0 e0       	ldi	r28, 0x00	; 0
     9e4:	d0 e0       	ldi	r29, 0x00	; 0
	{
		p16f7x_progMode();
     9e6:	0e 94 32 01 	call	0x264	; 0x264 <p16f7x_progMode>
		if(device == 5) p18fxxk80_password(0x4D43, 0x4850);
     9ea:	80 91 cd 02 	lds	r24, 0x02CD	; 0x8002cd <device>
     9ee:	85 30       	cpi	r24, 0x05	; 5
     9f0:	31 f4       	brne	.+12     	; 0x9fe <p18fx5xx_readCfg+0x34>
     9f2:	60 e5       	ldi	r22, 0x50	; 80
     9f4:	78 e4       	ldi	r23, 0x48	; 72
     9f6:	83 e4       	ldi	r24, 0x43	; 67
     9f8:	9d e4       	ldi	r25, 0x4D	; 77
     9fa:	0e 94 dd 02 	call	0x5ba	; 0x5ba <p18fxxk80_password>

		p18fx5xx_setDP(0x30, 0x00, i);
     9fe:	4c 2f       	mov	r20, r28
     a00:	60 e0       	ldi	r22, 0x00	; 0
     a02:	80 e3       	ldi	r24, 0x30	; 48
     a04:	0e 94 a9 03 	call	0x752	; 0x752 <p18fx5xx_setDP>
		main_buff[i + 4] = p18fx5xx_readComm(P18FX5XX_TABLE_RD, 0x00);
     a08:	60 e0       	ldi	r22, 0x00	; 0
     a0a:	88 e0       	ldi	r24, 0x08	; 8
     a0c:	0e 94 29 03 	call	0x652	; 0x652 <p18fx5xx_readComm>
     a10:	8e 01       	movw	r16, r28
     a12:	00 5e       	subi	r16, 0xE0	; 224
     a14:	1e 4f       	sbci	r17, 0xFE	; 254
     a16:	f8 01       	movw	r30, r16
     a18:	84 83       	std	Z+4, r24	; 0x04
     a1a:	4c 2f       	mov	r20, r28
     a1c:	4f 5f       	subi	r20, 0xFF	; 255
		p18fx5xx_setDP(0x30, 0x00, i + 1);
     a1e:	60 e0       	ldi	r22, 0x00	; 0
     a20:	80 e3       	ldi	r24, 0x30	; 48
     a22:	0e 94 a9 03 	call	0x752	; 0x752 <p18fx5xx_setDP>
		main_buff[i + 3] = p18fx5xx_readComm(P18FX5XX_TABLE_RD, 0x00);
     a26:	60 e0       	ldi	r22, 0x00	; 0
     a28:	88 e0       	ldi	r24, 0x08	; 8
     a2a:	0e 94 29 03 	call	0x652	; 0x652 <p18fx5xx_readComm>
     a2e:	f8 01       	movw	r30, r16
     a30:	83 83       	std	Z+3, r24	; 0x03

		p16f7x_reset();
     a32:	0e 94 d1 03 	call	0x7a2	; 0x7a2 <p16f7x_reset>
     a36:	8f e1       	ldi	r24, 0x1F	; 31
     a38:	9e e4       	ldi	r25, 0x4E	; 78
     a3a:	01 97       	sbiw	r24, 0x01	; 1
     a3c:	f1 f7       	brne	.-4      	; 0xa3a <p18fx5xx_readCfg+0x70>
     a3e:	00 c0       	rjmp	.+0      	; 0xa40 <p18fx5xx_readCfg+0x76>
     a40:	00 00       	nop
void p18fx5xx_readCfg(void)
{
	main_buff[0] = 0xFE;
	main_buff[1] = 0x0E;
	main_buff[2] = 0xA3;
	for(int i = 0; i < 14; i+= 2)
     a42:	22 96       	adiw	r28, 0x02	; 2
     a44:	ce 30       	cpi	r28, 0x0E	; 14
     a46:	d1 05       	cpc	r29, r1
     a48:	71 f6       	brne	.-100    	; 0x9e6 <p18fx5xx_readCfg+0x1c>

		p16f7x_reset();
		_delay_ms(5);
	}

	send_frame(main_buff, 17);
     a4a:	61 e1       	ldi	r22, 0x11	; 17
     a4c:	80 e2       	ldi	r24, 0x20	; 32
     a4e:	91 e0       	ldi	r25, 0x01	; 1
     a50:	0e 94 cd 12 	call	0x259a	; 0x259a <send_frame>
}
     a54:	df 91       	pop	r29
     a56:	cf 91       	pop	r28
     a58:	1f 91       	pop	r17
     a5a:	0f 91       	pop	r16
     a5c:	08 95       	ret

00000a5e <p16f7x_writeCfg>:

void p16f7x_writeCfg(void)
{
     a5e:	cf 93       	push	r28
     a60:	df 93       	push	r29
	if(device == 1) p16f7x_progMode();
     a62:	80 91 cd 02 	lds	r24, 0x02CD	; 0x8002cd <device>
     a66:	81 30       	cpi	r24, 0x01	; 1
     a68:	11 f4       	brne	.+4      	; 0xa6e <p16f7x_writeCfg+0x10>
     a6a:	0e 94 32 01 	call	0x264	; 0x264 <p16f7x_progMode>
	if(device == 2) p16f628A_progMode();
     a6e:	80 91 cd 02 	lds	r24, 0x02CD	; 0x8002cd <device>
     a72:	82 30       	cpi	r24, 0x02	; 2
     a74:	11 f4       	brne	.+4      	; 0xa7a <p16f7x_writeCfg+0x1c>
     a76:	0e 94 4c 01 	call	0x298	; 0x298 <p16f628A_progMode>

	p16f7x_writeComm(P16F7X_LOAD_CONF, 0x0000, 0);
     a7a:	40 e0       	ldi	r20, 0x00	; 0
     a7c:	60 e0       	ldi	r22, 0x00	; 0
     a7e:	70 e0       	ldi	r23, 0x00	; 0
     a80:	80 e0       	ldi	r24, 0x00	; 0
     a82:	0e 94 7c 01 	call	0x2f8	; 0x2f8 <p16f7x_writeComm>
     a86:	c7 e0       	ldi	r28, 0x07	; 7
     a88:	d0 e0       	ldi	r29, 0x00	; 0
	for(int i = 0; i < 7; i++) p16f7x_writeComm(P16F7X_INC_ADD, 0x0000, 1);
     a8a:	41 e0       	ldi	r20, 0x01	; 1
     a8c:	60 e0       	ldi	r22, 0x00	; 0
     a8e:	70 e0       	ldi	r23, 0x00	; 0
     a90:	86 e0       	ldi	r24, 0x06	; 6
     a92:	0e 94 7c 01 	call	0x2f8	; 0x2f8 <p16f7x_writeComm>
     a96:	21 97       	sbiw	r28, 0x01	; 1
     a98:	c1 f7       	brne	.-16     	; 0xa8a <p16f7x_writeCfg+0x2c>
	p16f7x_writeComm(P16F7X_LOAD_DATA, (exchange[4] | (exchange[5] <<8)), 0);
     a9a:	e0 e2       	ldi	r30, 0x20	; 32
     a9c:	f2 e0       	ldi	r31, 0x02	; 2
     a9e:	65 81       	ldd	r22, Z+5	; 0x05
     aa0:	70 e0       	ldi	r23, 0x00	; 0
     aa2:	76 2f       	mov	r23, r22
     aa4:	66 27       	eor	r22, r22
     aa6:	84 81       	ldd	r24, Z+4	; 0x04
     aa8:	68 2b       	or	r22, r24
     aaa:	40 e0       	ldi	r20, 0x00	; 0
     aac:	82 e0       	ldi	r24, 0x02	; 2
     aae:	0e 94 7c 01 	call	0x2f8	; 0x2f8 <p16f7x_writeComm>
	p16f7x_writeComm(P16F7X_BEGIN_PROG, 0x0000, 1);
     ab2:	41 e0       	ldi	r20, 0x01	; 1
     ab4:	60 e0       	ldi	r22, 0x00	; 0
     ab6:	70 e0       	ldi	r23, 0x00	; 0
     ab8:	88 e0       	ldi	r24, 0x08	; 8
     aba:	0e 94 7c 01 	call	0x2f8	; 0x2f8 <p16f7x_writeComm>
     abe:	8f e1       	ldi	r24, 0x1F	; 31
     ac0:	9e e4       	ldi	r25, 0x4E	; 78
     ac2:	01 97       	sbiw	r24, 0x01	; 1
     ac4:	f1 f7       	brne	.-4      	; 0xac2 <p16f7x_writeCfg+0x64>
     ac6:	00 c0       	rjmp	.+0      	; 0xac8 <p16f7x_writeCfg+0x6a>
     ac8:	00 00       	nop
	_delay_ms(5);
	p16f7x_writeComm(P16F7X_END_PROG, 0x0000, 1);
     aca:	41 e0       	ldi	r20, 0x01	; 1
     acc:	60 e0       	ldi	r22, 0x00	; 0
     ace:	70 e0       	ldi	r23, 0x00	; 0
     ad0:	8e e0       	ldi	r24, 0x0E	; 14
     ad2:	0e 94 7c 01 	call	0x2f8	; 0x2f8 <p16f7x_writeComm>
	p16f7x_reset();
     ad6:	0e 94 d1 03 	call	0x7a2	; 0x7a2 <p16f7x_reset>
}
     ada:	df 91       	pop	r29
     adc:	cf 91       	pop	r28
     ade:	08 95       	ret

00000ae0 <p12f1840_writeCfg>:

void p12f1840_writeCfg(void)
{
     ae0:	cf 93       	push	r28
     ae2:	df 93       	push	r29
	p16f7x_progMode();
     ae4:	0e 94 32 01 	call	0x264	; 0x264 <p16f7x_progMode>

	p16f7x_writeComm(P16F7X_LOAD_CONF, 0x0000, 0);
     ae8:	40 e0       	ldi	r20, 0x00	; 0
     aea:	60 e0       	ldi	r22, 0x00	; 0
     aec:	70 e0       	ldi	r23, 0x00	; 0
     aee:	80 e0       	ldi	r24, 0x00	; 0
     af0:	0e 94 7c 01 	call	0x2f8	; 0x2f8 <p16f7x_writeComm>
     af4:	c7 e0       	ldi	r28, 0x07	; 7
     af6:	d0 e0       	ldi	r29, 0x00	; 0
	for(int c = 0; c < 7; c++) p16f7x_writeComm(P16F7X_INC_ADD, 0x0000, 1);
     af8:	41 e0       	ldi	r20, 0x01	; 1
     afa:	60 e0       	ldi	r22, 0x00	; 0
     afc:	70 e0       	ldi	r23, 0x00	; 0
     afe:	86 e0       	ldi	r24, 0x06	; 6
     b00:	0e 94 7c 01 	call	0x2f8	; 0x2f8 <p16f7x_writeComm>
     b04:	21 97       	sbiw	r28, 0x01	; 1
     b06:	c1 f7       	brne	.-16     	; 0xaf8 <p12f1840_writeCfg+0x18>

	for(int k = 0; k < conf_cnt*2; k+=2)
     b08:	80 91 cc 02 	lds	r24, 0x02CC	; 0x8002cc <conf_cnt>
     b0c:	88 23       	and	r24, r24
     b0e:	61 f1       	breq	.+88     	; 0xb68 <p12f1840_writeCfg+0x88>
     b10:	c0 e0       	ldi	r28, 0x00	; 0
     b12:	d0 e0       	ldi	r29, 0x00	; 0
     b14:	fe 01       	movw	r30, r28
     b16:	e0 5e       	subi	r30, 0xE0	; 224
     b18:	fd 4f       	sbci	r31, 0xFD	; 253
	{
		p16f7x_writeComm(P16F7X_LOAD_DATA, (exchange[4 + k] | (exchange[5 + k] <<8)), 0);
     b1a:	65 81       	ldd	r22, Z+5	; 0x05
     b1c:	70 e0       	ldi	r23, 0x00	; 0
     b1e:	76 2f       	mov	r23, r22
     b20:	66 27       	eor	r22, r22
     b22:	84 81       	ldd	r24, Z+4	; 0x04
     b24:	68 2b       	or	r22, r24
     b26:	40 e0       	ldi	r20, 0x00	; 0
     b28:	82 e0       	ldi	r24, 0x02	; 2
     b2a:	0e 94 7c 01 	call	0x2f8	; 0x2f8 <p16f7x_writeComm>
		p16f7x_writeComm(P16F7X_BEGIN_PROG, 0x0000, 1);
     b2e:	41 e0       	ldi	r20, 0x01	; 1
     b30:	60 e0       	ldi	r22, 0x00	; 0
     b32:	70 e0       	ldi	r23, 0x00	; 0
     b34:	88 e0       	ldi	r24, 0x08	; 8
     b36:	0e 94 7c 01 	call	0x2f8	; 0x2f8 <p16f7x_writeComm>
     b3a:	8f e1       	ldi	r24, 0x1F	; 31
     b3c:	9e e4       	ldi	r25, 0x4E	; 78
     b3e:	01 97       	sbiw	r24, 0x01	; 1
     b40:	f1 f7       	brne	.-4      	; 0xb3e <p12f1840_writeCfg+0x5e>
     b42:	00 c0       	rjmp	.+0      	; 0xb44 <p12f1840_writeCfg+0x64>
     b44:	00 00       	nop
		_delay_ms(5);
		p16f7x_writeComm(P16F7X_INC_ADD, 0x0000, 1);
     b46:	41 e0       	ldi	r20, 0x01	; 1
     b48:	60 e0       	ldi	r22, 0x00	; 0
     b4a:	70 e0       	ldi	r23, 0x00	; 0
     b4c:	86 e0       	ldi	r24, 0x06	; 6
     b4e:	0e 94 7c 01 	call	0x2f8	; 0x2f8 <p16f7x_writeComm>
		if(conf_cnt == 1) break;
     b52:	80 91 cc 02 	lds	r24, 0x02CC	; 0x8002cc <conf_cnt>
     b56:	81 30       	cpi	r24, 0x01	; 1
     b58:	39 f0       	breq	.+14     	; 0xb68 <p12f1840_writeCfg+0x88>
	p16f7x_progMode();

	p16f7x_writeComm(P16F7X_LOAD_CONF, 0x0000, 0);
	for(int c = 0; c < 7; c++) p16f7x_writeComm(P16F7X_INC_ADD, 0x0000, 1);

	for(int k = 0; k < conf_cnt*2; k+=2)
     b5a:	22 96       	adiw	r28, 0x02	; 2
     b5c:	90 e0       	ldi	r25, 0x00	; 0
     b5e:	88 0f       	add	r24, r24
     b60:	99 1f       	adc	r25, r25
     b62:	c8 17       	cp	r28, r24
     b64:	d9 07       	cpc	r29, r25
     b66:	b4 f2       	brlt	.-84     	; 0xb14 <p12f1840_writeCfg+0x34>
		p16f7x_writeComm(P16F7X_BEGIN_PROG, 0x0000, 1);
		_delay_ms(5);
		p16f7x_writeComm(P16F7X_INC_ADD, 0x0000, 1);
		if(conf_cnt == 1) break;
	}
	p16f7x_reset();
     b68:	0e 94 d1 03 	call	0x7a2	; 0x7a2 <p16f7x_reset>
}
     b6c:	df 91       	pop	r29
     b6e:	cf 91       	pop	r28
     b70:	08 95       	ret

00000b72 <p16f84a_writeCfg>:

void p16f84a_writeCfg(void)
{
     b72:	cf 93       	push	r28
     b74:	df 93       	push	r29
	p16f7x_progMode();
     b76:	0e 94 32 01 	call	0x264	; 0x264 <p16f7x_progMode>

	p16f7x_writeComm(P16F7X_LOAD_CONF, 0x0000, 0);
     b7a:	40 e0       	ldi	r20, 0x00	; 0
     b7c:	60 e0       	ldi	r22, 0x00	; 0
     b7e:	70 e0       	ldi	r23, 0x00	; 0
     b80:	80 e0       	ldi	r24, 0x00	; 0
     b82:	0e 94 7c 01 	call	0x2f8	; 0x2f8 <p16f7x_writeComm>
     b86:	c7 e0       	ldi	r28, 0x07	; 7
     b88:	d0 e0       	ldi	r29, 0x00	; 0
	for(int i = 0; i < 7; i++) p16f7x_writeComm(P16F7X_INC_ADD, 0x0000, 1);
     b8a:	41 e0       	ldi	r20, 0x01	; 1
     b8c:	60 e0       	ldi	r22, 0x00	; 0
     b8e:	70 e0       	ldi	r23, 0x00	; 0
     b90:	86 e0       	ldi	r24, 0x06	; 6
     b92:	0e 94 7c 01 	call	0x2f8	; 0x2f8 <p16f7x_writeComm>
     b96:	21 97       	sbiw	r28, 0x01	; 1
     b98:	c1 f7       	brne	.-16     	; 0xb8a <p16f84a_writeCfg+0x18>
	p16f7x_writeComm(P16F7X_LOAD_DATA, (exchange[4] | (exchange[5] <<8)), 0);
     b9a:	e0 e2       	ldi	r30, 0x20	; 32
     b9c:	f2 e0       	ldi	r31, 0x02	; 2
     b9e:	65 81       	ldd	r22, Z+5	; 0x05
     ba0:	70 e0       	ldi	r23, 0x00	; 0
     ba2:	76 2f       	mov	r23, r22
     ba4:	66 27       	eor	r22, r22
     ba6:	84 81       	ldd	r24, Z+4	; 0x04
     ba8:	68 2b       	or	r22, r24
     baa:	40 e0       	ldi	r20, 0x00	; 0
     bac:	82 e0       	ldi	r24, 0x02	; 2
     bae:	0e 94 7c 01 	call	0x2f8	; 0x2f8 <p16f7x_writeComm>
	p16f7x_writeComm(0x18, 0x0000, 1);
     bb2:	41 e0       	ldi	r20, 0x01	; 1
     bb4:	60 e0       	ldi	r22, 0x00	; 0
     bb6:	70 e0       	ldi	r23, 0x00	; 0
     bb8:	88 e1       	ldi	r24, 0x18	; 24
     bba:	0e 94 7c 01 	call	0x2f8	; 0x2f8 <p16f7x_writeComm>
     bbe:	8f e1       	ldi	r24, 0x1F	; 31
     bc0:	9e e4       	ldi	r25, 0x4E	; 78
     bc2:	01 97       	sbiw	r24, 0x01	; 1
     bc4:	f1 f7       	brne	.-4      	; 0xbc2 <p16f84a_writeCfg+0x50>
     bc6:	00 c0       	rjmp	.+0      	; 0xbc8 <p16f84a_writeCfg+0x56>
     bc8:	00 00       	nop
	_delay_ms(5);
	p16f7x_reset();
     bca:	0e 94 d1 03 	call	0x7a2	; 0x7a2 <p16f7x_reset>
}
     bce:	df 91       	pop	r29
     bd0:	cf 91       	pop	r28
     bd2:	08 95       	ret

00000bd4 <p18fx5xx_writeCfg>:
	p16f7x_writeComm(0x0A, 0x0000, 1);
	p16f7x_reset();
}

void p18fx5xx_writeCfg(void)
{
     bd4:	ef 92       	push	r14
     bd6:	ff 92       	push	r15
     bd8:	0f 93       	push	r16
     bda:	1f 93       	push	r17
     bdc:	cf 93       	push	r28
     bde:	df 93       	push	r29
     be0:	0f 2e       	mov	r0, r31
     be2:	f4 e2       	ldi	r31, 0x24	; 36
     be4:	ef 2e       	mov	r14, r31
     be6:	f2 e0       	ldi	r31, 0x02	; 2
     be8:	ff 2e       	mov	r15, r31
     bea:	f0 2d       	mov	r31, r0
     bec:	02 e3       	ldi	r16, 0x32	; 50
     bee:	12 e0       	ldi	r17, 0x02	; 2
     bf0:	e7 01       	movw	r28, r14
	for(int i = 0; i < 14; i++)
	{
		p16f7x_progMode();
     bf2:	0e 94 32 01 	call	0x264	; 0x264 <p16f7x_progMode>
     bf6:	4c 2f       	mov	r20, r28
     bf8:	4e 19       	sub	r20, r14

		p18fx5xx_setDP(0x30, 0x00, (i));
     bfa:	60 e0       	ldi	r22, 0x00	; 0
     bfc:	80 e3       	ldi	r24, 0x30	; 48
     bfe:	0e 94 a9 03 	call	0x752	; 0x752 <p18fx5xx_setDP>
		p18fx5xx_writeComm(P18FX5XX_START_PR, (exchange[i + 4] | (exchange[i + 4] << 8)));
     c02:	69 91       	ld	r22, Y+
     c04:	70 e0       	ldi	r23, 0x00	; 0
     c06:	96 2f       	mov	r25, r22
     c08:	88 27       	eor	r24, r24
     c0a:	68 2b       	or	r22, r24
     c0c:	79 2b       	or	r23, r25
     c0e:	8f e0       	ldi	r24, 0x0F	; 15
     c10:	0e 94 57 02 	call	0x4ae	; 0x4ae <p18fx5xx_writeComm>
		p18fx5xx_writeNop();
     c14:	0e 94 b4 02 	call	0x568	; 0x568 <p18fx5xx_writeNop>
		p18fx5xx_writeComm(P18FX5XX_CORE_INSTR, 0x0000);
     c18:	60 e0       	ldi	r22, 0x00	; 0
     c1a:	70 e0       	ldi	r23, 0x00	; 0
     c1c:	80 e0       	ldi	r24, 0x00	; 0
     c1e:	0e 94 57 02 	call	0x4ae	; 0x4ae <p18fx5xx_writeComm>
		p18fx5xx_writeComm(P18FX5XX_CORE_INSTR, 0x0000);
     c22:	60 e0       	ldi	r22, 0x00	; 0
     c24:	70 e0       	ldi	r23, 0x00	; 0
     c26:	80 e0       	ldi	r24, 0x00	; 0
     c28:	0e 94 57 02 	call	0x4ae	; 0x4ae <p18fx5xx_writeComm>
     c2c:	2f ef       	ldi	r18, 0xFF	; 255
     c2e:	80 e7       	ldi	r24, 0x70	; 112
     c30:	92 e0       	ldi	r25, 0x02	; 2
     c32:	21 50       	subi	r18, 0x01	; 1
     c34:	80 40       	sbci	r24, 0x00	; 0
     c36:	90 40       	sbci	r25, 0x00	; 0
     c38:	e1 f7       	brne	.-8      	; 0xc32 <p18fx5xx_writeCfg+0x5e>
     c3a:	00 c0       	rjmp	.+0      	; 0xc3c <p18fx5xx_writeCfg+0x68>
     c3c:	00 00       	nop
		_delay_ms(50);
		p16f7x_reset();
     c3e:	0e 94 d1 03 	call	0x7a2	; 0x7a2 <p16f7x_reset>
     c42:	2f ef       	ldi	r18, 0xFF	; 255
     c44:	80 e7       	ldi	r24, 0x70	; 112
     c46:	92 e0       	ldi	r25, 0x02	; 2
     c48:	21 50       	subi	r18, 0x01	; 1
     c4a:	80 40       	sbci	r24, 0x00	; 0
     c4c:	90 40       	sbci	r25, 0x00	; 0
     c4e:	e1 f7       	brne	.-8      	; 0xc48 <p18fx5xx_writeCfg+0x74>
     c50:	00 c0       	rjmp	.+0      	; 0xc52 <p18fx5xx_writeCfg+0x7e>
     c52:	00 00       	nop
	p16f7x_reset();
}

void p18fx5xx_writeCfg(void)
{
	for(int i = 0; i < 14; i++)
     c54:	c0 17       	cp	r28, r16
     c56:	d1 07       	cpc	r29, r17
     c58:	61 f6       	brne	.-104    	; 0xbf2 <p18fx5xx_writeCfg+0x1e>
		p18fx5xx_writeComm(P18FX5XX_CORE_INSTR, 0x0000);
		_delay_ms(50);
		p16f7x_reset();
		_delay_ms(50);
	}
}
     c5a:	df 91       	pop	r29
     c5c:	cf 91       	pop	r28
     c5e:	1f 91       	pop	r17
     c60:	0f 91       	pop	r16
     c62:	ff 90       	pop	r15
     c64:	ef 90       	pop	r14
     c66:	08 95       	ret

00000c68 <p18fxxk80_writeCfg>:

void p18fxxk80_writeCfg(void)
{
     c68:	ef 92       	push	r14
     c6a:	ff 92       	push	r15
     c6c:	0f 93       	push	r16
     c6e:	1f 93       	push	r17
     c70:	cf 93       	push	r28
     c72:	df 93       	push	r29
     c74:	0f 2e       	mov	r0, r31
     c76:	f4 e2       	ldi	r31, 0x24	; 36
     c78:	ef 2e       	mov	r14, r31
     c7a:	f2 e0       	ldi	r31, 0x02	; 2
     c7c:	ff 2e       	mov	r15, r31
     c7e:	f0 2d       	mov	r31, r0
     c80:	02 e3       	ldi	r16, 0x32	; 50
     c82:	12 e0       	ldi	r17, 0x02	; 2
     c84:	e7 01       	movw	r28, r14
	for(int i = 0; i < 14; i++)
	{
		p16f7x_progMode();
     c86:	0e 94 32 01 	call	0x264	; 0x264 <p16f7x_progMode>
		p18fxxk80_password(0x4D43, 0x4850);
     c8a:	60 e5       	ldi	r22, 0x50	; 80
     c8c:	78 e4       	ldi	r23, 0x48	; 72
     c8e:	83 e4       	ldi	r24, 0x43	; 67
     c90:	9d e4       	ldi	r25, 0x4D	; 77
     c92:	0e 94 dd 02 	call	0x5ba	; 0x5ba <p18fxxk80_password>

		//Access to code memory
		p18fx5xx_writeComm(P18FX5XX_CORE_INSTR, 0x8E7F);
     c96:	6f e7       	ldi	r22, 0x7F	; 127
     c98:	7e e8       	ldi	r23, 0x8E	; 142
     c9a:	80 e0       	ldi	r24, 0x00	; 0
     c9c:	0e 94 57 02 	call	0x4ae	; 0x4ae <p18fx5xx_writeComm>
		p18fx5xx_writeComm(P18FX5XX_CORE_INSTR, 0x9C7F);
     ca0:	6f e7       	ldi	r22, 0x7F	; 127
     ca2:	7c e9       	ldi	r23, 0x9C	; 156
     ca4:	80 e0       	ldi	r24, 0x00	; 0
     ca6:	0e 94 57 02 	call	0x4ae	; 0x4ae <p18fx5xx_writeComm>
     caa:	4c 2f       	mov	r20, r28
     cac:	4e 19       	sub	r20, r14

		p18fx5xx_setDP(0x30, 0x00, (i));
     cae:	60 e0       	ldi	r22, 0x00	; 0
     cb0:	80 e3       	ldi	r24, 0x30	; 48
     cb2:	0e 94 a9 03 	call	0x752	; 0x752 <p18fx5xx_setDP>
		p18fx5xx_writeComm(P18FX5XX_START_PR, (exchange[i + 4] | (exchange[i + 4] << 8)));
     cb6:	69 91       	ld	r22, Y+
     cb8:	70 e0       	ldi	r23, 0x00	; 0
     cba:	96 2f       	mov	r25, r22
     cbc:	88 27       	eor	r24, r24
     cbe:	68 2b       	or	r22, r24
     cc0:	79 2b       	or	r23, r25
     cc2:	8f e0       	ldi	r24, 0x0F	; 15
     cc4:	0e 94 57 02 	call	0x4ae	; 0x4ae <p18fx5xx_writeComm>
		p18fx5xx_writeNop();
     cc8:	0e 94 b4 02 	call	0x568	; 0x568 <p18fx5xx_writeNop>
		p18fx5xx_writeComm(P18FX5XX_CORE_INSTR, 0x0000);
     ccc:	60 e0       	ldi	r22, 0x00	; 0
     cce:	70 e0       	ldi	r23, 0x00	; 0
     cd0:	80 e0       	ldi	r24, 0x00	; 0
     cd2:	0e 94 57 02 	call	0x4ae	; 0x4ae <p18fx5xx_writeComm>
		p18fx5xx_writeComm(P18FX5XX_CORE_INSTR, 0x0000);
     cd6:	60 e0       	ldi	r22, 0x00	; 0
     cd8:	70 e0       	ldi	r23, 0x00	; 0
     cda:	80 e0       	ldi	r24, 0x00	; 0
     cdc:	0e 94 57 02 	call	0x4ae	; 0x4ae <p18fx5xx_writeComm>
     ce0:	2f ef       	ldi	r18, 0xFF	; 255
     ce2:	80 e7       	ldi	r24, 0x70	; 112
     ce4:	92 e0       	ldi	r25, 0x02	; 2
     ce6:	21 50       	subi	r18, 0x01	; 1
     ce8:	80 40       	sbci	r24, 0x00	; 0
     cea:	90 40       	sbci	r25, 0x00	; 0
     cec:	e1 f7       	brne	.-8      	; 0xce6 <p18fxxk80_writeCfg+0x7e>
     cee:	00 c0       	rjmp	.+0      	; 0xcf0 <p18fxxk80_writeCfg+0x88>
     cf0:	00 00       	nop
		_delay_ms(50);
		p16f7x_reset();
     cf2:	0e 94 d1 03 	call	0x7a2	; 0x7a2 <p16f7x_reset>
     cf6:	2f ef       	ldi	r18, 0xFF	; 255
     cf8:	80 e7       	ldi	r24, 0x70	; 112
     cfa:	92 e0       	ldi	r25, 0x02	; 2
     cfc:	21 50       	subi	r18, 0x01	; 1
     cfe:	80 40       	sbci	r24, 0x00	; 0
     d00:	90 40       	sbci	r25, 0x00	; 0
     d02:	e1 f7       	brne	.-8      	; 0xcfc <p18fxxk80_writeCfg+0x94>
     d04:	00 c0       	rjmp	.+0      	; 0xd06 <p18fxxk80_writeCfg+0x9e>
     d06:	00 00       	nop
	}
}

void p18fxxk80_writeCfg(void)
{
	for(int i = 0; i < 14; i++)
     d08:	c0 17       	cp	r28, r16
     d0a:	d1 07       	cpc	r29, r17
     d0c:	09 f0       	breq	.+2      	; 0xd10 <p18fxxk80_writeCfg+0xa8>
     d0e:	bb cf       	rjmp	.-138    	; 0xc86 <p18fxxk80_writeCfg+0x1e>
		p18fx5xx_writeComm(P18FX5XX_CORE_INSTR, 0x0000);
		_delay_ms(50);
		p16f7x_reset();
		_delay_ms(50);
	}
}
     d10:	df 91       	pop	r29
     d12:	cf 91       	pop	r28
     d14:	1f 91       	pop	r17
     d16:	0f 91       	pop	r16
     d18:	ff 90       	pop	r15
     d1a:	ef 90       	pop	r14
     d1c:	08 95       	ret

00000d1e <p16f7x_read>:

void p16f7x_read(void)
{
     d1e:	7f 92       	push	r7
     d20:	8f 92       	push	r8
     d22:	9f 92       	push	r9
     d24:	af 92       	push	r10
     d26:	bf 92       	push	r11
     d28:	cf 92       	push	r12
     d2a:	df 92       	push	r13
     d2c:	ef 92       	push	r14
     d2e:	ff 92       	push	r15
     d30:	0f 93       	push	r16
     d32:	1f 93       	push	r17
     d34:	cf 93       	push	r28
     d36:	df 93       	push	r29
	uint16_t data;

	p16f7x_progMode();
     d38:	0e 94 32 01 	call	0x264	; 0x264 <p16f7x_progMode>

	for(int i = 0; i < f_size; i+= 128)
     d3c:	80 91 c0 02 	lds	r24, 0x02C0	; 0x8002c0 <f_size>
     d40:	90 91 c1 02 	lds	r25, 0x02C1	; 0x8002c1 <f_size+0x1>
     d44:	a0 91 c2 02 	lds	r26, 0x02C2	; 0x8002c2 <f_size+0x2>
     d48:	b0 91 c3 02 	lds	r27, 0x02C3	; 0x8002c3 <f_size+0x3>
     d4c:	89 2b       	or	r24, r25
     d4e:	8a 2b       	or	r24, r26
     d50:	8b 2b       	or	r24, r27
     d52:	81 f5       	brne	.+96     	; 0xdb4 <p16f7x_read+0x96>
     d54:	4c c0       	rjmp	.+152    	; 0xdee <p16f7x_read+0xd0>
	{
		for(int k = 0; k < 128; k+= 2)
		{
			data = p16f7x_readComm(P16F7X_READ_DATA);
     d56:	84 e0       	ldi	r24, 0x04	; 4
     d58:	0e 94 e5 01 	call	0x3ca	; 0x3ca <p16f7x_readComm>
     d5c:	fe 01       	movw	r30, r28
     d5e:	31 97       	sbiw	r30, 0x01	; 1
			main_buff[k + 3] = (data >> 8);
     d60:	90 83       	st	Z, r25
			main_buff[k + 4] = (data & 0xFF);
     d62:	88 83       	st	Y, r24
			p16f7x_writeComm(P16F7X_INC_ADD, 0x0000, 1);
     d64:	41 e0       	ldi	r20, 0x01	; 1
     d66:	60 e0       	ldi	r22, 0x00	; 0
     d68:	70 e0       	ldi	r23, 0x00	; 0
     d6a:	86 e0       	ldi	r24, 0x06	; 6
     d6c:	0e 94 7c 01 	call	0x2f8	; 0x2f8 <p16f7x_writeComm>
     d70:	22 96       	adiw	r28, 0x02	; 2

	p16f7x_progMode();

	for(int i = 0; i < f_size; i+= 128)
	{
		for(int k = 0; k < 128; k+= 2)
     d72:	c0 17       	cp	r28, r16
     d74:	d1 07       	cpc	r29, r17
     d76:	79 f7       	brne	.-34     	; 0xd56 <p16f7x_read+0x38>
			data = p16f7x_readComm(P16F7X_READ_DATA);
			main_buff[k + 3] = (data >> 8);
			main_buff[k + 4] = (data & 0xFF);
			p16f7x_writeComm(P16F7X_INC_ADD, 0x0000, 1);
		}
		main_buff[0] = 0xFE;
     d78:	f7 01       	movw	r30, r14
     d7a:	70 82       	st	Z, r7
		main_buff[1] = 0x80;
     d7c:	81 82       	std	Z+1, r8	; 0x01
		main_buff[2] = 0xA1;
     d7e:	92 82       	std	Z+2, r9	; 0x02
		send_frame(main_buff, 131);
     d80:	63 e8       	ldi	r22, 0x83	; 131
     d82:	c7 01       	movw	r24, r14
     d84:	0e 94 cd 12 	call	0x259a	; 0x259a <send_frame>
{
	uint16_t data;

	p16f7x_progMode();

	for(int i = 0; i < f_size; i+= 128)
     d88:	f0 e8       	ldi	r31, 0x80	; 128
     d8a:	cf 0e       	add	r12, r31
     d8c:	d1 1c       	adc	r13, r1
     d8e:	a6 01       	movw	r20, r12
     d90:	0d 2c       	mov	r0, r13
     d92:	00 0c       	add	r0, r0
     d94:	66 0b       	sbc	r22, r22
     d96:	77 0b       	sbc	r23, r23
     d98:	80 91 c0 02 	lds	r24, 0x02C0	; 0x8002c0 <f_size>
     d9c:	90 91 c1 02 	lds	r25, 0x02C1	; 0x8002c1 <f_size+0x1>
     da0:	a0 91 c2 02 	lds	r26, 0x02C2	; 0x8002c2 <f_size+0x2>
     da4:	b0 91 c3 02 	lds	r27, 0x02C3	; 0x8002c3 <f_size+0x3>
     da8:	48 17       	cp	r20, r24
     daa:	59 07       	cpc	r21, r25
     dac:	6a 07       	cpc	r22, r26
     dae:	7b 07       	cpc	r23, r27
     db0:	e0 f0       	brcs	.+56     	; 0xdea <p16f7x_read+0xcc>
     db2:	1d c0       	rjmp	.+58     	; 0xdee <p16f7x_read+0xd0>
     db4:	c1 2c       	mov	r12, r1
     db6:	d1 2c       	mov	r13, r1
     db8:	0f 2e       	mov	r0, r31
     dba:	f4 e2       	ldi	r31, 0x24	; 36
     dbc:	af 2e       	mov	r10, r31
     dbe:	f1 e0       	ldi	r31, 0x01	; 1
     dc0:	bf 2e       	mov	r11, r31
     dc2:	f0 2d       	mov	r31, r0
     dc4:	04 ea       	ldi	r16, 0xA4	; 164
     dc6:	11 e0       	ldi	r17, 0x01	; 1
			data = p16f7x_readComm(P16F7X_READ_DATA);
			main_buff[k + 3] = (data >> 8);
			main_buff[k + 4] = (data & 0xFF);
			p16f7x_writeComm(P16F7X_INC_ADD, 0x0000, 1);
		}
		main_buff[0] = 0xFE;
     dc8:	0f 2e       	mov	r0, r31
     dca:	f0 e2       	ldi	r31, 0x20	; 32
     dcc:	ef 2e       	mov	r14, r31
     dce:	f1 e0       	ldi	r31, 0x01	; 1
     dd0:	ff 2e       	mov	r15, r31
     dd2:	f0 2d       	mov	r31, r0
     dd4:	0f 2e       	mov	r0, r31
     dd6:	fe ef       	ldi	r31, 0xFE	; 254
     dd8:	7f 2e       	mov	r7, r31
     dda:	f0 2d       	mov	r31, r0
		main_buff[1] = 0x80;
     ddc:	68 94       	set
     dde:	88 24       	eor	r8, r8
     de0:	87 f8       	bld	r8, 7
		main_buff[2] = 0xA1;
     de2:	0f 2e       	mov	r0, r31
     de4:	f1 ea       	ldi	r31, 0xA1	; 161
     de6:	9f 2e       	mov	r9, r31
     de8:	f0 2d       	mov	r31, r0
     dea:	e5 01       	movw	r28, r10
     dec:	b4 cf       	rjmp	.-152    	; 0xd56 <p16f7x_read+0x38>
		send_frame(main_buff, 131);
	}
	p16f7x_reset();
     dee:	0e 94 d1 03 	call	0x7a2	; 0x7a2 <p16f7x_reset>
}
     df2:	df 91       	pop	r29
     df4:	cf 91       	pop	r28
     df6:	1f 91       	pop	r17
     df8:	0f 91       	pop	r16
     dfa:	ff 90       	pop	r15
     dfc:	ef 90       	pop	r14
     dfe:	df 90       	pop	r13
     e00:	cf 90       	pop	r12
     e02:	bf 90       	pop	r11
     e04:	af 90       	pop	r10
     e06:	9f 90       	pop	r9
     e08:	8f 90       	pop	r8
     e0a:	7f 90       	pop	r7
     e0c:	08 95       	ret

00000e0e <p16f628a_read>:


void p16f628a_read(void)
{
     e0e:	7f 92       	push	r7
     e10:	8f 92       	push	r8
     e12:	9f 92       	push	r9
     e14:	af 92       	push	r10
     e16:	bf 92       	push	r11
     e18:	cf 92       	push	r12
     e1a:	df 92       	push	r13
     e1c:	ef 92       	push	r14
     e1e:	ff 92       	push	r15
     e20:	0f 93       	push	r16
     e22:	1f 93       	push	r17
     e24:	cf 93       	push	r28
     e26:	df 93       	push	r29
	uint16_t data;

	p16f628A_progMode();
     e28:	0e 94 4c 01 	call	0x298	; 0x298 <p16f628A_progMode>
     e2c:	8f e1       	ldi	r24, 0x1F	; 31
     e2e:	9e e4       	ldi	r25, 0x4E	; 78
     e30:	01 97       	sbiw	r24, 0x01	; 1
     e32:	f1 f7       	brne	.-4      	; 0xe30 <p16f628a_read+0x22>
     e34:	00 c0       	rjmp	.+0      	; 0xe36 <p16f628a_read+0x28>
     e36:	00 00       	nop

	_delay_ms(5);

	for(int i = 0; i < f_size; i+= 128)
     e38:	80 91 c0 02 	lds	r24, 0x02C0	; 0x8002c0 <f_size>
     e3c:	90 91 c1 02 	lds	r25, 0x02C1	; 0x8002c1 <f_size+0x1>
     e40:	a0 91 c2 02 	lds	r26, 0x02C2	; 0x8002c2 <f_size+0x2>
     e44:	b0 91 c3 02 	lds	r27, 0x02C3	; 0x8002c3 <f_size+0x3>
     e48:	89 2b       	or	r24, r25
     e4a:	8a 2b       	or	r24, r26
     e4c:	8b 2b       	or	r24, r27
     e4e:	81 f5       	brne	.+96     	; 0xeb0 <p16f628a_read+0xa2>
     e50:	4c c0       	rjmp	.+152    	; 0xeea <p16f628a_read+0xdc>
	{
		for(int k = 0; k < 128; k+= 2)
		{
			data = p16f7x_readComm(P16F628A_READ_CODE);
     e52:	84 e0       	ldi	r24, 0x04	; 4
     e54:	0e 94 e5 01 	call	0x3ca	; 0x3ca <p16f7x_readComm>
     e58:	fe 01       	movw	r30, r28
     e5a:	31 97       	sbiw	r30, 0x01	; 1
			main_buff[k + 3] = (data >> 8);
     e5c:	90 83       	st	Z, r25
			main_buff[k + 4] = (data & 0xFF);
     e5e:	88 83       	st	Y, r24
			p16f7x_writeComm(P16F628A_INC_ADD, 0x0000, 1);
     e60:	41 e0       	ldi	r20, 0x01	; 1
     e62:	60 e0       	ldi	r22, 0x00	; 0
     e64:	70 e0       	ldi	r23, 0x00	; 0
     e66:	86 e0       	ldi	r24, 0x06	; 6
     e68:	0e 94 7c 01 	call	0x2f8	; 0x2f8 <p16f7x_writeComm>
     e6c:	22 96       	adiw	r28, 0x02	; 2

	_delay_ms(5);

	for(int i = 0; i < f_size; i+= 128)
	{
		for(int k = 0; k < 128; k+= 2)
     e6e:	c0 17       	cp	r28, r16
     e70:	d1 07       	cpc	r29, r17
     e72:	79 f7       	brne	.-34     	; 0xe52 <p16f628a_read+0x44>
			data = p16f7x_readComm(P16F628A_READ_CODE);
			main_buff[k + 3] = (data >> 8);
			main_buff[k + 4] = (data & 0xFF);
			p16f7x_writeComm(P16F628A_INC_ADD, 0x0000, 1);
		}
		main_buff[0] = 0xFE;
     e74:	f7 01       	movw	r30, r14
     e76:	70 82       	st	Z, r7
		main_buff[1] = 0x80;
     e78:	81 82       	std	Z+1, r8	; 0x01
		main_buff[2] = 0xA1;
     e7a:	92 82       	std	Z+2, r9	; 0x02
		send_frame(main_buff, 131);
     e7c:	63 e8       	ldi	r22, 0x83	; 131
     e7e:	c7 01       	movw	r24, r14
     e80:	0e 94 cd 12 	call	0x259a	; 0x259a <send_frame>

	p16f628A_progMode();

	_delay_ms(5);

	for(int i = 0; i < f_size; i+= 128)
     e84:	f0 e8       	ldi	r31, 0x80	; 128
     e86:	cf 0e       	add	r12, r31
     e88:	d1 1c       	adc	r13, r1
     e8a:	a6 01       	movw	r20, r12
     e8c:	0d 2c       	mov	r0, r13
     e8e:	00 0c       	add	r0, r0
     e90:	66 0b       	sbc	r22, r22
     e92:	77 0b       	sbc	r23, r23
     e94:	80 91 c0 02 	lds	r24, 0x02C0	; 0x8002c0 <f_size>
     e98:	90 91 c1 02 	lds	r25, 0x02C1	; 0x8002c1 <f_size+0x1>
     e9c:	a0 91 c2 02 	lds	r26, 0x02C2	; 0x8002c2 <f_size+0x2>
     ea0:	b0 91 c3 02 	lds	r27, 0x02C3	; 0x8002c3 <f_size+0x3>
     ea4:	48 17       	cp	r20, r24
     ea6:	59 07       	cpc	r21, r25
     ea8:	6a 07       	cpc	r22, r26
     eaa:	7b 07       	cpc	r23, r27
     eac:	e0 f0       	brcs	.+56     	; 0xee6 <p16f628a_read+0xd8>
     eae:	1d c0       	rjmp	.+58     	; 0xeea <p16f628a_read+0xdc>
     eb0:	c1 2c       	mov	r12, r1
     eb2:	d1 2c       	mov	r13, r1
     eb4:	0f 2e       	mov	r0, r31
     eb6:	f4 e2       	ldi	r31, 0x24	; 36
     eb8:	af 2e       	mov	r10, r31
     eba:	f1 e0       	ldi	r31, 0x01	; 1
     ebc:	bf 2e       	mov	r11, r31
     ebe:	f0 2d       	mov	r31, r0
     ec0:	04 ea       	ldi	r16, 0xA4	; 164
     ec2:	11 e0       	ldi	r17, 0x01	; 1
			data = p16f7x_readComm(P16F628A_READ_CODE);
			main_buff[k + 3] = (data >> 8);
			main_buff[k + 4] = (data & 0xFF);
			p16f7x_writeComm(P16F628A_INC_ADD, 0x0000, 1);
		}
		main_buff[0] = 0xFE;
     ec4:	0f 2e       	mov	r0, r31
     ec6:	f0 e2       	ldi	r31, 0x20	; 32
     ec8:	ef 2e       	mov	r14, r31
     eca:	f1 e0       	ldi	r31, 0x01	; 1
     ecc:	ff 2e       	mov	r15, r31
     ece:	f0 2d       	mov	r31, r0
     ed0:	0f 2e       	mov	r0, r31
     ed2:	fe ef       	ldi	r31, 0xFE	; 254
     ed4:	7f 2e       	mov	r7, r31
     ed6:	f0 2d       	mov	r31, r0
		main_buff[1] = 0x80;
     ed8:	68 94       	set
     eda:	88 24       	eor	r8, r8
     edc:	87 f8       	bld	r8, 7
		main_buff[2] = 0xA1;
     ede:	0f 2e       	mov	r0, r31
     ee0:	f1 ea       	ldi	r31, 0xA1	; 161
     ee2:	9f 2e       	mov	r9, r31
     ee4:	f0 2d       	mov	r31, r0
     ee6:	e5 01       	movw	r28, r10
     ee8:	b4 cf       	rjmp	.-152    	; 0xe52 <p16f628a_read+0x44>
		send_frame(main_buff, 131);
	}
	p16f7x_reset();
     eea:	0e 94 d1 03 	call	0x7a2	; 0x7a2 <p16f7x_reset>
     eee:	2f ef       	ldi	r18, 0xFF	; 255
     ef0:	83 ec       	ldi	r24, 0xC3	; 195
     ef2:	99 e0       	ldi	r25, 0x09	; 9
     ef4:	21 50       	subi	r18, 0x01	; 1
     ef6:	80 40       	sbci	r24, 0x00	; 0
     ef8:	90 40       	sbci	r25, 0x00	; 0
     efa:	e1 f7       	brne	.-8      	; 0xef4 <p16f628a_read+0xe6>
     efc:	00 c0       	rjmp	.+0      	; 0xefe <p16f628a_read+0xf0>
     efe:	00 00       	nop

	_delay_ms(200);

	p16f628A_progMode();
     f00:	0e 94 4c 01 	call	0x298	; 0x298 <p16f628A_progMode>

	for(int i = 0; i < ee_size; i+= 64)
     f04:	80 91 c6 02 	lds	r24, 0x02C6	; 0x8002c6 <ee_size>
     f08:	90 91 c7 02 	lds	r25, 0x02C7	; 0x8002c7 <ee_size+0x1>
     f0c:	89 2b       	or	r24, r25
     f0e:	09 f5       	brne	.+66     	; 0xf52 <p16f628a_read+0x144>
     f10:	3d c0       	rjmp	.+122    	; 0xf8c <p16f628a_read+0x17e>
	{
		for(int k = 0; k < 64; k++)
		{
			main_buff[k + 3] = (p16f7x_readComm(P16F628A_READ_DATA) & 0xFF);
     f12:	85 e0       	ldi	r24, 0x05	; 5
     f14:	0e 94 e5 01 	call	0x3ca	; 0x3ca <p16f7x_readComm>
     f18:	89 93       	st	Y+, r24
			p16f7x_writeComm(P16F628A_INC_ADD, 0x0000, 1);
     f1a:	41 e0       	ldi	r20, 0x01	; 1
     f1c:	60 e0       	ldi	r22, 0x00	; 0
     f1e:	70 e0       	ldi	r23, 0x00	; 0
     f20:	86 e0       	ldi	r24, 0x06	; 6
     f22:	0e 94 7c 01 	call	0x2f8	; 0x2f8 <p16f7x_writeComm>

	p16f628A_progMode();

	for(int i = 0; i < ee_size; i+= 64)
	{
		for(int k = 0; k < 64; k++)
     f26:	c0 17       	cp	r28, r16
     f28:	d1 07       	cpc	r29, r17
     f2a:	99 f7       	brne	.-26     	; 0xf12 <p16f628a_read+0x104>
		{
			main_buff[k + 3] = (p16f7x_readComm(P16F628A_READ_DATA) & 0xFF);
			p16f7x_writeComm(P16F628A_INC_ADD, 0x0000, 1);
		}
		main_buff[0] = 0xFE;
     f2c:	f7 01       	movw	r30, r14
     f2e:	70 82       	st	Z, r7
		main_buff[1] = 0x40;
     f30:	81 82       	std	Z+1, r8	; 0x01
		main_buff[2] = 0xA9;
     f32:	92 82       	std	Z+2, r9	; 0x02
		send_frame(main_buff, 67);
     f34:	63 e4       	ldi	r22, 0x43	; 67
     f36:	c7 01       	movw	r24, r14
     f38:	0e 94 cd 12 	call	0x259a	; 0x259a <send_frame>

	_delay_ms(200);

	p16f628A_progMode();

	for(int i = 0; i < ee_size; i+= 64)
     f3c:	f0 e4       	ldi	r31, 0x40	; 64
     f3e:	cf 0e       	add	r12, r31
     f40:	d1 1c       	adc	r13, r1
     f42:	80 91 c6 02 	lds	r24, 0x02C6	; 0x8002c6 <ee_size>
     f46:	90 91 c7 02 	lds	r25, 0x02C7	; 0x8002c7 <ee_size+0x1>
     f4a:	c8 16       	cp	r12, r24
     f4c:	d9 06       	cpc	r13, r25
     f4e:	e0 f0       	brcs	.+56     	; 0xf88 <p16f628a_read+0x17a>
     f50:	1d c0       	rjmp	.+58     	; 0xf8c <p16f628a_read+0x17e>
     f52:	c1 2c       	mov	r12, r1
     f54:	d1 2c       	mov	r13, r1
     f56:	0f 2e       	mov	r0, r31
     f58:	f3 e2       	ldi	r31, 0x23	; 35
     f5a:	af 2e       	mov	r10, r31
     f5c:	f1 e0       	ldi	r31, 0x01	; 1
     f5e:	bf 2e       	mov	r11, r31
     f60:	f0 2d       	mov	r31, r0
     f62:	03 e6       	ldi	r16, 0x63	; 99
     f64:	11 e0       	ldi	r17, 0x01	; 1
		for(int k = 0; k < 64; k++)
		{
			main_buff[k + 3] = (p16f7x_readComm(P16F628A_READ_DATA) & 0xFF);
			p16f7x_writeComm(P16F628A_INC_ADD, 0x0000, 1);
		}
		main_buff[0] = 0xFE;
     f66:	0f 2e       	mov	r0, r31
     f68:	f0 e2       	ldi	r31, 0x20	; 32
     f6a:	ef 2e       	mov	r14, r31
     f6c:	f1 e0       	ldi	r31, 0x01	; 1
     f6e:	ff 2e       	mov	r15, r31
     f70:	f0 2d       	mov	r31, r0
     f72:	0f 2e       	mov	r0, r31
     f74:	fe ef       	ldi	r31, 0xFE	; 254
     f76:	7f 2e       	mov	r7, r31
     f78:	f0 2d       	mov	r31, r0
		main_buff[1] = 0x40;
     f7a:	68 94       	set
     f7c:	88 24       	eor	r8, r8
     f7e:	86 f8       	bld	r8, 6
		main_buff[2] = 0xA9;
     f80:	0f 2e       	mov	r0, r31
     f82:	f9 ea       	ldi	r31, 0xA9	; 169
     f84:	9f 2e       	mov	r9, r31
     f86:	f0 2d       	mov	r31, r0
     f88:	e5 01       	movw	r28, r10
     f8a:	c3 cf       	rjmp	.-122    	; 0xf12 <p16f628a_read+0x104>
		send_frame(main_buff, 67);
	}
	p16f7x_reset();
     f8c:	0e 94 d1 03 	call	0x7a2	; 0x7a2 <p16f7x_reset>
}
     f90:	df 91       	pop	r29
     f92:	cf 91       	pop	r28
     f94:	1f 91       	pop	r17
     f96:	0f 91       	pop	r16
     f98:	ff 90       	pop	r15
     f9a:	ef 90       	pop	r14
     f9c:	df 90       	pop	r13
     f9e:	cf 90       	pop	r12
     fa0:	bf 90       	pop	r11
     fa2:	af 90       	pop	r10
     fa4:	9f 90       	pop	r9
     fa6:	8f 90       	pop	r8
     fa8:	7f 90       	pop	r7
     faa:	08 95       	ret

00000fac <p18fx5xx_read>:

void p18fx5xx_read(void)
{
     fac:	3f 92       	push	r3
     fae:	4f 92       	push	r4
     fb0:	5f 92       	push	r5
     fb2:	6f 92       	push	r6
     fb4:	7f 92       	push	r7
     fb6:	8f 92       	push	r8
     fb8:	9f 92       	push	r9
     fba:	af 92       	push	r10
     fbc:	bf 92       	push	r11
     fbe:	cf 92       	push	r12
     fc0:	df 92       	push	r13
     fc2:	ef 92       	push	r14
     fc4:	ff 92       	push	r15
     fc6:	0f 93       	push	r16
     fc8:	1f 93       	push	r17
     fca:	cf 93       	push	r28
     fcc:	df 93       	push	r29
	p16f7x_progMode();
     fce:	0e 94 32 01 	call	0x264	; 0x264 <p16f7x_progMode>
	p18fx5xx_setDP(0x00, 0x00, 0x00);
     fd2:	40 e0       	ldi	r20, 0x00	; 0
     fd4:	60 e0       	ldi	r22, 0x00	; 0
     fd6:	80 e0       	ldi	r24, 0x00	; 0
     fd8:	0e 94 a9 03 	call	0x752	; 0x752 <p18fx5xx_setDP>

	for(int i = 0; i < f_size; i+= 128)
     fdc:	80 91 c0 02 	lds	r24, 0x02C0	; 0x8002c0 <f_size>
     fe0:	90 91 c1 02 	lds	r25, 0x02C1	; 0x8002c1 <f_size+0x1>
     fe4:	a0 91 c2 02 	lds	r26, 0x02C2	; 0x8002c2 <f_size+0x2>
     fe8:	b0 91 c3 02 	lds	r27, 0x02C3	; 0x8002c3 <f_size+0x3>
     fec:	89 2b       	or	r24, r25
     fee:	8a 2b       	or	r24, r26
     ff0:	8b 2b       	or	r24, r27
     ff2:	79 f5       	brne	.+94     	; 0x1052 <p18fx5xx_read+0xa6>
     ff4:	4b c0       	rjmp	.+150    	; 0x108c <p18fx5xx_read+0xe0>
	{
		for(int k = 0; k < 128; k+= 2)
		{
			main_buff[k + 4] = p18fx5xx_readComm(P18FX5XX_TABLE_RDPI, 0x00);
     ff6:	60 e0       	ldi	r22, 0x00	; 0
     ff8:	89 e0       	ldi	r24, 0x09	; 9
     ffa:	0e 94 29 03 	call	0x652	; 0x652 <p18fx5xx_readComm>
     ffe:	88 83       	st	Y, r24
			main_buff[k + 3] = p18fx5xx_readComm(P18FX5XX_TABLE_RDPI, 0x00);
    1000:	60 e0       	ldi	r22, 0x00	; 0
    1002:	89 e0       	ldi	r24, 0x09	; 9
    1004:	0e 94 29 03 	call	0x652	; 0x652 <p18fx5xx_readComm>
    1008:	fe 01       	movw	r30, r28
    100a:	31 97       	sbiw	r30, 0x01	; 1
    100c:	80 83       	st	Z, r24
    100e:	22 96       	adiw	r28, 0x02	; 2
	p16f7x_progMode();
	p18fx5xx_setDP(0x00, 0x00, 0x00);

	for(int i = 0; i < f_size; i+= 128)
	{
		for(int k = 0; k < 128; k+= 2)
    1010:	c0 17       	cp	r28, r16
    1012:	d1 07       	cpc	r29, r17
    1014:	81 f7       	brne	.-32     	; 0xff6 <p18fx5xx_read+0x4a>
		{
			main_buff[k + 4] = p18fx5xx_readComm(P18FX5XX_TABLE_RDPI, 0x00);
			main_buff[k + 3] = p18fx5xx_readComm(P18FX5XX_TABLE_RDPI, 0x00);
		}
		main_buff[0] = 0xFE;
    1016:	f7 01       	movw	r30, r14
    1018:	70 82       	st	Z, r7
		main_buff[1] = 0x80;
    101a:	81 82       	std	Z+1, r8	; 0x01
		main_buff[2] = 0xA1;
    101c:	92 82       	std	Z+2, r9	; 0x02
		send_frame(main_buff, 131);
    101e:	63 e8       	ldi	r22, 0x83	; 131
    1020:	c7 01       	movw	r24, r14
    1022:	0e 94 cd 12 	call	0x259a	; 0x259a <send_frame>
void p18fx5xx_read(void)
{
	p16f7x_progMode();
	p18fx5xx_setDP(0x00, 0x00, 0x00);

	for(int i = 0; i < f_size; i+= 128)
    1026:	f0 e8       	ldi	r31, 0x80	; 128
    1028:	cf 0e       	add	r12, r31
    102a:	d1 1c       	adc	r13, r1
    102c:	a6 01       	movw	r20, r12
    102e:	0d 2c       	mov	r0, r13
    1030:	00 0c       	add	r0, r0
    1032:	66 0b       	sbc	r22, r22
    1034:	77 0b       	sbc	r23, r23
    1036:	80 91 c0 02 	lds	r24, 0x02C0	; 0x8002c0 <f_size>
    103a:	90 91 c1 02 	lds	r25, 0x02C1	; 0x8002c1 <f_size+0x1>
    103e:	a0 91 c2 02 	lds	r26, 0x02C2	; 0x8002c2 <f_size+0x2>
    1042:	b0 91 c3 02 	lds	r27, 0x02C3	; 0x8002c3 <f_size+0x3>
    1046:	48 17       	cp	r20, r24
    1048:	59 07       	cpc	r21, r25
    104a:	6a 07       	cpc	r22, r26
    104c:	7b 07       	cpc	r23, r27
    104e:	e0 f0       	brcs	.+56     	; 0x1088 <p18fx5xx_read+0xdc>
    1050:	1d c0       	rjmp	.+58     	; 0x108c <p18fx5xx_read+0xe0>
    1052:	c1 2c       	mov	r12, r1
    1054:	d1 2c       	mov	r13, r1
    1056:	0f 2e       	mov	r0, r31
    1058:	f4 e2       	ldi	r31, 0x24	; 36
    105a:	af 2e       	mov	r10, r31
    105c:	f1 e0       	ldi	r31, 0x01	; 1
    105e:	bf 2e       	mov	r11, r31
    1060:	f0 2d       	mov	r31, r0
    1062:	04 ea       	ldi	r16, 0xA4	; 164
    1064:	11 e0       	ldi	r17, 0x01	; 1
		for(int k = 0; k < 128; k+= 2)
		{
			main_buff[k + 4] = p18fx5xx_readComm(P18FX5XX_TABLE_RDPI, 0x00);
			main_buff[k + 3] = p18fx5xx_readComm(P18FX5XX_TABLE_RDPI, 0x00);
		}
		main_buff[0] = 0xFE;
    1066:	0f 2e       	mov	r0, r31
    1068:	f0 e2       	ldi	r31, 0x20	; 32
    106a:	ef 2e       	mov	r14, r31
    106c:	f1 e0       	ldi	r31, 0x01	; 1
    106e:	ff 2e       	mov	r15, r31
    1070:	f0 2d       	mov	r31, r0
    1072:	0f 2e       	mov	r0, r31
    1074:	fe ef       	ldi	r31, 0xFE	; 254
    1076:	7f 2e       	mov	r7, r31
    1078:	f0 2d       	mov	r31, r0
		main_buff[1] = 0x80;
    107a:	68 94       	set
    107c:	88 24       	eor	r8, r8
    107e:	87 f8       	bld	r8, 7
		main_buff[2] = 0xA1;
    1080:	0f 2e       	mov	r0, r31
    1082:	f1 ea       	ldi	r31, 0xA1	; 161
    1084:	9f 2e       	mov	r9, r31
    1086:	f0 2d       	mov	r31, r0
    1088:	e5 01       	movw	r28, r10
    108a:	b5 cf       	rjmp	.-150    	; 0xff6 <p18fx5xx_read+0x4a>
		send_frame(main_buff, 131);
	}
	p16f7x_reset();
    108c:	0e 94 d1 03 	call	0x7a2	; 0x7a2 <p16f7x_reset>

	if(ee_size > 0)
    1090:	80 91 c6 02 	lds	r24, 0x02C6	; 0x8002c6 <ee_size>
    1094:	90 91 c7 02 	lds	r25, 0x02C7	; 0x8002c7 <ee_size+0x1>
    1098:	89 2b       	or	r24, r25
    109a:	09 f4       	brne	.+2      	; 0x109e <p18fx5xx_read+0xf2>
    109c:	8d c0       	rjmp	.+282    	; 0x11b8 <p18fx5xx_read+0x20c>
	{
		p16f7x_progMode();
    109e:	0e 94 32 01 	call	0x264	; 0x264 <p16f7x_progMode>
		p18fx5xx_writeComm(P18FX5XX_CORE_INSTR, 0x9EA6);
    10a2:	66 ea       	ldi	r22, 0xA6	; 166
    10a4:	7e e9       	ldi	r23, 0x9E	; 158
    10a6:	80 e0       	ldi	r24, 0x00	; 0
    10a8:	0e 94 57 02 	call	0x4ae	; 0x4ae <p18fx5xx_writeComm>
		p18fx5xx_writeComm(P18FX5XX_CORE_INSTR, 0x9CA6);
    10ac:	66 ea       	ldi	r22, 0xA6	; 166
    10ae:	7c e9       	ldi	r23, 0x9C	; 156
    10b0:	80 e0       	ldi	r24, 0x00	; 0
    10b2:	0e 94 57 02 	call	0x4ae	; 0x4ae <p18fx5xx_writeComm>
		for(int i = 0; i < ee_size; i+= 64)
    10b6:	80 91 c6 02 	lds	r24, 0x02C6	; 0x8002c6 <ee_size>
    10ba:	90 91 c7 02 	lds	r25, 0x02C7	; 0x8002c7 <ee_size+0x1>
    10be:	89 2b       	or	r24, r25
    10c0:	09 f0       	breq	.+2      	; 0x10c4 <p18fx5xx_read+0x118>
    10c2:	4f c0       	rjmp	.+158    	; 0x1162 <p18fx5xx_read+0x1b6>
    10c4:	77 c0       	rjmp	.+238    	; 0x11b4 <p18fx5xx_read+0x208>
    10c6:	e8 01       	movw	r28, r16
    10c8:	c8 0d       	add	r28, r8
    10ca:	d9 1d       	adc	r29, r9
		{
			for(int k = 0; k < 64; k++)
			{
				uint16_t c_add = k + i;
				p18fx5xx_writeComm(P18FX5XX_CORE_INSTR, (0x0E00 | (c_add & 0xFF)));
    10cc:	be 01       	movw	r22, r28
    10ce:	77 27       	eor	r23, r23
    10d0:	7e 60       	ori	r23, 0x0E	; 14
    10d2:	80 e0       	ldi	r24, 0x00	; 0
    10d4:	0e 94 57 02 	call	0x4ae	; 0x4ae <p18fx5xx_writeComm>
				p18fx5xx_writeComm(P18FX5XX_CORE_INSTR, 0x6EA9);
    10d8:	69 ea       	ldi	r22, 0xA9	; 169
    10da:	7e e6       	ldi	r23, 0x6E	; 110
    10dc:	80 e0       	ldi	r24, 0x00	; 0
    10de:	0e 94 57 02 	call	0x4ae	; 0x4ae <p18fx5xx_writeComm>
				p18fx5xx_writeComm(P18FX5XX_CORE_INSTR, (0x0E00 | (c_add >> 8)));
    10e2:	6d 2f       	mov	r22, r29
    10e4:	77 27       	eor	r23, r23
    10e6:	7e 60       	ori	r23, 0x0E	; 14
    10e8:	80 e0       	ldi	r24, 0x00	; 0
    10ea:	0e 94 57 02 	call	0x4ae	; 0x4ae <p18fx5xx_writeComm>
				p18fx5xx_writeComm(P18FX5XX_CORE_INSTR, 0x6EAA);
    10ee:	6a ea       	ldi	r22, 0xAA	; 170
    10f0:	7e e6       	ldi	r23, 0x6E	; 110
    10f2:	80 e0       	ldi	r24, 0x00	; 0
    10f4:	0e 94 57 02 	call	0x4ae	; 0x4ae <p18fx5xx_writeComm>
				p18fx5xx_writeComm(P18FX5XX_CORE_INSTR, 0x80A6);
    10f8:	66 ea       	ldi	r22, 0xA6	; 166
    10fa:	70 e8       	ldi	r23, 0x80	; 128
    10fc:	80 e0       	ldi	r24, 0x00	; 0
    10fe:	0e 94 57 02 	call	0x4ae	; 0x4ae <p18fx5xx_writeComm>
				p18fx5xx_writeComm(P18FX5XX_CORE_INSTR, 0x50A8);
    1102:	68 ea       	ldi	r22, 0xA8	; 168
    1104:	70 e5       	ldi	r23, 0x50	; 80
    1106:	80 e0       	ldi	r24, 0x00	; 0
    1108:	0e 94 57 02 	call	0x4ae	; 0x4ae <p18fx5xx_writeComm>
				p18fx5xx_writeComm(P18FX5XX_CORE_INSTR, 0x6EF5);
    110c:	65 ef       	ldi	r22, 0xF5	; 245
    110e:	7e e6       	ldi	r23, 0x6E	; 110
    1110:	80 e0       	ldi	r24, 0x00	; 0
    1112:	0e 94 57 02 	call	0x4ae	; 0x4ae <p18fx5xx_writeComm>
				p18fx5xx_writeComm(P18FX5XX_CORE_INSTR, 0x0000);
    1116:	60 e0       	ldi	r22, 0x00	; 0
    1118:	70 e0       	ldi	r23, 0x00	; 0
    111a:	80 e0       	ldi	r24, 0x00	; 0
    111c:	0e 94 57 02 	call	0x4ae	; 0x4ae <p18fx5xx_writeComm>
				p18fx5xx_readComm(P18FX5XX_SHIFT_TABL, 0x00);
    1120:	60 e0       	ldi	r22, 0x00	; 0
    1122:	82 e0       	ldi	r24, 0x02	; 2
    1124:	0e 94 29 03 	call	0x652	; 0x652 <p18fx5xx_readComm>
				main_buff[k + 3] = p18fx5xx_readComm(P18FX5XX_SHIFT_TABL, 0x00);
    1128:	60 e0       	ldi	r22, 0x00	; 0
    112a:	82 e0       	ldi	r24, 0x02	; 2
    112c:	0e 94 29 03 	call	0x652	; 0x652 <p18fx5xx_readComm>
    1130:	f4 01       	movw	r30, r8
    1132:	81 93       	st	Z+, r24
    1134:	4f 01       	movw	r8, r30
		p16f7x_progMode();
		p18fx5xx_writeComm(P18FX5XX_CORE_INSTR, 0x9EA6);
		p18fx5xx_writeComm(P18FX5XX_CORE_INSTR, 0x9CA6);
		for(int i = 0; i < ee_size; i+= 64)
		{
			for(int k = 0; k < 64; k++)
    1136:	ee 15       	cp	r30, r14
    1138:	ff 05       	cpc	r31, r15
    113a:	29 f6       	brne	.-118    	; 0x10c6 <p18fx5xx_read+0x11a>
				p18fx5xx_writeComm(P18FX5XX_CORE_INSTR, 0x6EF5);
				p18fx5xx_writeComm(P18FX5XX_CORE_INSTR, 0x0000);
				p18fx5xx_readComm(P18FX5XX_SHIFT_TABL, 0x00);
				main_buff[k + 3] = p18fx5xx_readComm(P18FX5XX_SHIFT_TABL, 0x00);
			}
			main_buff[0] = 0xFE;
    113c:	f6 01       	movw	r30, r12
    113e:	30 82       	st	Z, r3
			main_buff[1] = 0x40;
    1140:	41 82       	std	Z+1, r4	; 0x01
			main_buff[2] = 0xA9;
    1142:	52 82       	std	Z+2, r5	; 0x02
			send_frame(main_buff, 67);
    1144:	63 e4       	ldi	r22, 0x43	; 67
    1146:	c6 01       	movw	r24, r12
    1148:	0e 94 cd 12 	call	0x259a	; 0x259a <send_frame>
	if(ee_size > 0)
	{
		p16f7x_progMode();
		p18fx5xx_writeComm(P18FX5XX_CORE_INSTR, 0x9EA6);
		p18fx5xx_writeComm(P18FX5XX_CORE_INSTR, 0x9CA6);
		for(int i = 0; i < ee_size; i+= 64)
    114c:	f0 e4       	ldi	r31, 0x40	; 64
    114e:	af 0e       	add	r10, r31
    1150:	b1 1c       	adc	r11, r1
    1152:	80 91 c6 02 	lds	r24, 0x02C6	; 0x8002c6 <ee_size>
    1156:	90 91 c7 02 	lds	r25, 0x02C7	; 0x8002c7 <ee_size+0x1>
    115a:	a8 16       	cp	r10, r24
    115c:	b9 06       	cpc	r11, r25
    115e:	00 f1       	brcs	.+64     	; 0x11a0 <p18fx5xx_read+0x1f4>
    1160:	29 c0       	rjmp	.+82     	; 0x11b4 <p18fx5xx_read+0x208>
    1162:	a1 2c       	mov	r10, r1
    1164:	b1 2c       	mov	r11, r1
    1166:	0f 2e       	mov	r0, r31
    1168:	f3 e6       	ldi	r31, 0x63	; 99
    116a:	ef 2e       	mov	r14, r31
    116c:	f1 e0       	ldi	r31, 0x01	; 1
    116e:	ff 2e       	mov	r15, r31
    1170:	f0 2d       	mov	r31, r0
    1172:	8d ef       	ldi	r24, 0xFD	; 253
    1174:	9f ef       	ldi	r25, 0xFF	; 255
    1176:	9c 01       	movw	r18, r24
    1178:	20 52       	subi	r18, 0x20	; 32
    117a:	31 40       	sbci	r19, 0x01	; 1
    117c:	39 01       	movw	r6, r18
				p18fx5xx_writeComm(P18FX5XX_CORE_INSTR, 0x6EF5);
				p18fx5xx_writeComm(P18FX5XX_CORE_INSTR, 0x0000);
				p18fx5xx_readComm(P18FX5XX_SHIFT_TABL, 0x00);
				main_buff[k + 3] = p18fx5xx_readComm(P18FX5XX_SHIFT_TABL, 0x00);
			}
			main_buff[0] = 0xFE;
    117e:	0f 2e       	mov	r0, r31
    1180:	f0 e2       	ldi	r31, 0x20	; 32
    1182:	cf 2e       	mov	r12, r31
    1184:	f1 e0       	ldi	r31, 0x01	; 1
    1186:	df 2e       	mov	r13, r31
    1188:	f0 2d       	mov	r31, r0
    118a:	0f 2e       	mov	r0, r31
    118c:	fe ef       	ldi	r31, 0xFE	; 254
    118e:	3f 2e       	mov	r3, r31
    1190:	f0 2d       	mov	r31, r0
			main_buff[1] = 0x40;
    1192:	68 94       	set
    1194:	44 24       	eor	r4, r4
    1196:	46 f8       	bld	r4, 6
			main_buff[2] = 0xA9;
    1198:	0f 2e       	mov	r0, r31
    119a:	f9 ea       	ldi	r31, 0xA9	; 169
    119c:	5f 2e       	mov	r5, r31
    119e:	f0 2d       	mov	r31, r0
    11a0:	0f 2e       	mov	r0, r31
    11a2:	f3 e2       	ldi	r31, 0x23	; 35
    11a4:	8f 2e       	mov	r8, r31
    11a6:	f1 e0       	ldi	r31, 0x01	; 1
    11a8:	9f 2e       	mov	r9, r31
    11aa:	f0 2d       	mov	r31, r0
    11ac:	83 01       	movw	r16, r6
    11ae:	0a 0d       	add	r16, r10
    11b0:	1b 1d       	adc	r17, r11
    11b2:	89 cf       	rjmp	.-238    	; 0x10c6 <p18fx5xx_read+0x11a>
			send_frame(main_buff, 67);
		}
		p16f7x_reset();
    11b4:	0e 94 d1 03 	call	0x7a2	; 0x7a2 <p16f7x_reset>
	}
}
    11b8:	df 91       	pop	r29
    11ba:	cf 91       	pop	r28
    11bc:	1f 91       	pop	r17
    11be:	0f 91       	pop	r16
    11c0:	ff 90       	pop	r15
    11c2:	ef 90       	pop	r14
    11c4:	df 90       	pop	r13
    11c6:	cf 90       	pop	r12
    11c8:	bf 90       	pop	r11
    11ca:	af 90       	pop	r10
    11cc:	9f 90       	pop	r9
    11ce:	8f 90       	pop	r8
    11d0:	7f 90       	pop	r7
    11d2:	6f 90       	pop	r6
    11d4:	5f 90       	pop	r5
    11d6:	4f 90       	pop	r4
    11d8:	3f 90       	pop	r3
    11da:	08 95       	ret

000011dc <p18fxxk80_read>:

void p18fxxk80_read(void)
{
    11dc:	3f 92       	push	r3
    11de:	4f 92       	push	r4
    11e0:	5f 92       	push	r5
    11e2:	6f 92       	push	r6
    11e4:	7f 92       	push	r7
    11e6:	8f 92       	push	r8
    11e8:	9f 92       	push	r9
    11ea:	af 92       	push	r10
    11ec:	bf 92       	push	r11
    11ee:	cf 92       	push	r12
    11f0:	df 92       	push	r13
    11f2:	ef 92       	push	r14
    11f4:	ff 92       	push	r15
    11f6:	0f 93       	push	r16
    11f8:	1f 93       	push	r17
    11fa:	cf 93       	push	r28
    11fc:	df 93       	push	r29
	p16f7x_progMode();
    11fe:	0e 94 32 01 	call	0x264	; 0x264 <p16f7x_progMode>

		p18fxxk80_password(0x4D43, 0x4850);
    1202:	60 e5       	ldi	r22, 0x50	; 80
    1204:	78 e4       	ldi	r23, 0x48	; 72
    1206:	83 e4       	ldi	r24, 0x43	; 67
    1208:	9d e4       	ldi	r25, 0x4D	; 77
    120a:	0e 94 dd 02 	call	0x5ba	; 0x5ba <p18fxxk80_password>

		p18fx5xx_setDP(0x00, 0x00, 0x00);
    120e:	40 e0       	ldi	r20, 0x00	; 0
    1210:	60 e0       	ldi	r22, 0x00	; 0
    1212:	80 e0       	ldi	r24, 0x00	; 0
    1214:	0e 94 a9 03 	call	0x752	; 0x752 <p18fx5xx_setDP>

		for(int i = 0; i < f_size; i+= 128)
    1218:	80 91 c0 02 	lds	r24, 0x02C0	; 0x8002c0 <f_size>
    121c:	90 91 c1 02 	lds	r25, 0x02C1	; 0x8002c1 <f_size+0x1>
    1220:	a0 91 c2 02 	lds	r26, 0x02C2	; 0x8002c2 <f_size+0x2>
    1224:	b0 91 c3 02 	lds	r27, 0x02C3	; 0x8002c3 <f_size+0x3>
    1228:	89 2b       	or	r24, r25
    122a:	8a 2b       	or	r24, r26
    122c:	8b 2b       	or	r24, r27
    122e:	79 f5       	brne	.+94     	; 0x128e <p18fxxk80_read+0xb2>
    1230:	e3 c0       	rjmp	.+454    	; 0x13f8 <p18fxxk80_read+0x21c>
		{
			for(int k = 0; k < 128; k+= 2)
			{
				main_buff[k + 4] = p18fx5xx_readComm(P18FX5XX_TABLE_RDPI, 0x00);
    1232:	60 e0       	ldi	r22, 0x00	; 0
    1234:	89 e0       	ldi	r24, 0x09	; 9
    1236:	0e 94 29 03 	call	0x652	; 0x652 <p18fx5xx_readComm>
    123a:	88 83       	st	Y, r24
				main_buff[k + 3] = p18fx5xx_readComm(P18FX5XX_TABLE_RDPI, 0x00);
    123c:	60 e0       	ldi	r22, 0x00	; 0
    123e:	89 e0       	ldi	r24, 0x09	; 9
    1240:	0e 94 29 03 	call	0x652	; 0x652 <p18fx5xx_readComm>
    1244:	fe 01       	movw	r30, r28
    1246:	31 97       	sbiw	r30, 0x01	; 1
    1248:	80 83       	st	Z, r24
    124a:	22 96       	adiw	r28, 0x02	; 2

		p18fx5xx_setDP(0x00, 0x00, 0x00);

		for(int i = 0; i < f_size; i+= 128)
		{
			for(int k = 0; k < 128; k+= 2)
    124c:	c0 17       	cp	r28, r16
    124e:	d1 07       	cpc	r29, r17
    1250:	81 f7       	brne	.-32     	; 0x1232 <p18fxxk80_read+0x56>
			{
				main_buff[k + 4] = p18fx5xx_readComm(P18FX5XX_TABLE_RDPI, 0x00);
				main_buff[k + 3] = p18fx5xx_readComm(P18FX5XX_TABLE_RDPI, 0x00);
			}
			main_buff[0] = 0xFE;
    1252:	f7 01       	movw	r30, r14
    1254:	70 82       	st	Z, r7
			main_buff[1] = 0x80;
    1256:	81 82       	std	Z+1, r8	; 0x01
			main_buff[2] = 0xA1;
    1258:	92 82       	std	Z+2, r9	; 0x02
			send_frame(main_buff, 131);
    125a:	63 e8       	ldi	r22, 0x83	; 131
    125c:	c7 01       	movw	r24, r14
    125e:	0e 94 cd 12 	call	0x259a	; 0x259a <send_frame>

		p18fxxk80_password(0x4D43, 0x4850);

		p18fx5xx_setDP(0x00, 0x00, 0x00);

		for(int i = 0; i < f_size; i+= 128)
    1262:	f0 e8       	ldi	r31, 0x80	; 128
    1264:	cf 0e       	add	r12, r31
    1266:	d1 1c       	adc	r13, r1
    1268:	a6 01       	movw	r20, r12
    126a:	0d 2c       	mov	r0, r13
    126c:	00 0c       	add	r0, r0
    126e:	66 0b       	sbc	r22, r22
    1270:	77 0b       	sbc	r23, r23
    1272:	80 91 c0 02 	lds	r24, 0x02C0	; 0x8002c0 <f_size>
    1276:	90 91 c1 02 	lds	r25, 0x02C1	; 0x8002c1 <f_size+0x1>
    127a:	a0 91 c2 02 	lds	r26, 0x02C2	; 0x8002c2 <f_size+0x2>
    127e:	b0 91 c3 02 	lds	r27, 0x02C3	; 0x8002c3 <f_size+0x3>
    1282:	48 17       	cp	r20, r24
    1284:	59 07       	cpc	r21, r25
    1286:	6a 07       	cpc	r22, r26
    1288:	7b 07       	cpc	r23, r27
    128a:	e0 f0       	brcs	.+56     	; 0x12c4 <p18fxxk80_read+0xe8>
    128c:	1d c0       	rjmp	.+58     	; 0x12c8 <p18fxxk80_read+0xec>
    128e:	c1 2c       	mov	r12, r1
    1290:	d1 2c       	mov	r13, r1
    1292:	0f 2e       	mov	r0, r31
    1294:	f4 e2       	ldi	r31, 0x24	; 36
    1296:	af 2e       	mov	r10, r31
    1298:	f1 e0       	ldi	r31, 0x01	; 1
    129a:	bf 2e       	mov	r11, r31
    129c:	f0 2d       	mov	r31, r0
    129e:	04 ea       	ldi	r16, 0xA4	; 164
    12a0:	11 e0       	ldi	r17, 0x01	; 1
			for(int k = 0; k < 128; k+= 2)
			{
				main_buff[k + 4] = p18fx5xx_readComm(P18FX5XX_TABLE_RDPI, 0x00);
				main_buff[k + 3] = p18fx5xx_readComm(P18FX5XX_TABLE_RDPI, 0x00);
			}
			main_buff[0] = 0xFE;
    12a2:	0f 2e       	mov	r0, r31
    12a4:	f0 e2       	ldi	r31, 0x20	; 32
    12a6:	ef 2e       	mov	r14, r31
    12a8:	f1 e0       	ldi	r31, 0x01	; 1
    12aa:	ff 2e       	mov	r15, r31
    12ac:	f0 2d       	mov	r31, r0
    12ae:	0f 2e       	mov	r0, r31
    12b0:	fe ef       	ldi	r31, 0xFE	; 254
    12b2:	7f 2e       	mov	r7, r31
    12b4:	f0 2d       	mov	r31, r0
			main_buff[1] = 0x80;
    12b6:	68 94       	set
    12b8:	88 24       	eor	r8, r8
    12ba:	87 f8       	bld	r8, 7
			main_buff[2] = 0xA1;
    12bc:	0f 2e       	mov	r0, r31
    12be:	f1 ea       	ldi	r31, 0xA1	; 161
    12c0:	9f 2e       	mov	r9, r31
    12c2:	f0 2d       	mov	r31, r0
    12c4:	e5 01       	movw	r28, r10
    12c6:	b5 cf       	rjmp	.-150    	; 0x1232 <p18fxxk80_read+0x56>
			send_frame(main_buff, 131);
		}
		p16f7x_reset();
    12c8:	0e 94 d1 03 	call	0x7a2	; 0x7a2 <p16f7x_reset>
    12cc:	8f e3       	ldi	r24, 0x3F	; 63
    12ce:	9c e9       	ldi	r25, 0x9C	; 156
    12d0:	01 97       	sbiw	r24, 0x01	; 1
    12d2:	f1 f7       	brne	.-4      	; 0x12d0 <p18fxxk80_read+0xf4>
    12d4:	00 c0       	rjmp	.+0      	; 0x12d6 <p18fxxk80_read+0xfa>
    12d6:	00 00       	nop

	_delay_ms(10);

	if(ee_size > 0)
    12d8:	80 91 c6 02 	lds	r24, 0x02C6	; 0x8002c6 <ee_size>
    12dc:	90 91 c7 02 	lds	r25, 0x02C7	; 0x8002c7 <ee_size+0x1>
    12e0:	89 2b       	or	r24, r25
    12e2:	09 f0       	breq	.+2      	; 0x12e6 <p18fxxk80_read+0x10a>
    12e4:	64 c0       	rjmp	.+200    	; 0x13ae <p18fxxk80_read+0x1d2>
    12e6:	96 c0       	rjmp	.+300    	; 0x1414 <p18fxxk80_read+0x238>
	{
		for(int i = 0; i < ee_size; i+= 64)
		{
			for(int k = 0; k < 64; k++)
			{
				p16f7x_progMode();
    12e8:	0e 94 32 01 	call	0x264	; 0x264 <p16f7x_progMode>
				p18fxxk80_password(0x4D43, 0x4850);
    12ec:	60 e5       	ldi	r22, 0x50	; 80
    12ee:	78 e4       	ldi	r23, 0x48	; 72
    12f0:	83 e4       	ldi	r24, 0x43	; 67
    12f2:	9d e4       	ldi	r25, 0x4D	; 77
    12f4:	0e 94 dd 02 	call	0x5ba	; 0x5ba <p18fxxk80_password>
    12f8:	e7 01       	movw	r28, r14
    12fa:	c0 0f       	add	r28, r16
    12fc:	d1 1f       	adc	r29, r17
				uint16_t c_add = k + i;

				p18fx5xx_writeComm(P18FX5XX_CORE_INSTR, 0x9E7F);
    12fe:	6f e7       	ldi	r22, 0x7F	; 127
    1300:	7e e9       	ldi	r23, 0x9E	; 158
    1302:	80 e0       	ldi	r24, 0x00	; 0
    1304:	0e 94 57 02 	call	0x4ae	; 0x4ae <p18fx5xx_writeComm>
				p18fx5xx_writeComm(P18FX5XX_CORE_INSTR, 0x9C7F);
    1308:	6f e7       	ldi	r22, 0x7F	; 127
    130a:	7c e9       	ldi	r23, 0x9C	; 156
    130c:	80 e0       	ldi	r24, 0x00	; 0
    130e:	0e 94 57 02 	call	0x4ae	; 0x4ae <p18fx5xx_writeComm>
				p18fx5xx_writeComm(P18FX5XX_CORE_INSTR, (0x0E00 | (c_add & 0xFF)));
    1312:	be 01       	movw	r22, r28
    1314:	77 27       	eor	r23, r23
    1316:	7e 60       	ori	r23, 0x0E	; 14
    1318:	80 e0       	ldi	r24, 0x00	; 0
    131a:	0e 94 57 02 	call	0x4ae	; 0x4ae <p18fx5xx_writeComm>
				p18fx5xx_writeComm(P18FX5XX_CORE_INSTR, 0x6E74);
    131e:	64 e7       	ldi	r22, 0x74	; 116
    1320:	7e e6       	ldi	r23, 0x6E	; 110
    1322:	80 e0       	ldi	r24, 0x00	; 0
    1324:	0e 94 57 02 	call	0x4ae	; 0x4ae <p18fx5xx_writeComm>
				p18fx5xx_writeComm(P18FX5XX_CORE_INSTR, (0x0E00 | (c_add >> 8)));
    1328:	6d 2f       	mov	r22, r29
    132a:	77 27       	eor	r23, r23
    132c:	7e 60       	ori	r23, 0x0E	; 14
    132e:	80 e0       	ldi	r24, 0x00	; 0
    1330:	0e 94 57 02 	call	0x4ae	; 0x4ae <p18fx5xx_writeComm>
				p18fx5xx_writeComm(P18FX5XX_CORE_INSTR, 0x6E75);
    1334:	65 e7       	ldi	r22, 0x75	; 117
    1336:	7e e6       	ldi	r23, 0x6E	; 110
    1338:	80 e0       	ldi	r24, 0x00	; 0
    133a:	0e 94 57 02 	call	0x4ae	; 0x4ae <p18fx5xx_writeComm>
				p18fx5xx_writeComm(P18FX5XX_CORE_INSTR, 0x807F);
    133e:	6f e7       	ldi	r22, 0x7F	; 127
    1340:	70 e8       	ldi	r23, 0x80	; 128
    1342:	80 e0       	ldi	r24, 0x00	; 0
    1344:	0e 94 57 02 	call	0x4ae	; 0x4ae <p18fx5xx_writeComm>
				p18fx5xx_writeComm(P18FX5XX_CORE_INSTR, 0x5073);
    1348:	63 e7       	ldi	r22, 0x73	; 115
    134a:	70 e5       	ldi	r23, 0x50	; 80
    134c:	80 e0       	ldi	r24, 0x00	; 0
    134e:	0e 94 57 02 	call	0x4ae	; 0x4ae <p18fx5xx_writeComm>
				p18fx5xx_writeComm(P18FX5XX_CORE_INSTR, 0x6EF5);
    1352:	65 ef       	ldi	r22, 0xF5	; 245
    1354:	7e e6       	ldi	r23, 0x6E	; 110
    1356:	80 e0       	ldi	r24, 0x00	; 0
    1358:	0e 94 57 02 	call	0x4ae	; 0x4ae <p18fx5xx_writeComm>
				p18fx5xx_writeComm(P18FX5XX_CORE_INSTR, 0x0000);
    135c:	60 e0       	ldi	r22, 0x00	; 0
    135e:	70 e0       	ldi	r23, 0x00	; 0
    1360:	80 e0       	ldi	r24, 0x00	; 0
    1362:	0e 94 57 02 	call	0x4ae	; 0x4ae <p18fx5xx_writeComm>
				main_buff[k + 3] = p18fx5xx_readComm(P18FX5XX_SHIFT_TABL, 0x00);
    1366:	60 e0       	ldi	r22, 0x00	; 0
    1368:	82 e0       	ldi	r24, 0x02	; 2
    136a:	0e 94 29 03 	call	0x652	; 0x652 <p18fx5xx_readComm>
    136e:	f8 01       	movw	r30, r16
    1370:	81 93       	st	Z+, r24
    1372:	8f 01       	movw	r16, r30
				p18fx5xx_readComm(P18FX5XX_SHIFT_TABL, 0x00);
    1374:	60 e0       	ldi	r22, 0x00	; 0
    1376:	82 e0       	ldi	r24, 0x02	; 2
    1378:	0e 94 29 03 	call	0x652	; 0x652 <p18fx5xx_readComm>
				p16f7x_reset();
    137c:	0e 94 d1 03 	call	0x7a2	; 0x7a2 <p16f7x_reset>

	if(ee_size > 0)
	{
		for(int i = 0; i < ee_size; i+= 64)
		{
			for(int k = 0; k < 64; k++)
    1380:	0c 15       	cp	r16, r12
    1382:	1d 05       	cpc	r17, r13
    1384:	09 f0       	breq	.+2      	; 0x1388 <p18fxxk80_read+0x1ac>
    1386:	b0 cf       	rjmp	.-160    	; 0x12e8 <p18fxxk80_read+0x10c>
				p18fx5xx_writeComm(P18FX5XX_CORE_INSTR, 0x0000);
				main_buff[k + 3] = p18fx5xx_readComm(P18FX5XX_SHIFT_TABL, 0x00);
				p18fx5xx_readComm(P18FX5XX_SHIFT_TABL, 0x00);
				p16f7x_reset();
			}
			main_buff[0] = 0xFE;
    1388:	f4 01       	movw	r30, r8
    138a:	30 82       	st	Z, r3
			main_buff[1] = 0x40;
    138c:	41 82       	std	Z+1, r4	; 0x01
			main_buff[2] = 0xA9;
    138e:	52 82       	std	Z+2, r5	; 0x02
			send_frame(main_buff, 67);
    1390:	63 e4       	ldi	r22, 0x43	; 67
    1392:	c4 01       	movw	r24, r8
    1394:	0e 94 cd 12 	call	0x259a	; 0x259a <send_frame>

	_delay_ms(10);

	if(ee_size > 0)
	{
		for(int i = 0; i < ee_size; i+= 64)
    1398:	f0 e4       	ldi	r31, 0x40	; 64
    139a:	af 0e       	add	r10, r31
    139c:	b1 1c       	adc	r11, r1
    139e:	80 91 c6 02 	lds	r24, 0x02C6	; 0x8002c6 <ee_size>
    13a2:	90 91 c7 02 	lds	r25, 0x02C7	; 0x8002c7 <ee_size+0x1>
    13a6:	a8 16       	cp	r10, r24
    13a8:	b9 06       	cpc	r11, r25
    13aa:	00 f1       	brcs	.+64     	; 0x13ec <p18fxxk80_read+0x210>
    13ac:	33 c0       	rjmp	.+102    	; 0x1414 <p18fxxk80_read+0x238>

		p18fxxk80_password(0x4D43, 0x4850);

		p18fx5xx_setDP(0x00, 0x00, 0x00);

		for(int i = 0; i < f_size; i+= 128)
    13ae:	a1 2c       	mov	r10, r1
    13b0:	b1 2c       	mov	r11, r1
    13b2:	0f 2e       	mov	r0, r31
    13b4:	f3 e6       	ldi	r31, 0x63	; 99
    13b6:	cf 2e       	mov	r12, r31
    13b8:	f1 e0       	ldi	r31, 0x01	; 1
    13ba:	df 2e       	mov	r13, r31
    13bc:	f0 2d       	mov	r31, r0
    13be:	8d ef       	ldi	r24, 0xFD	; 253
    13c0:	9f ef       	ldi	r25, 0xFF	; 255
    13c2:	9c 01       	movw	r18, r24
    13c4:	20 52       	subi	r18, 0x20	; 32
    13c6:	31 40       	sbci	r19, 0x01	; 1
    13c8:	39 01       	movw	r6, r18
				p18fx5xx_writeComm(P18FX5XX_CORE_INSTR, 0x0000);
				main_buff[k + 3] = p18fx5xx_readComm(P18FX5XX_SHIFT_TABL, 0x00);
				p18fx5xx_readComm(P18FX5XX_SHIFT_TABL, 0x00);
				p16f7x_reset();
			}
			main_buff[0] = 0xFE;
    13ca:	0f 2e       	mov	r0, r31
    13cc:	f0 e2       	ldi	r31, 0x20	; 32
    13ce:	8f 2e       	mov	r8, r31
    13d0:	f1 e0       	ldi	r31, 0x01	; 1
    13d2:	9f 2e       	mov	r9, r31
    13d4:	f0 2d       	mov	r31, r0
    13d6:	0f 2e       	mov	r0, r31
    13d8:	fe ef       	ldi	r31, 0xFE	; 254
    13da:	3f 2e       	mov	r3, r31
    13dc:	f0 2d       	mov	r31, r0
			main_buff[1] = 0x40;
    13de:	68 94       	set
    13e0:	44 24       	eor	r4, r4
    13e2:	46 f8       	bld	r4, 6
			main_buff[2] = 0xA9;
    13e4:	0f 2e       	mov	r0, r31
    13e6:	f9 ea       	ldi	r31, 0xA9	; 169
    13e8:	5f 2e       	mov	r5, r31
    13ea:	f0 2d       	mov	r31, r0
    13ec:	03 e2       	ldi	r16, 0x23	; 35
    13ee:	11 e0       	ldi	r17, 0x01	; 1
    13f0:	73 01       	movw	r14, r6
    13f2:	ea 0c       	add	r14, r10
    13f4:	fb 1c       	adc	r15, r11
    13f6:	78 cf       	rjmp	.-272    	; 0x12e8 <p18fxxk80_read+0x10c>
			main_buff[0] = 0xFE;
			main_buff[1] = 0x80;
			main_buff[2] = 0xA1;
			send_frame(main_buff, 131);
		}
		p16f7x_reset();
    13f8:	0e 94 d1 03 	call	0x7a2	; 0x7a2 <p16f7x_reset>
    13fc:	8f e3       	ldi	r24, 0x3F	; 63
    13fe:	9c e9       	ldi	r25, 0x9C	; 156
    1400:	01 97       	sbiw	r24, 0x01	; 1
    1402:	f1 f7       	brne	.-4      	; 0x1400 <p18fxxk80_read+0x224>
    1404:	00 c0       	rjmp	.+0      	; 0x1406 <p18fxxk80_read+0x22a>
    1406:	00 00       	nop

	_delay_ms(10);

	if(ee_size > 0)
    1408:	80 91 c6 02 	lds	r24, 0x02C6	; 0x8002c6 <ee_size>
    140c:	90 91 c7 02 	lds	r25, 0x02C7	; 0x8002c7 <ee_size+0x1>
    1410:	89 2b       	or	r24, r25
    1412:	69 f6       	brne	.-102    	; 0x13ae <p18fxxk80_read+0x1d2>
			main_buff[1] = 0x40;
			main_buff[2] = 0xA9;
			send_frame(main_buff, 67);
		}
	}
}
    1414:	df 91       	pop	r29
    1416:	cf 91       	pop	r28
    1418:	1f 91       	pop	r17
    141a:	0f 91       	pop	r16
    141c:	ff 90       	pop	r15
    141e:	ef 90       	pop	r14
    1420:	df 90       	pop	r13
    1422:	cf 90       	pop	r12
    1424:	bf 90       	pop	r11
    1426:	af 90       	pop	r10
    1428:	9f 90       	pop	r9
    142a:	8f 90       	pop	r8
    142c:	7f 90       	pop	r7
    142e:	6f 90       	pop	r6
    1430:	5f 90       	pop	r5
    1432:	4f 90       	pop	r4
    1434:	3f 90       	pop	r3
    1436:	08 95       	ret

00001438 <p16f7x_erase>:

void p16f7x_erase(void)
{
	p16f7x_progMode();
    1438:	0e 94 32 01 	call	0x264	; 0x264 <p16f7x_progMode>
    143c:	2f ef       	ldi	r18, 0xFF	; 255
    143e:	80 e7       	ldi	r24, 0x70	; 112
    1440:	92 e0       	ldi	r25, 0x02	; 2
    1442:	21 50       	subi	r18, 0x01	; 1
    1444:	80 40       	sbci	r24, 0x00	; 0
    1446:	90 40       	sbci	r25, 0x00	; 0
    1448:	e1 f7       	brne	.-8      	; 0x1442 <p16f7x_erase+0xa>
    144a:	00 c0       	rjmp	.+0      	; 0x144c <p16f7x_erase+0x14>
    144c:	00 00       	nop

	_delay_ms(50);
	p16f7x_writeComm(P16F7X_ERASE, 0x0000, 1);
    144e:	41 e0       	ldi	r20, 0x01	; 1
    1450:	60 e0       	ldi	r22, 0x00	; 0
    1452:	70 e0       	ldi	r23, 0x00	; 0
    1454:	89 e0       	ldi	r24, 0x09	; 9
    1456:	0e 94 7c 01 	call	0x2f8	; 0x2f8 <p16f7x_writeComm>
    145a:	2f ef       	ldi	r18, 0xFF	; 255
    145c:	83 ec       	ldi	r24, 0xC3	; 195
    145e:	99 e0       	ldi	r25, 0x09	; 9
    1460:	21 50       	subi	r18, 0x01	; 1
    1462:	80 40       	sbci	r24, 0x00	; 0
    1464:	90 40       	sbci	r25, 0x00	; 0
    1466:	e1 f7       	brne	.-8      	; 0x1460 <p16f7x_erase+0x28>
    1468:	00 c0       	rjmp	.+0      	; 0x146a <p16f7x_erase+0x32>
    146a:	00 00       	nop
	_delay_ms(200);
	p16f7x_reset();
    146c:	0e 94 d1 03 	call	0x7a2	; 0x7a2 <p16f7x_reset>
    1470:	2f ef       	ldi	r18, 0xFF	; 255
    1472:	83 ec       	ldi	r24, 0xC3	; 195
    1474:	99 e0       	ldi	r25, 0x09	; 9
    1476:	21 50       	subi	r18, 0x01	; 1
    1478:	80 40       	sbci	r24, 0x00	; 0
    147a:	90 40       	sbci	r25, 0x00	; 0
    147c:	e1 f7       	brne	.-8      	; 0x1476 <p16f7x_erase+0x3e>
    147e:	00 c0       	rjmp	.+0      	; 0x1480 <p16f7x_erase+0x48>
    1480:	00 00       	nop
    1482:	08 95       	ret

00001484 <p16f628a_erase>:
	_delay_ms(200);
}

void p16f628a_erase(void)
{
	p16f628A_progMode();
    1484:	0e 94 4c 01 	call	0x298	; 0x298 <p16f628A_progMode>
	p16f7x_writeComm(P16F7X_LOAD_CONF, 0x0000, 0);
    1488:	40 e0       	ldi	r20, 0x00	; 0
    148a:	60 e0       	ldi	r22, 0x00	; 0
    148c:	70 e0       	ldi	r23, 0x00	; 0
    148e:	80 e0       	ldi	r24, 0x00	; 0
    1490:	0e 94 7c 01 	call	0x2f8	; 0x2f8 <p16f7x_writeComm>
    1494:	2f ef       	ldi	r18, 0xFF	; 255
    1496:	80 e7       	ldi	r24, 0x70	; 112
    1498:	92 e0       	ldi	r25, 0x02	; 2
    149a:	21 50       	subi	r18, 0x01	; 1
    149c:	80 40       	sbci	r24, 0x00	; 0
    149e:	90 40       	sbci	r25, 0x00	; 0
    14a0:	e1 f7       	brne	.-8      	; 0x149a <p16f628a_erase+0x16>
    14a2:	00 c0       	rjmp	.+0      	; 0x14a4 <p16f628a_erase+0x20>
    14a4:	00 00       	nop
	_delay_ms(50);
	p16f7x_writeComm(P16F628A_LOAD_CODE, 0x3FFF, 0);
    14a6:	40 e0       	ldi	r20, 0x00	; 0
    14a8:	6f ef       	ldi	r22, 0xFF	; 255
    14aa:	7f e3       	ldi	r23, 0x3F	; 63
    14ac:	82 e0       	ldi	r24, 0x02	; 2
    14ae:	0e 94 7c 01 	call	0x2f8	; 0x2f8 <p16f7x_writeComm>
    14b2:	2f ef       	ldi	r18, 0xFF	; 255
    14b4:	80 e7       	ldi	r24, 0x70	; 112
    14b6:	92 e0       	ldi	r25, 0x02	; 2
    14b8:	21 50       	subi	r18, 0x01	; 1
    14ba:	80 40       	sbci	r24, 0x00	; 0
    14bc:	90 40       	sbci	r25, 0x00	; 0
    14be:	e1 f7       	brne	.-8      	; 0x14b8 <p16f628a_erase+0x34>
    14c0:	00 c0       	rjmp	.+0      	; 0x14c2 <p16f628a_erase+0x3e>
    14c2:	00 00       	nop
	_delay_ms(50);
	p16f7x_writeComm(P16F628A_ERASE_CODE, 0x0000, 1);
    14c4:	41 e0       	ldi	r20, 0x01	; 1
    14c6:	60 e0       	ldi	r22, 0x00	; 0
    14c8:	70 e0       	ldi	r23, 0x00	; 0
    14ca:	89 e0       	ldi	r24, 0x09	; 9
    14cc:	0e 94 7c 01 	call	0x2f8	; 0x2f8 <p16f7x_writeComm>
    14d0:	2f ef       	ldi	r18, 0xFF	; 255
    14d2:	83 ec       	ldi	r24, 0xC3	; 195
    14d4:	99 e0       	ldi	r25, 0x09	; 9
    14d6:	21 50       	subi	r18, 0x01	; 1
    14d8:	80 40       	sbci	r24, 0x00	; 0
    14da:	90 40       	sbci	r25, 0x00	; 0
    14dc:	e1 f7       	brne	.-8      	; 0x14d6 <p16f628a_erase+0x52>
    14de:	00 c0       	rjmp	.+0      	; 0x14e0 <p16f628a_erase+0x5c>
    14e0:	00 00       	nop
	_delay_ms(200);
	p16f7x_reset();
    14e2:	0e 94 d1 03 	call	0x7a2	; 0x7a2 <p16f7x_reset>
    14e6:	2f ef       	ldi	r18, 0xFF	; 255
    14e8:	83 ec       	ldi	r24, 0xC3	; 195
    14ea:	99 e0       	ldi	r25, 0x09	; 9
    14ec:	21 50       	subi	r18, 0x01	; 1
    14ee:	80 40       	sbci	r24, 0x00	; 0
    14f0:	90 40       	sbci	r25, 0x00	; 0
    14f2:	e1 f7       	brne	.-8      	; 0x14ec <p16f628a_erase+0x68>
    14f4:	00 c0       	rjmp	.+0      	; 0x14f6 <p16f628a_erase+0x72>
    14f6:	00 00       	nop
	_delay_ms(200);

	p16f628A_progMode();
    14f8:	0e 94 4c 01 	call	0x298	; 0x298 <p16f628A_progMode>
    14fc:	2f ef       	ldi	r18, 0xFF	; 255
    14fe:	80 e7       	ldi	r24, 0x70	; 112
    1500:	92 e0       	ldi	r25, 0x02	; 2
    1502:	21 50       	subi	r18, 0x01	; 1
    1504:	80 40       	sbci	r24, 0x00	; 0
    1506:	90 40       	sbci	r25, 0x00	; 0
    1508:	e1 f7       	brne	.-8      	; 0x1502 <p16f628a_erase+0x7e>
    150a:	00 c0       	rjmp	.+0      	; 0x150c <p16f628a_erase+0x88>
    150c:	00 00       	nop
	_delay_ms(50);
	p16f7x_writeComm(P16F628A_ERASE_DATA, 0x0000, 1);
    150e:	41 e0       	ldi	r20, 0x01	; 1
    1510:	60 e0       	ldi	r22, 0x00	; 0
    1512:	70 e0       	ldi	r23, 0x00	; 0
    1514:	8b e0       	ldi	r24, 0x0B	; 11
    1516:	0e 94 7c 01 	call	0x2f8	; 0x2f8 <p16f7x_writeComm>
    151a:	2f ef       	ldi	r18, 0xFF	; 255
    151c:	83 ec       	ldi	r24, 0xC3	; 195
    151e:	99 e0       	ldi	r25, 0x09	; 9
    1520:	21 50       	subi	r18, 0x01	; 1
    1522:	80 40       	sbci	r24, 0x00	; 0
    1524:	90 40       	sbci	r25, 0x00	; 0
    1526:	e1 f7       	brne	.-8      	; 0x1520 <p16f628a_erase+0x9c>
    1528:	00 c0       	rjmp	.+0      	; 0x152a <p16f628a_erase+0xa6>
    152a:	00 00       	nop
	_delay_ms(200);
	p16f7x_reset();
    152c:	0e 94 d1 03 	call	0x7a2	; 0x7a2 <p16f7x_reset>
    1530:	08 95       	ret

00001532 <p16f84a_erase>:
	p16f676_restoreOsc();
}


void p16f84a_erase(void)
{
    1532:	cf 93       	push	r28
    1534:	df 93       	push	r29
	p16f7x_progMode();
    1536:	0e 94 32 01 	call	0x264	; 0x264 <p16f7x_progMode>
	p16f7x_writeComm(P16F7X_LOAD_CONF, 0x3FF0, 0);
    153a:	40 e0       	ldi	r20, 0x00	; 0
    153c:	60 ef       	ldi	r22, 0xF0	; 240
    153e:	7f e3       	ldi	r23, 0x3F	; 63
    1540:	80 e0       	ldi	r24, 0x00	; 0
    1542:	0e 94 7c 01 	call	0x2f8	; 0x2f8 <p16f7x_writeComm>
    1546:	c7 e0       	ldi	r28, 0x07	; 7
    1548:	d0 e0       	ldi	r29, 0x00	; 0
	for(int i = 0; i < 7; i++) p16f7x_writeComm(P16F7X_INC_ADD, 0x0000, 1);
    154a:	41 e0       	ldi	r20, 0x01	; 1
    154c:	60 e0       	ldi	r22, 0x00	; 0
    154e:	70 e0       	ldi	r23, 0x00	; 0
    1550:	86 e0       	ldi	r24, 0x06	; 6
    1552:	0e 94 7c 01 	call	0x2f8	; 0x2f8 <p16f7x_writeComm>
    1556:	21 97       	sbiw	r28, 0x01	; 1
    1558:	c1 f7       	brne	.-16     	; 0x154a <p16f84a_erase+0x18>
	p16f7x_writeComm(0x01, 0x0000, 1);
    155a:	41 e0       	ldi	r20, 0x01	; 1
    155c:	60 e0       	ldi	r22, 0x00	; 0
    155e:	70 e0       	ldi	r23, 0x00	; 0
    1560:	81 e0       	ldi	r24, 0x01	; 1
    1562:	0e 94 7c 01 	call	0x2f8	; 0x2f8 <p16f7x_writeComm>
	p16f7x_writeComm(0x07, 0x0000, 1);
    1566:	41 e0       	ldi	r20, 0x01	; 1
    1568:	60 e0       	ldi	r22, 0x00	; 0
    156a:	70 e0       	ldi	r23, 0x00	; 0
    156c:	87 e0       	ldi	r24, 0x07	; 7
    156e:	0e 94 7c 01 	call	0x2f8	; 0x2f8 <p16f7x_writeComm>
	p16f7x_writeComm(0x08, 0x0000, 1);
    1572:	41 e0       	ldi	r20, 0x01	; 1
    1574:	60 e0       	ldi	r22, 0x00	; 0
    1576:	70 e0       	ldi	r23, 0x00	; 0
    1578:	88 e0       	ldi	r24, 0x08	; 8
    157a:	0e 94 7c 01 	call	0x2f8	; 0x2f8 <p16f7x_writeComm>
    157e:	8f e7       	ldi	r24, 0x7F	; 127
    1580:	9b eb       	ldi	r25, 0xBB	; 187
    1582:	01 97       	sbiw	r24, 0x01	; 1
    1584:	f1 f7       	brne	.-4      	; 0x1582 <p16f84a_erase+0x50>
    1586:	00 c0       	rjmp	.+0      	; 0x1588 <p16f84a_erase+0x56>
    1588:	00 00       	nop
	_delay_ms(12);
	p16f7x_writeComm(0x01, 0x0000, 1);
    158a:	41 e0       	ldi	r20, 0x01	; 1
    158c:	60 e0       	ldi	r22, 0x00	; 0
    158e:	70 e0       	ldi	r23, 0x00	; 0
    1590:	81 e0       	ldi	r24, 0x01	; 1
    1592:	0e 94 7c 01 	call	0x2f8	; 0x2f8 <p16f7x_writeComm>
	p16f7x_writeComm(0x07, 0x0000, 1);
    1596:	41 e0       	ldi	r20, 0x01	; 1
    1598:	60 e0       	ldi	r22, 0x00	; 0
    159a:	70 e0       	ldi	r23, 0x00	; 0
    159c:	87 e0       	ldi	r24, 0x07	; 7
    159e:	0e 94 7c 01 	call	0x2f8	; 0x2f8 <p16f7x_writeComm>
	p16f7x_reset();
    15a2:	0e 94 d1 03 	call	0x7a2	; 0x7a2 <p16f7x_reset>
    15a6:	9f ef       	ldi	r25, 0xFF	; 255
    15a8:	20 e7       	ldi	r18, 0x70	; 112
    15aa:	82 e0       	ldi	r24, 0x02	; 2
    15ac:	91 50       	subi	r25, 0x01	; 1
    15ae:	20 40       	sbci	r18, 0x00	; 0
    15b0:	80 40       	sbci	r24, 0x00	; 0
    15b2:	e1 f7       	brne	.-8      	; 0x15ac <p16f84a_erase+0x7a>
    15b4:	00 c0       	rjmp	.+0      	; 0x15b6 <p16f84a_erase+0x84>
    15b6:	00 00       	nop
	_delay_ms(50);

	p16f7x_progMode();
    15b8:	0e 94 32 01 	call	0x264	; 0x264 <p16f7x_progMode>
	p16f7x_writeComm(P16F628A_LOAD_CODE, 0x3FFF, 0);
    15bc:	40 e0       	ldi	r20, 0x00	; 0
    15be:	6f ef       	ldi	r22, 0xFF	; 255
    15c0:	7f e3       	ldi	r23, 0x3F	; 63
    15c2:	82 e0       	ldi	r24, 0x02	; 2
    15c4:	0e 94 7c 01 	call	0x2f8	; 0x2f8 <p16f7x_writeComm>
	p16f7x_writeComm(P16F628A_ERASE_CODE, 0x0000, 1);
    15c8:	41 e0       	ldi	r20, 0x01	; 1
    15ca:	60 e0       	ldi	r22, 0x00	; 0
    15cc:	70 e0       	ldi	r23, 0x00	; 0
    15ce:	89 e0       	ldi	r24, 0x09	; 9
    15d0:	0e 94 7c 01 	call	0x2f8	; 0x2f8 <p16f7x_writeComm>
	p16f7x_writeComm(0x18, 0x0000, 1);
    15d4:	41 e0       	ldi	r20, 0x01	; 1
    15d6:	60 e0       	ldi	r22, 0x00	; 0
    15d8:	70 e0       	ldi	r23, 0x00	; 0
    15da:	88 e1       	ldi	r24, 0x18	; 24
    15dc:	0e 94 7c 01 	call	0x2f8	; 0x2f8 <p16f7x_writeComm>
    15e0:	9f ef       	ldi	r25, 0xFF	; 255
    15e2:	20 e7       	ldi	r18, 0x70	; 112
    15e4:	82 e0       	ldi	r24, 0x02	; 2
    15e6:	91 50       	subi	r25, 0x01	; 1
    15e8:	20 40       	sbci	r18, 0x00	; 0
    15ea:	80 40       	sbci	r24, 0x00	; 0
    15ec:	e1 f7       	brne	.-8      	; 0x15e6 <p16f84a_erase+0xb4>
    15ee:	00 c0       	rjmp	.+0      	; 0x15f0 <p16f84a_erase+0xbe>
    15f0:	00 00       	nop
	_delay_ms(50);
	p16f7x_reset();
    15f2:	0e 94 d1 03 	call	0x7a2	; 0x7a2 <p16f7x_reset>

	p16f7x_progMode();
    15f6:	0e 94 32 01 	call	0x264	; 0x264 <p16f7x_progMode>
	p16f7x_writeComm(P16F628A_LOAD_DATA, 0x3FFF, 0);
    15fa:	40 e0       	ldi	r20, 0x00	; 0
    15fc:	6f ef       	ldi	r22, 0xFF	; 255
    15fe:	7f e3       	ldi	r23, 0x3F	; 63
    1600:	83 e0       	ldi	r24, 0x03	; 3
    1602:	0e 94 7c 01 	call	0x2f8	; 0x2f8 <p16f7x_writeComm>
	p16f7x_writeComm(P16F628A_ERASE_DATA, 0x0000, 1);
    1606:	41 e0       	ldi	r20, 0x01	; 1
    1608:	60 e0       	ldi	r22, 0x00	; 0
    160a:	70 e0       	ldi	r23, 0x00	; 0
    160c:	8b e0       	ldi	r24, 0x0B	; 11
    160e:	0e 94 7c 01 	call	0x2f8	; 0x2f8 <p16f7x_writeComm>
	p16f7x_writeComm(0x18, 0x0000, 1);
    1612:	41 e0       	ldi	r20, 0x01	; 1
    1614:	60 e0       	ldi	r22, 0x00	; 0
    1616:	70 e0       	ldi	r23, 0x00	; 0
    1618:	88 e1       	ldi	r24, 0x18	; 24
    161a:	0e 94 7c 01 	call	0x2f8	; 0x2f8 <p16f7x_writeComm>
    161e:	9f ef       	ldi	r25, 0xFF	; 255
    1620:	20 e7       	ldi	r18, 0x70	; 112
    1622:	82 e0       	ldi	r24, 0x02	; 2
    1624:	91 50       	subi	r25, 0x01	; 1
    1626:	20 40       	sbci	r18, 0x00	; 0
    1628:	80 40       	sbci	r24, 0x00	; 0
    162a:	e1 f7       	brne	.-8      	; 0x1624 <p16f84a_erase+0xf2>
    162c:	00 c0       	rjmp	.+0      	; 0x162e <p16f84a_erase+0xfc>
    162e:	00 00       	nop
	_delay_ms(50);
	p16f7x_reset();
    1630:	0e 94 d1 03 	call	0x7a2	; 0x7a2 <p16f7x_reset>
}
    1634:	df 91       	pop	r29
    1636:	cf 91       	pop	r28
    1638:	08 95       	ret

0000163a <p18fx5xx_erase>:

void p18fx5xx_erase(void)
{
	p16f7x_progMode();
    163a:	0e 94 32 01 	call	0x264	; 0x264 <p16f7x_progMode>
	p18fx5xx_setDP(0x3C, 0x00, 0x05);
    163e:	45 e0       	ldi	r20, 0x05	; 5
    1640:	60 e0       	ldi	r22, 0x00	; 0
    1642:	8c e3       	ldi	r24, 0x3C	; 60
    1644:	0e 94 a9 03 	call	0x752	; 0x752 <p18fx5xx_setDP>
	p18fx5xx_writeComm(P18FX5XX_TABLE_WR, 0x3F3F);
    1648:	6f e3       	ldi	r22, 0x3F	; 63
    164a:	7f e3       	ldi	r23, 0x3F	; 63
    164c:	8c e0       	ldi	r24, 0x0C	; 12
    164e:	0e 94 57 02 	call	0x4ae	; 0x4ae <p18fx5xx_writeComm>
	p18fx5xx_setDP(0x3C, 0x00, 0x04);
    1652:	44 e0       	ldi	r20, 0x04	; 4
    1654:	60 e0       	ldi	r22, 0x00	; 0
    1656:	8c e3       	ldi	r24, 0x3C	; 60
    1658:	0e 94 a9 03 	call	0x752	; 0x752 <p18fx5xx_setDP>
	p18fx5xx_writeComm(P18FX5XX_TABLE_WR, 0x8F8F);
    165c:	6f e8       	ldi	r22, 0x8F	; 143
    165e:	7f e8       	ldi	r23, 0x8F	; 143
    1660:	8c e0       	ldi	r24, 0x0C	; 12
    1662:	0e 94 57 02 	call	0x4ae	; 0x4ae <p18fx5xx_writeComm>
	p18fx5xx_writeNop();
    1666:	0e 94 b4 02 	call	0x568	; 0x568 <p18fx5xx_writeNop>
	p18fx5xx_writeComm(P18FX5XX_CORE_INSTR, 0x0000);
    166a:	60 e0       	ldi	r22, 0x00	; 0
    166c:	70 e0       	ldi	r23, 0x00	; 0
    166e:	80 e0       	ldi	r24, 0x00	; 0
    1670:	0e 94 57 02 	call	0x4ae	; 0x4ae <p18fx5xx_writeComm>
	p18fx5xx_writeComm(P18FX5XX_CORE_INSTR, 0x0000);
    1674:	60 e0       	ldi	r22, 0x00	; 0
    1676:	70 e0       	ldi	r23, 0x00	; 0
    1678:	80 e0       	ldi	r24, 0x00	; 0
    167a:	0e 94 57 02 	call	0x4ae	; 0x4ae <p18fx5xx_writeComm>
    167e:	2f ef       	ldi	r18, 0xFF	; 255
    1680:	80 e7       	ldi	r24, 0x70	; 112
    1682:	92 e0       	ldi	r25, 0x02	; 2
    1684:	21 50       	subi	r18, 0x01	; 1
    1686:	80 40       	sbci	r24, 0x00	; 0
    1688:	90 40       	sbci	r25, 0x00	; 0
    168a:	e1 f7       	brne	.-8      	; 0x1684 <p18fx5xx_erase+0x4a>
    168c:	00 c0       	rjmp	.+0      	; 0x168e <p18fx5xx_erase+0x54>
    168e:	00 00       	nop
	_delay_ms(50);

	p16f7x_reset();
    1690:	0e 94 d1 03 	call	0x7a2	; 0x7a2 <p16f7x_reset>
    1694:	08 95       	ret

00001696 <p18fxxk80_erase>:
}

void p18fxxk80_erase(void)
{
    1696:	cf 92       	push	r12
    1698:	df 92       	push	r13
    169a:	ef 92       	push	r14
    169c:	ff 92       	push	r15
    169e:	0f 93       	push	r16
    16a0:	1f 93       	push	r17
    16a2:	cf 93       	push	r28
    16a4:	df 93       	push	r29
    16a6:	cd b7       	in	r28, 0x3d	; 61
    16a8:	de b7       	in	r29, 0x3e	; 62
    16aa:	6c 97       	sbiw	r28, 0x1c	; 28
    16ac:	0f b6       	in	r0, 0x3f	; 63
    16ae:	f8 94       	cli
    16b0:	de bf       	out	0x3e, r29	; 62
    16b2:	0f be       	out	0x3f, r0	; 63
    16b4:	cd bf       	out	0x3d, r28	; 61
	uint16_t er_04[] = {0x0404, 0x0404, 0x0404, 0x0404, 0x0505, 0x0202, 0x0404};
    16b6:	8e e0       	ldi	r24, 0x0E	; 14
    16b8:	e0 e0       	ldi	r30, 0x00	; 0
    16ba:	f1 e0       	ldi	r31, 0x01	; 1
    16bc:	de 01       	movw	r26, r28
    16be:	11 96       	adiw	r26, 0x01	; 1
    16c0:	01 90       	ld	r0, Z+
    16c2:	0d 92       	st	X+, r0
    16c4:	8a 95       	dec	r24
    16c6:	e1 f7       	brne	.-8      	; 0x16c0 <p18fxxk80_erase+0x2a>
	uint16_t er_05[] = {0x0101, 0x0202, 0x0404, 0x0808, 0x0000, 0x0000, 0x0000};
    16c8:	8e e0       	ldi	r24, 0x0E	; 14
    16ca:	ee e0       	ldi	r30, 0x0E	; 14
    16cc:	f1 e0       	ldi	r31, 0x01	; 1
    16ce:	de 01       	movw	r26, r28
    16d0:	1f 96       	adiw	r26, 0x0f	; 15
    16d2:	01 90       	ld	r0, Z+
    16d4:	0d 92       	st	X+, r0
    16d6:	8a 95       	dec	r24
    16d8:	e1 f7       	brne	.-8      	; 0x16d2 <p18fxxk80_erase+0x3c>
    16da:	8e 01       	movw	r16, r28
    16dc:	0f 5f       	subi	r16, 0xFF	; 255
    16de:	1f 4f       	sbci	r17, 0xFF	; 255
    16e0:	7e 01       	movw	r14, r28
    16e2:	2f e0       	ldi	r18, 0x0F	; 15
    16e4:	e2 0e       	add	r14, r18
    16e6:	f1 1c       	adc	r15, r1
    16e8:	67 01       	movw	r12, r14


	for(int g = 0; g < 7; g++)
	{
		p16f7x_progMode();
    16ea:	0e 94 32 01 	call	0x264	; 0x264 <p16f7x_progMode>
		p18fxxk80_password(0x4D43, 0x4850);
    16ee:	60 e5       	ldi	r22, 0x50	; 80
    16f0:	78 e4       	ldi	r23, 0x48	; 72
    16f2:	83 e4       	ldi	r24, 0x43	; 67
    16f4:	9d e4       	ldi	r25, 0x4D	; 77
    16f6:	0e 94 dd 02 	call	0x5ba	; 0x5ba <p18fxxk80_password>
		p18fx5xx_setDP(0x3C, 0x00, 0x04);
    16fa:	44 e0       	ldi	r20, 0x04	; 4
    16fc:	60 e0       	ldi	r22, 0x00	; 0
    16fe:	8c e3       	ldi	r24, 0x3C	; 60
    1700:	0e 94 a9 03 	call	0x752	; 0x752 <p18fx5xx_setDP>
		p18fx5xx_writeComm(P18FX5XX_TABLE_WR, er_04[g]);
    1704:	f8 01       	movw	r30, r16
    1706:	61 91       	ld	r22, Z+
    1708:	71 91       	ld	r23, Z+
    170a:	8f 01       	movw	r16, r30
    170c:	8c e0       	ldi	r24, 0x0C	; 12
    170e:	0e 94 57 02 	call	0x4ae	; 0x4ae <p18fx5xx_writeComm>
		p18fx5xx_setDP(0x3C, 0x00, 0x05);
    1712:	45 e0       	ldi	r20, 0x05	; 5
    1714:	60 e0       	ldi	r22, 0x00	; 0
    1716:	8c e3       	ldi	r24, 0x3C	; 60
    1718:	0e 94 a9 03 	call	0x752	; 0x752 <p18fx5xx_setDP>
		p18fx5xx_writeComm(P18FX5XX_TABLE_WR, er_05[g]);
    171c:	f7 01       	movw	r30, r14
    171e:	61 91       	ld	r22, Z+
    1720:	71 91       	ld	r23, Z+
    1722:	7f 01       	movw	r14, r30
    1724:	8c e0       	ldi	r24, 0x0C	; 12
    1726:	0e 94 57 02 	call	0x4ae	; 0x4ae <p18fx5xx_writeComm>
		p18fx5xx_setDP(0x3C, 0x00, 0x06);
    172a:	46 e0       	ldi	r20, 0x06	; 6
    172c:	60 e0       	ldi	r22, 0x00	; 0
    172e:	8c e3       	ldi	r24, 0x3C	; 60
    1730:	0e 94 a9 03 	call	0x752	; 0x752 <p18fx5xx_setDP>
		p18fx5xx_writeComm(P18FX5XX_TABLE_WR, 0x8080);
    1734:	60 e8       	ldi	r22, 0x80	; 128
    1736:	70 e8       	ldi	r23, 0x80	; 128
    1738:	8c e0       	ldi	r24, 0x0C	; 12
    173a:	0e 94 57 02 	call	0x4ae	; 0x4ae <p18fx5xx_writeComm>
		p18fx5xx_writeNop();
    173e:	0e 94 b4 02 	call	0x568	; 0x568 <p18fx5xx_writeNop>
		p18fx5xx_writeComm(P18FX5XX_CORE_INSTR, 0x0000);
    1742:	60 e0       	ldi	r22, 0x00	; 0
    1744:	70 e0       	ldi	r23, 0x00	; 0
    1746:	80 e0       	ldi	r24, 0x00	; 0
    1748:	0e 94 57 02 	call	0x4ae	; 0x4ae <p18fx5xx_writeComm>
		p18fx5xx_writeComm(P18FX5XX_CORE_INSTR, 0x0000);
    174c:	60 e0       	ldi	r22, 0x00	; 0
    174e:	70 e0       	ldi	r23, 0x00	; 0
    1750:	80 e0       	ldi	r24, 0x00	; 0
    1752:	0e 94 57 02 	call	0x4ae	; 0x4ae <p18fx5xx_writeComm>
    1756:	ff ef       	ldi	r31, 0xFF	; 255
    1758:	20 e7       	ldi	r18, 0x70	; 112
    175a:	82 e0       	ldi	r24, 0x02	; 2
    175c:	f1 50       	subi	r31, 0x01	; 1
    175e:	20 40       	sbci	r18, 0x00	; 0
    1760:	80 40       	sbci	r24, 0x00	; 0
    1762:	e1 f7       	brne	.-8      	; 0x175c <p18fxxk80_erase+0xc6>
    1764:	00 c0       	rjmp	.+0      	; 0x1766 <p18fxxk80_erase+0xd0>
    1766:	00 00       	nop
		_delay_ms(50);
		p16f7x_reset();
    1768:	0e 94 d1 03 	call	0x7a2	; 0x7a2 <p16f7x_reset>
{
	uint16_t er_04[] = {0x0404, 0x0404, 0x0404, 0x0404, 0x0505, 0x0202, 0x0404};
	uint16_t er_05[] = {0x0101, 0x0202, 0x0404, 0x0808, 0x0000, 0x0000, 0x0000};


	for(int g = 0; g < 7; g++)
    176c:	0c 15       	cp	r16, r12
    176e:	1d 05       	cpc	r17, r13
    1770:	09 f0       	breq	.+2      	; 0x1774 <p18fxxk80_erase+0xde>
    1772:	bb cf       	rjmp	.-138    	; 0x16ea <p18fxxk80_erase+0x54>
		p18fx5xx_writeComm(P18FX5XX_CORE_INSTR, 0x0000);
		p18fx5xx_writeComm(P18FX5XX_CORE_INSTR, 0x0000);
		_delay_ms(50);
		p16f7x_reset();
	}
}
    1774:	6c 96       	adiw	r28, 0x1c	; 28
    1776:	0f b6       	in	r0, 0x3f	; 63
    1778:	f8 94       	cli
    177a:	de bf       	out	0x3e, r29	; 62
    177c:	0f be       	out	0x3f, r0	; 63
    177e:	cd bf       	out	0x3d, r28	; 61
    1780:	df 91       	pop	r29
    1782:	cf 91       	pop	r28
    1784:	1f 91       	pop	r17
    1786:	0f 91       	pop	r16
    1788:	ff 90       	pop	r15
    178a:	ef 90       	pop	r14
    178c:	df 90       	pop	r13
    178e:	cf 90       	pop	r12
    1790:	08 95       	ret

00001792 <p16f7x_progCode>:

void p16f7x_progCode(void)
{
    1792:	0f 93       	push	r16
    1794:	1f 93       	push	r17
    1796:	cf 93       	push	r28
    1798:	df 93       	push	r29
    179a:	c5 e2       	ldi	r28, 0x25	; 37
    179c:	d2 e0       	ldi	r29, 0x02	; 2
    179e:	05 ea       	ldi	r16, 0xA5	; 165
    17a0:	12 e0       	ldi	r17, 0x02	; 2
	for(int i = 0; i < 128; i+= 2)
	{
		if((exchange[i + 4] | (exchange[i + 5] << 8)) == 0x3FFF)
    17a2:	68 81       	ld	r22, Y
    17a4:	70 e0       	ldi	r23, 0x00	; 0
    17a6:	76 2f       	mov	r23, r22
    17a8:	66 27       	eor	r22, r22
    17aa:	fe 01       	movw	r30, r28
    17ac:	31 97       	sbiw	r30, 0x01	; 1
    17ae:	80 81       	ld	r24, Z
    17b0:	68 2b       	or	r22, r24
    17b2:	6f 3f       	cpi	r22, 0xFF	; 255
    17b4:	8f e3       	ldi	r24, 0x3F	; 63
    17b6:	78 07       	cpc	r23, r24
    17b8:	39 f4       	brne	.+14     	; 0x17c8 <p16f7x_progCode+0x36>
		{
			p16f7x_writeComm(P16F7X_INC_ADD, 0x0000, 1);
    17ba:	41 e0       	ldi	r20, 0x01	; 1
    17bc:	60 e0       	ldi	r22, 0x00	; 0
    17be:	70 e0       	ldi	r23, 0x00	; 0
    17c0:	86 e0       	ldi	r24, 0x06	; 6
    17c2:	0e 94 7c 01 	call	0x2f8	; 0x2f8 <p16f7x_writeComm>
			continue;
    17c6:	1c c0       	rjmp	.+56     	; 0x1800 <p16f7x_progCode+0x6e>
		}
		else
		{
			p16f7x_writeComm(P16F7X_LOAD_DATA, (exchange[i + 4] | (exchange[i + 5] <<8)), 0);
    17c8:	40 e0       	ldi	r20, 0x00	; 0
    17ca:	82 e0       	ldi	r24, 0x02	; 2
    17cc:	0e 94 7c 01 	call	0x2f8	; 0x2f8 <p16f7x_writeComm>
			p16f7x_writeComm(P16F7X_BEGIN_PROG, 0x0000, 1);
    17d0:	41 e0       	ldi	r20, 0x01	; 1
    17d2:	60 e0       	ldi	r22, 0x00	; 0
    17d4:	70 e0       	ldi	r23, 0x00	; 0
    17d6:	88 e0       	ldi	r24, 0x08	; 8
    17d8:	0e 94 7c 01 	call	0x2f8	; 0x2f8 <p16f7x_writeComm>
			delay_us(wr_delay);
    17dc:	80 91 c4 02 	lds	r24, 0x02C4	; 0x8002c4 <wr_delay>
    17e0:	90 91 c5 02 	lds	r25, 0x02C5	; 0x8002c5 <wr_delay+0x1>
    17e4:	0e 94 24 01 	call	0x248	; 0x248 <delay_us>
			p16f7x_writeComm(P16F7X_END_PROG, 0x0000, 1);
    17e8:	41 e0       	ldi	r20, 0x01	; 1
    17ea:	60 e0       	ldi	r22, 0x00	; 0
    17ec:	70 e0       	ldi	r23, 0x00	; 0
    17ee:	8e e0       	ldi	r24, 0x0E	; 14
    17f0:	0e 94 7c 01 	call	0x2f8	; 0x2f8 <p16f7x_writeComm>
			p16f7x_writeComm(P16F7X_INC_ADD, 0x0000, 1);
    17f4:	41 e0       	ldi	r20, 0x01	; 1
    17f6:	60 e0       	ldi	r22, 0x00	; 0
    17f8:	70 e0       	ldi	r23, 0x00	; 0
    17fa:	86 e0       	ldi	r24, 0x06	; 6
    17fc:	0e 94 7c 01 	call	0x2f8	; 0x2f8 <p16f7x_writeComm>
    1800:	22 96       	adiw	r28, 0x02	; 2
	}
}

void p16f7x_progCode(void)
{
	for(int i = 0; i < 128; i+= 2)
    1802:	c0 17       	cp	r28, r16
    1804:	d1 07       	cpc	r29, r17
    1806:	69 f6       	brne	.-102    	; 0x17a2 <p16f7x_progCode+0x10>
			delay_us(wr_delay);
			p16f7x_writeComm(P16F7X_END_PROG, 0x0000, 1);
			p16f7x_writeComm(P16F7X_INC_ADD, 0x0000, 1);
		}
	}
}
    1808:	df 91       	pop	r29
    180a:	cf 91       	pop	r28
    180c:	1f 91       	pop	r17
    180e:	0f 91       	pop	r16
    1810:	08 95       	ret

00001812 <p16f628a_progCode>:

void p16f628a_progCode(void)
{
    1812:	0f 93       	push	r16
    1814:	1f 93       	push	r17
    1816:	cf 93       	push	r28
    1818:	df 93       	push	r29
    181a:	c5 e2       	ldi	r28, 0x25	; 37
    181c:	d2 e0       	ldi	r29, 0x02	; 2
    181e:	05 ea       	ldi	r16, 0xA5	; 165
    1820:	12 e0       	ldi	r17, 0x02	; 2
	for(int i = 0; i < 128; i+= 2)
	{
		if((exchange[i + 4] | (exchange[i + 5] << 8)) == 0x3FFF)
    1822:	68 81       	ld	r22, Y
    1824:	70 e0       	ldi	r23, 0x00	; 0
    1826:	76 2f       	mov	r23, r22
    1828:	66 27       	eor	r22, r22
    182a:	fe 01       	movw	r30, r28
    182c:	31 97       	sbiw	r30, 0x01	; 1
    182e:	80 81       	ld	r24, Z
    1830:	68 2b       	or	r22, r24
    1832:	6f 3f       	cpi	r22, 0xFF	; 255
    1834:	8f e3       	ldi	r24, 0x3F	; 63
    1836:	78 07       	cpc	r23, r24
    1838:	39 f4       	brne	.+14     	; 0x1848 <p16f628a_progCode+0x36>
		{
			p16f7x_writeComm(P16F7X_INC_ADD, 0x0000, 1);
    183a:	41 e0       	ldi	r20, 0x01	; 1
    183c:	60 e0       	ldi	r22, 0x00	; 0
    183e:	70 e0       	ldi	r23, 0x00	; 0
    1840:	86 e0       	ldi	r24, 0x06	; 6
    1842:	0e 94 7c 01 	call	0x2f8	; 0x2f8 <p16f7x_writeComm>
			continue;
    1846:	16 c0       	rjmp	.+44     	; 0x1874 <p16f628a_progCode+0x62>
		}
		else
		{
			p16f7x_writeComm(P16F628A_LOAD_CODE, (exchange[i + 4] | (exchange[i + 5] <<8)), 0);
    1848:	40 e0       	ldi	r20, 0x00	; 0
    184a:	82 e0       	ldi	r24, 0x02	; 2
    184c:	0e 94 7c 01 	call	0x2f8	; 0x2f8 <p16f7x_writeComm>
			p16f7x_writeComm(P16F7X_BEGIN_PROG, 0x0000, 1);
    1850:	41 e0       	ldi	r20, 0x01	; 1
    1852:	60 e0       	ldi	r22, 0x00	; 0
    1854:	70 e0       	ldi	r23, 0x00	; 0
    1856:	88 e0       	ldi	r24, 0x08	; 8
    1858:	0e 94 7c 01 	call	0x2f8	; 0x2f8 <p16f7x_writeComm>
			delay_ms(wr_delay);
    185c:	80 91 c4 02 	lds	r24, 0x02C4	; 0x8002c4 <wr_delay>
    1860:	90 91 c5 02 	lds	r25, 0x02C5	; 0x8002c5 <wr_delay+0x1>
    1864:	0e 94 14 01 	call	0x228	; 0x228 <delay_ms>
			p16f7x_writeComm(P16F7X_INC_ADD, 0x0000, 1);
    1868:	41 e0       	ldi	r20, 0x01	; 1
    186a:	60 e0       	ldi	r22, 0x00	; 0
    186c:	70 e0       	ldi	r23, 0x00	; 0
    186e:	86 e0       	ldi	r24, 0x06	; 6
    1870:	0e 94 7c 01 	call	0x2f8	; 0x2f8 <p16f7x_writeComm>
    1874:	22 96       	adiw	r28, 0x02	; 2
	}
}

void p16f628a_progCode(void)
{
	for(int i = 0; i < 128; i+= 2)
    1876:	c0 17       	cp	r28, r16
    1878:	d1 07       	cpc	r29, r17
    187a:	99 f6       	brne	.-90     	; 0x1822 <p16f628a_progCode+0x10>
			p16f7x_writeComm(P16F7X_BEGIN_PROG, 0x0000, 1);
			delay_ms(wr_delay);
			p16f7x_writeComm(P16F7X_INC_ADD, 0x0000, 1);
		}
	}
}
    187c:	df 91       	pop	r29
    187e:	cf 91       	pop	r28
    1880:	1f 91       	pop	r17
    1882:	0f 91       	pop	r16
    1884:	08 95       	ret

00001886 <p16f676_progCode>:

void p16f676_progCode(void)
{
    1886:	0f 93       	push	r16
    1888:	1f 93       	push	r17
    188a:	cf 93       	push	r28
    188c:	df 93       	push	r29
    188e:	c5 e2       	ldi	r28, 0x25	; 37
    1890:	d2 e0       	ldi	r29, 0x02	; 2
    1892:	05 ea       	ldi	r16, 0xA5	; 165
    1894:	12 e0       	ldi	r17, 0x02	; 2
	for(int i = 0; i < 128; i+= 2)
	{
		if((exchange[i + 4] | (exchange[i + 5] << 8)) == 0x3FFF)
    1896:	68 81       	ld	r22, Y
    1898:	70 e0       	ldi	r23, 0x00	; 0
    189a:	76 2f       	mov	r23, r22
    189c:	66 27       	eor	r22, r22
    189e:	fe 01       	movw	r30, r28
    18a0:	31 97       	sbiw	r30, 0x01	; 1
    18a2:	80 81       	ld	r24, Z
    18a4:	68 2b       	or	r22, r24
    18a6:	6f 3f       	cpi	r22, 0xFF	; 255
    18a8:	2f e3       	ldi	r18, 0x3F	; 63
    18aa:	72 07       	cpc	r23, r18
    18ac:	39 f4       	brne	.+14     	; 0x18bc <p16f676_progCode+0x36>
		{
			p16f7x_writeComm(P16F7X_INC_ADD, 0x0000, 1);
    18ae:	41 e0       	ldi	r20, 0x01	; 1
    18b0:	60 e0       	ldi	r22, 0x00	; 0
    18b2:	70 e0       	ldi	r23, 0x00	; 0
    18b4:	86 e0       	ldi	r24, 0x06	; 6
    18b6:	0e 94 7c 01 	call	0x2f8	; 0x2f8 <p16f7x_writeComm>
			continue;
    18ba:	51 c0       	rjmp	.+162    	; 0x195e <p16f676_progCode+0xd8>
		}
		else if(main_counter == 0x3FF)
    18bc:	80 91 bc 02 	lds	r24, 0x02BC	; 0x8002bc <main_counter>
    18c0:	90 91 bd 02 	lds	r25, 0x02BD	; 0x8002bd <main_counter+0x1>
    18c4:	a0 91 be 02 	lds	r26, 0x02BE	; 0x8002be <main_counter+0x2>
    18c8:	b0 91 bf 02 	lds	r27, 0x02BF	; 0x8002bf <main_counter+0x3>
    18cc:	8f 3f       	cpi	r24, 0xFF	; 255
    18ce:	93 40       	sbci	r25, 0x03	; 3
    18d0:	a1 05       	cpc	r26, r1
    18d2:	b1 05       	cpc	r27, r1
    18d4:	d9 f4       	brne	.+54     	; 0x190c <p16f676_progCode+0x86>
		{
			p16f7x_writeComm(P16F628A_LOAD_CODE, oscal1, 0);
    18d6:	60 91 b8 02 	lds	r22, 0x02B8	; 0x8002b8 <oscal1>
    18da:	70 91 b9 02 	lds	r23, 0x02B9	; 0x8002b9 <oscal1+0x1>
    18de:	40 e0       	ldi	r20, 0x00	; 0
    18e0:	82 e0       	ldi	r24, 0x02	; 2
    18e2:	0e 94 7c 01 	call	0x2f8	; 0x2f8 <p16f7x_writeComm>
			p16f7x_writeComm(P16F7X_BEGIN_PROG, 0x0000, 1);
    18e6:	41 e0       	ldi	r20, 0x01	; 1
    18e8:	60 e0       	ldi	r22, 0x00	; 0
    18ea:	70 e0       	ldi	r23, 0x00	; 0
    18ec:	88 e0       	ldi	r24, 0x08	; 8
    18ee:	0e 94 7c 01 	call	0x2f8	; 0x2f8 <p16f7x_writeComm>
			delay_ms(wr_delay);
    18f2:	80 91 c4 02 	lds	r24, 0x02C4	; 0x8002c4 <wr_delay>
    18f6:	90 91 c5 02 	lds	r25, 0x02C5	; 0x8002c5 <wr_delay+0x1>
    18fa:	0e 94 14 01 	call	0x228	; 0x228 <delay_ms>
			p16f7x_writeComm(P16F7X_INC_ADD, 0x0000, 1);
    18fe:	41 e0       	ldi	r20, 0x01	; 1
    1900:	60 e0       	ldi	r22, 0x00	; 0
    1902:	70 e0       	ldi	r23, 0x00	; 0
    1904:	86 e0       	ldi	r24, 0x06	; 6
    1906:	0e 94 7c 01 	call	0x2f8	; 0x2f8 <p16f7x_writeComm>
    190a:	16 c0       	rjmp	.+44     	; 0x1938 <p16f676_progCode+0xb2>
		}
		else
		{
			p16f7x_writeComm(P16F628A_LOAD_CODE, (exchange[i + 4] | (exchange[i + 5] <<8)), 0);
    190c:	40 e0       	ldi	r20, 0x00	; 0
    190e:	82 e0       	ldi	r24, 0x02	; 2
    1910:	0e 94 7c 01 	call	0x2f8	; 0x2f8 <p16f7x_writeComm>
			p16f7x_writeComm(P16F7X_BEGIN_PROG, 0x0000, 1);
    1914:	41 e0       	ldi	r20, 0x01	; 1
    1916:	60 e0       	ldi	r22, 0x00	; 0
    1918:	70 e0       	ldi	r23, 0x00	; 0
    191a:	88 e0       	ldi	r24, 0x08	; 8
    191c:	0e 94 7c 01 	call	0x2f8	; 0x2f8 <p16f7x_writeComm>
			delay_ms(wr_delay);
    1920:	80 91 c4 02 	lds	r24, 0x02C4	; 0x8002c4 <wr_delay>
    1924:	90 91 c5 02 	lds	r25, 0x02C5	; 0x8002c5 <wr_delay+0x1>
    1928:	0e 94 14 01 	call	0x228	; 0x228 <delay_ms>
			p16f7x_writeComm(P16F7X_INC_ADD, 0x0000, 1);
    192c:	41 e0       	ldi	r20, 0x01	; 1
    192e:	60 e0       	ldi	r22, 0x00	; 0
    1930:	70 e0       	ldi	r23, 0x00	; 0
    1932:	86 e0       	ldi	r24, 0x06	; 6
    1934:	0e 94 7c 01 	call	0x2f8	; 0x2f8 <p16f7x_writeComm>
		}
		main_counter++;
    1938:	80 91 bc 02 	lds	r24, 0x02BC	; 0x8002bc <main_counter>
    193c:	90 91 bd 02 	lds	r25, 0x02BD	; 0x8002bd <main_counter+0x1>
    1940:	a0 91 be 02 	lds	r26, 0x02BE	; 0x8002be <main_counter+0x2>
    1944:	b0 91 bf 02 	lds	r27, 0x02BF	; 0x8002bf <main_counter+0x3>
    1948:	01 96       	adiw	r24, 0x01	; 1
    194a:	a1 1d       	adc	r26, r1
    194c:	b1 1d       	adc	r27, r1
    194e:	80 93 bc 02 	sts	0x02BC, r24	; 0x8002bc <main_counter>
    1952:	90 93 bd 02 	sts	0x02BD, r25	; 0x8002bd <main_counter+0x1>
    1956:	a0 93 be 02 	sts	0x02BE, r26	; 0x8002be <main_counter+0x2>
    195a:	b0 93 bf 02 	sts	0x02BF, r27	; 0x8002bf <main_counter+0x3>
    195e:	22 96       	adiw	r28, 0x02	; 2
	}
}

void p16f676_progCode(void)
{
	for(int i = 0; i < 128; i+= 2)
    1960:	c0 17       	cp	r28, r16
    1962:	d1 07       	cpc	r29, r17
    1964:	09 f0       	breq	.+2      	; 0x1968 <p16f676_progCode+0xe2>
    1966:	97 cf       	rjmp	.-210    	; 0x1896 <p16f676_progCode+0x10>
			delay_ms(wr_delay);
			p16f7x_writeComm(P16F7X_INC_ADD, 0x0000, 1);
		}
		main_counter++;
	}
}
    1968:	df 91       	pop	r29
    196a:	cf 91       	pop	r28
    196c:	1f 91       	pop	r17
    196e:	0f 91       	pop	r16
    1970:	08 95       	ret

00001972 <p16f84a_progCode>:

void p16f84a_progCode(void)
{
    1972:	0f 93       	push	r16
    1974:	1f 93       	push	r17
    1976:	cf 93       	push	r28
    1978:	df 93       	push	r29
    197a:	c5 e2       	ldi	r28, 0x25	; 37
    197c:	d2 e0       	ldi	r29, 0x02	; 2
    197e:	05 ea       	ldi	r16, 0xA5	; 165
    1980:	12 e0       	ldi	r17, 0x02	; 2
	for(int i = 0; i < 128; i+= 2)
	{
		if((exchange[i + 4] | (exchange[i + 5] << 8)) == 0x3FFF)
    1982:	68 81       	ld	r22, Y
    1984:	70 e0       	ldi	r23, 0x00	; 0
    1986:	76 2f       	mov	r23, r22
    1988:	66 27       	eor	r22, r22
    198a:	fe 01       	movw	r30, r28
    198c:	31 97       	sbiw	r30, 0x01	; 1
    198e:	80 81       	ld	r24, Z
    1990:	68 2b       	or	r22, r24
    1992:	6f 3f       	cpi	r22, 0xFF	; 255
    1994:	8f e3       	ldi	r24, 0x3F	; 63
    1996:	78 07       	cpc	r23, r24
    1998:	59 f4       	brne	.+22     	; 0x19b0 <p16f84a_progCode+0x3e>
		{
			p16f7x_writeComm(P16F7X_INC_ADD, 0x0000, 1);
    199a:	41 e0       	ldi	r20, 0x01	; 1
    199c:	60 e0       	ldi	r22, 0x00	; 0
    199e:	70 e0       	ldi	r23, 0x00	; 0
    19a0:	86 e0       	ldi	r24, 0x06	; 6
    19a2:	0e 94 7c 01 	call	0x2f8	; 0x2f8 <p16f7x_writeComm>
	#else
		//round up by default
		__ticks_dc = (uint32_t)(ceil(fabs(__tmp)));
	#endif

	__builtin_avr_delay_cycles(__ticks_dc);
    19a6:	8a e6       	ldi	r24, 0x6A	; 106
    19a8:	8a 95       	dec	r24
    19aa:	f1 f7       	brne	.-4      	; 0x19a8 <p16f84a_progCode+0x36>
    19ac:	00 c0       	rjmp	.+0      	; 0x19ae <p16f84a_progCode+0x3c>
			_delay_us(20);
			continue;
    19ae:	1a c0       	rjmp	.+52     	; 0x19e4 <p16f84a_progCode+0x72>
		}
		else
		{
			p16f7x_writeComm(P16F628A_LOAD_CODE, (exchange[i + 4] | (exchange[i + 5] <<8)), 0);
    19b0:	40 e0       	ldi	r20, 0x00	; 0
    19b2:	82 e0       	ldi	r24, 0x02	; 2
    19b4:	0e 94 7c 01 	call	0x2f8	; 0x2f8 <p16f7x_writeComm>
    19b8:	8a e6       	ldi	r24, 0x6A	; 106
    19ba:	8a 95       	dec	r24
    19bc:	f1 f7       	brne	.-4      	; 0x19ba <p16f84a_progCode+0x48>
    19be:	00 c0       	rjmp	.+0      	; 0x19c0 <p16f84a_progCode+0x4e>
			_delay_us(20);
			p16f7x_writeComm(0x08, 0x0000, 1);
    19c0:	41 e0       	ldi	r20, 0x01	; 1
    19c2:	60 e0       	ldi	r22, 0x00	; 0
    19c4:	70 e0       	ldi	r23, 0x00	; 0
    19c6:	88 e0       	ldi	r24, 0x08	; 8
    19c8:	0e 94 7c 01 	call	0x2f8	; 0x2f8 <p16f7x_writeComm>
			delay_ms(wr_delay);
    19cc:	80 91 c4 02 	lds	r24, 0x02C4	; 0x8002c4 <wr_delay>
    19d0:	90 91 c5 02 	lds	r25, 0x02C5	; 0x8002c5 <wr_delay+0x1>
    19d4:	0e 94 14 01 	call	0x228	; 0x228 <delay_ms>
			p16f7x_writeComm(P16F7X_INC_ADD, 0x0000, 1);
    19d8:	41 e0       	ldi	r20, 0x01	; 1
    19da:	60 e0       	ldi	r22, 0x00	; 0
    19dc:	70 e0       	ldi	r23, 0x00	; 0
    19de:	86 e0       	ldi	r24, 0x06	; 6
    19e0:	0e 94 7c 01 	call	0x2f8	; 0x2f8 <p16f7x_writeComm>
    19e4:	22 96       	adiw	r28, 0x02	; 2
	}
}

void p16f84a_progCode(void)
{
	for(int i = 0; i < 128; i+= 2)
    19e6:	c0 17       	cp	r28, r16
    19e8:	d1 07       	cpc	r29, r17
    19ea:	59 f6       	brne	.-106    	; 0x1982 <p16f84a_progCode+0x10>
			p16f7x_writeComm(0x08, 0x0000, 1);
			delay_ms(wr_delay);
			p16f7x_writeComm(P16F7X_INC_ADD, 0x0000, 1);
		}
	}
}
    19ec:	df 91       	pop	r29
    19ee:	cf 91       	pop	r28
    19f0:	1f 91       	pop	r17
    19f2:	0f 91       	pop	r16
    19f4:	08 95       	ret

000019f6 <p18fx5xx_progCode>:

void p18fx5xx_progCode(void)
{
    19f6:	af 92       	push	r10
    19f8:	bf 92       	push	r11
    19fa:	cf 92       	push	r12
    19fc:	df 92       	push	r13
    19fe:	ef 92       	push	r14
    1a00:	ff 92       	push	r15
    1a02:	0f 93       	push	r16
    1a04:	1f 93       	push	r17
    1a06:	cf 93       	push	r28
    1a08:	df 93       	push	r29
	uint8_t h_a, m_a, l_a;
	uint16_t  tmp_a;
	int ff_val;

	for(int i = 0; i < 128; i+= f_psize)
    1a0a:	00 e0       	ldi	r16, 0x00	; 0
    1a0c:	10 e0       	ldi	r17, 0x00	; 0
	{
		ff_val = 0;
		for(int k = 0; k < f_psize; k+= 2)
    1a0e:	a1 2c       	mov	r10, r1
    1a10:	b1 2c       	mov	r11, r1
    1a12:	a9 c0       	rjmp	.+338    	; 0x1b66 <p18fx5xx_progCode+0x170>
    1a14:	df 01       	movw	r26, r30
    1a16:	11 97       	sbiw	r26, 0x01	; 1
		{
			if(exchange[i + k + 4] == 0xFF && exchange[i + k + 5] == 0xFF) ff_val += 2;
    1a18:	2c 91       	ld	r18, X
    1a1a:	2f 3f       	cpi	r18, 0xFF	; 255
    1a1c:	29 f4       	brne	.+10     	; 0x1a28 <p18fx5xx_progCode+0x32>
    1a1e:	20 81       	ld	r18, Z
    1a20:	2f 3f       	cpi	r18, 0xFF	; 255
    1a22:	11 f4       	brne	.+4      	; 0x1a28 <p18fx5xx_progCode+0x32>
    1a24:	6e 5f       	subi	r22, 0xFE	; 254
    1a26:	7f 4f       	sbci	r23, 0xFF	; 255
	int ff_val;

	for(int i = 0; i < 128; i+= f_psize)
	{
		ff_val = 0;
		for(int k = 0; k < f_psize; k+= 2)
    1a28:	02 96       	adiw	r24, 0x02	; 2
    1a2a:	32 96       	adiw	r30, 0x02	; 2
    1a2c:	84 17       	cp	r24, r20
    1a2e:	95 07       	cpc	r25, r21
    1a30:	88 f3       	brcs	.-30     	; 0x1a14 <p18fx5xx_progCode+0x1e>
		{
			if(exchange[i + k + 4] == 0xFF && exchange[i + k + 5] == 0xFF) ff_val += 2;
		}
		if(ff_val == f_psize) {main_counter += f_psize; continue;}
    1a32:	64 17       	cp	r22, r20
    1a34:	75 07       	cpc	r23, r21
    1a36:	a9 f4       	brne	.+42     	; 0x1a62 <p18fx5xx_progCode+0x6c>
    1a38:	80 91 bc 02 	lds	r24, 0x02BC	; 0x8002bc <main_counter>
    1a3c:	90 91 bd 02 	lds	r25, 0x02BD	; 0x8002bd <main_counter+0x1>
    1a40:	a0 91 be 02 	lds	r26, 0x02BE	; 0x8002be <main_counter+0x2>
    1a44:	b0 91 bf 02 	lds	r27, 0x02BF	; 0x8002bf <main_counter+0x3>
    1a48:	84 0f       	add	r24, r20
    1a4a:	95 1f       	adc	r25, r21
    1a4c:	a1 1d       	adc	r26, r1
    1a4e:	b1 1d       	adc	r27, r1
    1a50:	80 93 bc 02 	sts	0x02BC, r24	; 0x8002bc <main_counter>
    1a54:	90 93 bd 02 	sts	0x02BD, r25	; 0x8002bd <main_counter+0x1>
    1a58:	a0 93 be 02 	sts	0x02BE, r26	; 0x8002be <main_counter+0x2>
    1a5c:	b0 93 bf 02 	sts	0x02BF, r27	; 0x8002bf <main_counter+0x3>
    1a60:	79 c0       	rjmp	.+242    	; 0x1b54 <p18fx5xx_progCode+0x15e>

		p16f7x_progMode();
    1a62:	0e 94 32 01 	call	0x264	; 0x264 <p16f7x_progMode>

		p18fx5xx_writeComm(P18FX5XX_CORE_INSTR, 0x8EA6);
    1a66:	66 ea       	ldi	r22, 0xA6	; 166
    1a68:	7e e8       	ldi	r23, 0x8E	; 142
    1a6a:	80 e0       	ldi	r24, 0x00	; 0
    1a6c:	0e 94 57 02 	call	0x4ae	; 0x4ae <p18fx5xx_writeComm>
		p18fx5xx_writeComm(P18FX5XX_CORE_INSTR, 0x9CA6);
    1a70:	66 ea       	ldi	r22, 0xA6	; 166
    1a72:	7c e9       	ldi	r23, 0x9C	; 156
    1a74:	80 e0       	ldi	r24, 0x00	; 0
    1a76:	0e 94 57 02 	call	0x4ae	; 0x4ae <p18fx5xx_writeComm>

		tmp_a = main_counter >> 8;
    1a7a:	40 91 bc 02 	lds	r20, 0x02BC	; 0x8002bc <main_counter>
    1a7e:	50 91 bd 02 	lds	r21, 0x02BD	; 0x8002bd <main_counter+0x1>
    1a82:	60 91 be 02 	lds	r22, 0x02BE	; 0x8002be <main_counter+0x2>
    1a86:	70 91 bf 02 	lds	r23, 0x02BF	; 0x8002bf <main_counter+0x3>
    1a8a:	bb 27       	eor	r27, r27
    1a8c:	a7 2f       	mov	r26, r23
    1a8e:	96 2f       	mov	r25, r22
    1a90:	85 2f       	mov	r24, r21
		h_a = tmp_a >> 8;
		m_a = (main_counter >> 8) & 0xFF;
		l_a = main_counter & 0xFF;


		p18fx5xx_setDP(h_a, m_a, l_a);
    1a92:	68 2f       	mov	r22, r24
    1a94:	89 2f       	mov	r24, r25
    1a96:	0e 94 a9 03 	call	0x752	; 0x752 <p18fx5xx_setDP>
		for(int k = 0; k < f_psize; k+= 2)
    1a9a:	80 91 c8 02 	lds	r24, 0x02C8	; 0x8002c8 <f_psize>
    1a9e:	90 91 c9 02 	lds	r25, 0x02C9	; 0x8002c9 <f_psize+0x1>
    1aa2:	00 97       	sbiw	r24, 0x00	; 0
    1aa4:	59 f1       	breq	.+86     	; 0x1afc <p18fx5xx_progCode+0x106>
    1aa6:	cc 5d       	subi	r28, 0xDC	; 220
    1aa8:	dd 4f       	sbci	r29, 0xFD	; 253
    1aaa:	ca 2c       	mov	r12, r10
    1aac:	db 2c       	mov	r13, r11
		{
			if(k >= (f_psize - 2)) p18fx5xx_writeComm(P18FX5XX_START_PR, exchange[i + k + 4] | (exchange[i + k + 5] << 8));
    1aae:	02 97       	sbiw	r24, 0x02	; 2
    1ab0:	c8 16       	cp	r12, r24
    1ab2:	d9 06       	cpc	r13, r25
    1ab4:	58 f0       	brcs	.+22     	; 0x1acc <p18fx5xx_progCode+0xd6>
    1ab6:	f7 01       	movw	r30, r14
    1ab8:	60 81       	ld	r22, Z
    1aba:	70 e0       	ldi	r23, 0x00	; 0
    1abc:	76 2f       	mov	r23, r22
    1abe:	66 27       	eor	r22, r22
    1ac0:	88 81       	ld	r24, Y
    1ac2:	68 2b       	or	r22, r24
    1ac4:	8f e0       	ldi	r24, 0x0F	; 15
    1ac6:	0e 94 57 02 	call	0x4ae	; 0x4ae <p18fx5xx_writeComm>
    1aca:	0a c0       	rjmp	.+20     	; 0x1ae0 <p18fx5xx_progCode+0xea>
			else p18fx5xx_writeComm(P18FX5XX_TABLE_WRPI2, exchange[i + k + 4] | (exchange[i + k + 5] << 8));
    1acc:	f7 01       	movw	r30, r14
    1ace:	60 81       	ld	r22, Z
    1ad0:	70 e0       	ldi	r23, 0x00	; 0
    1ad2:	76 2f       	mov	r23, r22
    1ad4:	66 27       	eor	r22, r22
    1ad6:	88 81       	ld	r24, Y
    1ad8:	68 2b       	or	r22, r24
    1ada:	8d e0       	ldi	r24, 0x0D	; 13
    1adc:	0e 94 57 02 	call	0x4ae	; 0x4ae <p18fx5xx_writeComm>
		m_a = (main_counter >> 8) & 0xFF;
		l_a = main_counter & 0xFF;


		p18fx5xx_setDP(h_a, m_a, l_a);
		for(int k = 0; k < f_psize; k+= 2)
    1ae0:	f2 e0       	ldi	r31, 0x02	; 2
    1ae2:	cf 0e       	add	r12, r31
    1ae4:	d1 1c       	adc	r13, r1
    1ae6:	80 91 c8 02 	lds	r24, 0x02C8	; 0x8002c8 <f_psize>
    1aea:	90 91 c9 02 	lds	r25, 0x02C9	; 0x8002c9 <f_psize+0x1>
    1aee:	22 96       	adiw	r28, 0x02	; 2
    1af0:	22 e0       	ldi	r18, 0x02	; 2
    1af2:	e2 0e       	add	r14, r18
    1af4:	f1 1c       	adc	r15, r1
    1af6:	c8 16       	cp	r12, r24
    1af8:	d9 06       	cpc	r13, r25
    1afa:	c8 f2       	brcs	.-78     	; 0x1aae <p18fx5xx_progCode+0xb8>
		{
			if(k >= (f_psize - 2)) p18fx5xx_writeComm(P18FX5XX_START_PR, exchange[i + k + 4] | (exchange[i + k + 5] << 8));
			else p18fx5xx_writeComm(P18FX5XX_TABLE_WRPI2, exchange[i + k + 4] | (exchange[i + k + 5] << 8));
		}

		p18fx5xx_writeNop();
    1afc:	0e 94 b4 02 	call	0x568	; 0x568 <p18fx5xx_writeNop>
		p18fx5xx_writeComm(P18FX5XX_CORE_INSTR, 0x0000);
    1b00:	6a 2d       	mov	r22, r10
    1b02:	7b 2d       	mov	r23, r11
    1b04:	80 e0       	ldi	r24, 0x00	; 0
    1b06:	0e 94 57 02 	call	0x4ae	; 0x4ae <p18fx5xx_writeComm>
		p18fx5xx_writeComm(P18FX5XX_CORE_INSTR, 0x0000);
    1b0a:	6a 2d       	mov	r22, r10
    1b0c:	7b 2d       	mov	r23, r11
    1b0e:	80 e0       	ldi	r24, 0x00	; 0
    1b10:	0e 94 57 02 	call	0x4ae	; 0x4ae <p18fx5xx_writeComm>

		main_counter += f_psize;
    1b14:	20 91 c8 02 	lds	r18, 0x02C8	; 0x8002c8 <f_psize>
    1b18:	30 91 c9 02 	lds	r19, 0x02C9	; 0x8002c9 <f_psize+0x1>
    1b1c:	80 91 bc 02 	lds	r24, 0x02BC	; 0x8002bc <main_counter>
    1b20:	90 91 bd 02 	lds	r25, 0x02BD	; 0x8002bd <main_counter+0x1>
    1b24:	a0 91 be 02 	lds	r26, 0x02BE	; 0x8002be <main_counter+0x2>
    1b28:	b0 91 bf 02 	lds	r27, 0x02BF	; 0x8002bf <main_counter+0x3>
    1b2c:	82 0f       	add	r24, r18
    1b2e:	93 1f       	adc	r25, r19
    1b30:	a1 1d       	adc	r26, r1
    1b32:	b1 1d       	adc	r27, r1
    1b34:	80 93 bc 02 	sts	0x02BC, r24	; 0x8002bc <main_counter>
    1b38:	90 93 bd 02 	sts	0x02BD, r25	; 0x8002bd <main_counter+0x1>
    1b3c:	a0 93 be 02 	sts	0x02BE, r26	; 0x8002be <main_counter+0x2>
    1b40:	b0 93 bf 02 	sts	0x02BF, r27	; 0x8002bf <main_counter+0x3>
		p16f7x_reset();
    1b44:	0e 94 d1 03 	call	0x7a2	; 0x7a2 <p16f7x_reset>
	#else
		//round up by default
		__ticks_dc = (uint32_t)(ceil(fabs(__tmp)));
	#endif

	__builtin_avr_delay_cycles(__ticks_dc);
    1b48:	8f e3       	ldi	r24, 0x3F	; 63
    1b4a:	9f e1       	ldi	r25, 0x1F	; 31
    1b4c:	01 97       	sbiw	r24, 0x01	; 1
    1b4e:	f1 f7       	brne	.-4      	; 0x1b4c <p18fx5xx_progCode+0x156>
    1b50:	00 c0       	rjmp	.+0      	; 0x1b52 <p18fx5xx_progCode+0x15c>
    1b52:	00 00       	nop
{
	uint8_t h_a, m_a, l_a;
	uint16_t  tmp_a;
	int ff_val;

	for(int i = 0; i < 128; i+= f_psize)
    1b54:	80 91 c8 02 	lds	r24, 0x02C8	; 0x8002c8 <f_psize>
    1b58:	90 91 c9 02 	lds	r25, 0x02C9	; 0x8002c9 <f_psize+0x1>
    1b5c:	08 0f       	add	r16, r24
    1b5e:	19 1f       	adc	r17, r25
    1b60:	00 38       	cpi	r16, 0x80	; 128
    1b62:	11 05       	cpc	r17, r1
    1b64:	94 f4       	brge	.+36     	; 0x1b8a <p18fx5xx_progCode+0x194>
	{
		ff_val = 0;
		for(int k = 0; k < f_psize; k+= 2)
    1b66:	40 91 c8 02 	lds	r20, 0x02C8	; 0x8002c8 <f_psize>
    1b6a:	50 91 c9 02 	lds	r21, 0x02C9	; 0x8002c9 <f_psize+0x1>
    1b6e:	41 15       	cp	r20, r1
    1b70:	51 05       	cpc	r21, r1
    1b72:	09 f4       	brne	.+2      	; 0x1b76 <p18fx5xx_progCode+0x180>
    1b74:	61 cf       	rjmp	.-318    	; 0x1a38 <p18fx5xx_progCode+0x42>
    1b76:	e8 01       	movw	r28, r16
    1b78:	f8 01       	movw	r30, r16
    1b7a:	eb 5d       	subi	r30, 0xDB	; 219
    1b7c:	fd 4f       	sbci	r31, 0xFD	; 253
    1b7e:	7f 01       	movw	r14, r30
    1b80:	8a 2d       	mov	r24, r10
    1b82:	9b 2d       	mov	r25, r11
    1b84:	6a 2d       	mov	r22, r10
    1b86:	7b 2d       	mov	r23, r11
    1b88:	45 cf       	rjmp	.-374    	; 0x1a14 <p18fx5xx_progCode+0x1e>
		main_counter += f_psize;
		p16f7x_reset();

		_delay_ms(2);
	}
}
    1b8a:	df 91       	pop	r29
    1b8c:	cf 91       	pop	r28
    1b8e:	1f 91       	pop	r17
    1b90:	0f 91       	pop	r16
    1b92:	ff 90       	pop	r15
    1b94:	ef 90       	pop	r14
    1b96:	df 90       	pop	r13
    1b98:	cf 90       	pop	r12
    1b9a:	bf 90       	pop	r11
    1b9c:	af 90       	pop	r10
    1b9e:	08 95       	ret

00001ba0 <p18fxxk80_progCode>:

void p18fxxk80_progCode(void)
{
    1ba0:	af 92       	push	r10
    1ba2:	bf 92       	push	r11
    1ba4:	cf 92       	push	r12
    1ba6:	df 92       	push	r13
    1ba8:	ef 92       	push	r14
    1baa:	ff 92       	push	r15
    1bac:	0f 93       	push	r16
    1bae:	1f 93       	push	r17
    1bb0:	cf 93       	push	r28
    1bb2:	df 93       	push	r29
	uint8_t h_a, m_a, l_a;
	uint16_t  tmp_a;
	int ff_val;

	for(int i = 0; i < 128; i+= f_psize)
    1bb4:	00 e0       	ldi	r16, 0x00	; 0
    1bb6:	10 e0       	ldi	r17, 0x00	; 0
	{
		ff_val = 0;
		for(int k = 0; k < f_psize; k+= 2)
    1bb8:	a1 2c       	mov	r10, r1
    1bba:	b1 2c       	mov	r11, r1
    1bbc:	b4 c0       	rjmp	.+360    	; 0x1d26 <p18fxxk80_progCode+0x186>
    1bbe:	df 01       	movw	r26, r30
    1bc0:	11 97       	sbiw	r26, 0x01	; 1
		{
			if(exchange[i + k + 4] == 0xFF && exchange[i + k + 5] == 0xFF) ff_val += 2;
    1bc2:	2c 91       	ld	r18, X
    1bc4:	2f 3f       	cpi	r18, 0xFF	; 255
    1bc6:	29 f4       	brne	.+10     	; 0x1bd2 <p18fxxk80_progCode+0x32>
    1bc8:	20 81       	ld	r18, Z
    1bca:	2f 3f       	cpi	r18, 0xFF	; 255
    1bcc:	11 f4       	brne	.+4      	; 0x1bd2 <p18fxxk80_progCode+0x32>
    1bce:	6e 5f       	subi	r22, 0xFE	; 254
    1bd0:	7f 4f       	sbci	r23, 0xFF	; 255
	int ff_val;

	for(int i = 0; i < 128; i+= f_psize)
	{
		ff_val = 0;
		for(int k = 0; k < f_psize; k+= 2)
    1bd2:	02 96       	adiw	r24, 0x02	; 2
    1bd4:	32 96       	adiw	r30, 0x02	; 2
    1bd6:	84 17       	cp	r24, r20
    1bd8:	95 07       	cpc	r25, r21
    1bda:	88 f3       	brcs	.-30     	; 0x1bbe <p18fxxk80_progCode+0x1e>
		{
			if(exchange[i + k + 4] == 0xFF && exchange[i + k + 5] == 0xFF) ff_val += 2;
		}
		if(ff_val == f_psize) {main_counter += f_psize; continue;}
    1bdc:	64 17       	cp	r22, r20
    1bde:	75 07       	cpc	r23, r21
    1be0:	a9 f4       	brne	.+42     	; 0x1c0c <p18fxxk80_progCode+0x6c>
    1be2:	80 91 bc 02 	lds	r24, 0x02BC	; 0x8002bc <main_counter>
    1be6:	90 91 bd 02 	lds	r25, 0x02BD	; 0x8002bd <main_counter+0x1>
    1bea:	a0 91 be 02 	lds	r26, 0x02BE	; 0x8002be <main_counter+0x2>
    1bee:	b0 91 bf 02 	lds	r27, 0x02BF	; 0x8002bf <main_counter+0x3>
    1bf2:	84 0f       	add	r24, r20
    1bf4:	95 1f       	adc	r25, r21
    1bf6:	a1 1d       	adc	r26, r1
    1bf8:	b1 1d       	adc	r27, r1
    1bfa:	80 93 bc 02 	sts	0x02BC, r24	; 0x8002bc <main_counter>
    1bfe:	90 93 bd 02 	sts	0x02BD, r25	; 0x8002bd <main_counter+0x1>
    1c02:	a0 93 be 02 	sts	0x02BE, r26	; 0x8002be <main_counter+0x2>
    1c06:	b0 93 bf 02 	sts	0x02BF, r27	; 0x8002bf <main_counter+0x3>
    1c0a:	84 c0       	rjmp	.+264    	; 0x1d14 <p18fxxk80_progCode+0x174>

		p16f7x_progMode();
    1c0c:	0e 94 32 01 	call	0x264	; 0x264 <p16f7x_progMode>
		p18fxxk80_password(0x4D43, 0x4850);
    1c10:	60 e5       	ldi	r22, 0x50	; 80
    1c12:	78 e4       	ldi	r23, 0x48	; 72
    1c14:	83 e4       	ldi	r24, 0x43	; 67
    1c16:	9d e4       	ldi	r25, 0x4D	; 77
    1c18:	0e 94 dd 02 	call	0x5ba	; 0x5ba <p18fxxk80_password>

		p18fx5xx_writeComm(P18FX5XX_CORE_INSTR, 0x8E7F);
    1c1c:	6f e7       	ldi	r22, 0x7F	; 127
    1c1e:	7e e8       	ldi	r23, 0x8E	; 142
    1c20:	80 e0       	ldi	r24, 0x00	; 0
    1c22:	0e 94 57 02 	call	0x4ae	; 0x4ae <p18fx5xx_writeComm>
		p18fx5xx_writeComm(P18FX5XX_CORE_INSTR, 0x9C7F);
    1c26:	6f e7       	ldi	r22, 0x7F	; 127
    1c28:	7c e9       	ldi	r23, 0x9C	; 156
    1c2a:	80 e0       	ldi	r24, 0x00	; 0
    1c2c:	0e 94 57 02 	call	0x4ae	; 0x4ae <p18fx5xx_writeComm>
		p18fx5xx_writeComm(P18FX5XX_CORE_INSTR, 0x847F);
    1c30:	6f e7       	ldi	r22, 0x7F	; 127
    1c32:	74 e8       	ldi	r23, 0x84	; 132
    1c34:	80 e0       	ldi	r24, 0x00	; 0
    1c36:	0e 94 57 02 	call	0x4ae	; 0x4ae <p18fx5xx_writeComm>

		tmp_a = main_counter >> 8;
    1c3a:	40 91 bc 02 	lds	r20, 0x02BC	; 0x8002bc <main_counter>
    1c3e:	50 91 bd 02 	lds	r21, 0x02BD	; 0x8002bd <main_counter+0x1>
    1c42:	60 91 be 02 	lds	r22, 0x02BE	; 0x8002be <main_counter+0x2>
    1c46:	70 91 bf 02 	lds	r23, 0x02BF	; 0x8002bf <main_counter+0x3>
    1c4a:	bb 27       	eor	r27, r27
    1c4c:	a7 2f       	mov	r26, r23
    1c4e:	96 2f       	mov	r25, r22
    1c50:	85 2f       	mov	r24, r21
		h_a = tmp_a >> 8;
		m_a = (main_counter >> 8) & 0xFF;
		l_a = main_counter & 0xFF;


		p18fx5xx_setDP(h_a, m_a, l_a);
    1c52:	68 2f       	mov	r22, r24
    1c54:	89 2f       	mov	r24, r25
    1c56:	0e 94 a9 03 	call	0x752	; 0x752 <p18fx5xx_setDP>
		for(int k = 0; k < f_psize; k+= 2)
    1c5a:	80 91 c8 02 	lds	r24, 0x02C8	; 0x8002c8 <f_psize>
    1c5e:	90 91 c9 02 	lds	r25, 0x02C9	; 0x8002c9 <f_psize+0x1>
    1c62:	00 97       	sbiw	r24, 0x00	; 0
    1c64:	59 f1       	breq	.+86     	; 0x1cbc <p18fxxk80_progCode+0x11c>
    1c66:	cc 5d       	subi	r28, 0xDC	; 220
    1c68:	dd 4f       	sbci	r29, 0xFD	; 253
    1c6a:	ca 2c       	mov	r12, r10
    1c6c:	db 2c       	mov	r13, r11
		{
			if(k >= (f_psize - 2)) p18fx5xx_writeComm(P18FX5XX_START_PR, exchange[i + k + 4] | (exchange[i + k + 5] << 8));
    1c6e:	02 97       	sbiw	r24, 0x02	; 2
    1c70:	c8 16       	cp	r12, r24
    1c72:	d9 06       	cpc	r13, r25
    1c74:	58 f0       	brcs	.+22     	; 0x1c8c <p18fxxk80_progCode+0xec>
    1c76:	f7 01       	movw	r30, r14
    1c78:	60 81       	ld	r22, Z
    1c7a:	70 e0       	ldi	r23, 0x00	; 0
    1c7c:	76 2f       	mov	r23, r22
    1c7e:	66 27       	eor	r22, r22
    1c80:	88 81       	ld	r24, Y
    1c82:	68 2b       	or	r22, r24
    1c84:	8f e0       	ldi	r24, 0x0F	; 15
    1c86:	0e 94 57 02 	call	0x4ae	; 0x4ae <p18fx5xx_writeComm>
    1c8a:	0a c0       	rjmp	.+20     	; 0x1ca0 <p18fxxk80_progCode+0x100>
			else p18fx5xx_writeComm(P18FX5XX_TABLE_WRPI2, exchange[i + k + 4] | (exchange[i + k + 5] << 8));
    1c8c:	f7 01       	movw	r30, r14
    1c8e:	60 81       	ld	r22, Z
    1c90:	70 e0       	ldi	r23, 0x00	; 0
    1c92:	76 2f       	mov	r23, r22
    1c94:	66 27       	eor	r22, r22
    1c96:	88 81       	ld	r24, Y
    1c98:	68 2b       	or	r22, r24
    1c9a:	8d e0       	ldi	r24, 0x0D	; 13
    1c9c:	0e 94 57 02 	call	0x4ae	; 0x4ae <p18fx5xx_writeComm>
		m_a = (main_counter >> 8) & 0xFF;
		l_a = main_counter & 0xFF;


		p18fx5xx_setDP(h_a, m_a, l_a);
		for(int k = 0; k < f_psize; k+= 2)
    1ca0:	f2 e0       	ldi	r31, 0x02	; 2
    1ca2:	cf 0e       	add	r12, r31
    1ca4:	d1 1c       	adc	r13, r1
    1ca6:	80 91 c8 02 	lds	r24, 0x02C8	; 0x8002c8 <f_psize>
    1caa:	90 91 c9 02 	lds	r25, 0x02C9	; 0x8002c9 <f_psize+0x1>
    1cae:	22 96       	adiw	r28, 0x02	; 2
    1cb0:	22 e0       	ldi	r18, 0x02	; 2
    1cb2:	e2 0e       	add	r14, r18
    1cb4:	f1 1c       	adc	r15, r1
    1cb6:	c8 16       	cp	r12, r24
    1cb8:	d9 06       	cpc	r13, r25
    1cba:	c8 f2       	brcs	.-78     	; 0x1c6e <p18fxxk80_progCode+0xce>
		{
			if(k >= (f_psize - 2)) p18fx5xx_writeComm(P18FX5XX_START_PR, exchange[i + k + 4] | (exchange[i + k + 5] << 8));
			else p18fx5xx_writeComm(P18FX5XX_TABLE_WRPI2, exchange[i + k + 4] | (exchange[i + k + 5] << 8));
		}

		p18fx5xx_writeNop();
    1cbc:	0e 94 b4 02 	call	0x568	; 0x568 <p18fx5xx_writeNop>
		p18fx5xx_writeComm(P18FX5XX_CORE_INSTR, 0x0000);
    1cc0:	6a 2d       	mov	r22, r10
    1cc2:	7b 2d       	mov	r23, r11
    1cc4:	80 e0       	ldi	r24, 0x00	; 0
    1cc6:	0e 94 57 02 	call	0x4ae	; 0x4ae <p18fx5xx_writeComm>
		p18fx5xx_writeComm(P18FX5XX_CORE_INSTR, 0x0000);
    1cca:	6a 2d       	mov	r22, r10
    1ccc:	7b 2d       	mov	r23, r11
    1cce:	80 e0       	ldi	r24, 0x00	; 0
    1cd0:	0e 94 57 02 	call	0x4ae	; 0x4ae <p18fx5xx_writeComm>

		main_counter += f_psize;
    1cd4:	20 91 c8 02 	lds	r18, 0x02C8	; 0x8002c8 <f_psize>
    1cd8:	30 91 c9 02 	lds	r19, 0x02C9	; 0x8002c9 <f_psize+0x1>
    1cdc:	80 91 bc 02 	lds	r24, 0x02BC	; 0x8002bc <main_counter>
    1ce0:	90 91 bd 02 	lds	r25, 0x02BD	; 0x8002bd <main_counter+0x1>
    1ce4:	a0 91 be 02 	lds	r26, 0x02BE	; 0x8002be <main_counter+0x2>
    1ce8:	b0 91 bf 02 	lds	r27, 0x02BF	; 0x8002bf <main_counter+0x3>
    1cec:	82 0f       	add	r24, r18
    1cee:	93 1f       	adc	r25, r19
    1cf0:	a1 1d       	adc	r26, r1
    1cf2:	b1 1d       	adc	r27, r1
    1cf4:	80 93 bc 02 	sts	0x02BC, r24	; 0x8002bc <main_counter>
    1cf8:	90 93 bd 02 	sts	0x02BD, r25	; 0x8002bd <main_counter+0x1>
    1cfc:	a0 93 be 02 	sts	0x02BE, r26	; 0x8002be <main_counter+0x2>
    1d00:	b0 93 bf 02 	sts	0x02BF, r27	; 0x8002bf <main_counter+0x3>
		p16f7x_reset();
    1d04:	0e 94 d1 03 	call	0x7a2	; 0x7a2 <p16f7x_reset>
    1d08:	8f e3       	ldi	r24, 0x3F	; 63
    1d0a:	9f e1       	ldi	r25, 0x1F	; 31
    1d0c:	01 97       	sbiw	r24, 0x01	; 1
    1d0e:	f1 f7       	brne	.-4      	; 0x1d0c <p18fxxk80_progCode+0x16c>
    1d10:	00 c0       	rjmp	.+0      	; 0x1d12 <p18fxxk80_progCode+0x172>
    1d12:	00 00       	nop
{
	uint8_t h_a, m_a, l_a;
	uint16_t  tmp_a;
	int ff_val;

	for(int i = 0; i < 128; i+= f_psize)
    1d14:	80 91 c8 02 	lds	r24, 0x02C8	; 0x8002c8 <f_psize>
    1d18:	90 91 c9 02 	lds	r25, 0x02C9	; 0x8002c9 <f_psize+0x1>
    1d1c:	08 0f       	add	r16, r24
    1d1e:	19 1f       	adc	r17, r25
    1d20:	00 38       	cpi	r16, 0x80	; 128
    1d22:	11 05       	cpc	r17, r1
    1d24:	94 f4       	brge	.+36     	; 0x1d4a <p18fxxk80_progCode+0x1aa>
	{
		ff_val = 0;
		for(int k = 0; k < f_psize; k+= 2)
    1d26:	40 91 c8 02 	lds	r20, 0x02C8	; 0x8002c8 <f_psize>
    1d2a:	50 91 c9 02 	lds	r21, 0x02C9	; 0x8002c9 <f_psize+0x1>
    1d2e:	41 15       	cp	r20, r1
    1d30:	51 05       	cpc	r21, r1
    1d32:	09 f4       	brne	.+2      	; 0x1d36 <p18fxxk80_progCode+0x196>
    1d34:	56 cf       	rjmp	.-340    	; 0x1be2 <p18fxxk80_progCode+0x42>
    1d36:	e8 01       	movw	r28, r16
    1d38:	f8 01       	movw	r30, r16
    1d3a:	eb 5d       	subi	r30, 0xDB	; 219
    1d3c:	fd 4f       	sbci	r31, 0xFD	; 253
    1d3e:	7f 01       	movw	r14, r30
    1d40:	8a 2d       	mov	r24, r10
    1d42:	9b 2d       	mov	r25, r11
    1d44:	6a 2d       	mov	r22, r10
    1d46:	7b 2d       	mov	r23, r11
    1d48:	3a cf       	rjmp	.-396    	; 0x1bbe <p18fxxk80_progCode+0x1e>
		main_counter += f_psize;
		p16f7x_reset();

		_delay_ms(2);
	}
}
    1d4a:	df 91       	pop	r29
    1d4c:	cf 91       	pop	r28
    1d4e:	1f 91       	pop	r17
    1d50:	0f 91       	pop	r16
    1d52:	ff 90       	pop	r15
    1d54:	ef 90       	pop	r14
    1d56:	df 90       	pop	r13
    1d58:	cf 90       	pop	r12
    1d5a:	bf 90       	pop	r11
    1d5c:	af 90       	pop	r10
    1d5e:	08 95       	ret

00001d60 <p16f628a_progData>:


void p16f628a_progData(void)
{
    1d60:	0f 93       	push	r16
    1d62:	1f 93       	push	r17
    1d64:	cf 93       	push	r28
    1d66:	df 93       	push	r29
    1d68:	c4 e2       	ldi	r28, 0x24	; 36
    1d6a:	d2 e0       	ldi	r29, 0x02	; 2
    1d6c:	04 e6       	ldi	r16, 0x64	; 100
    1d6e:	12 e0       	ldi	r17, 0x02	; 2
	for(int i = 0; i < 64; i++)
	{
			if(exchange[i + 4] == 0xFF)
    1d70:	69 91       	ld	r22, Y+
    1d72:	6f 3f       	cpi	r22, 0xFF	; 255
    1d74:	39 f4       	brne	.+14     	; 0x1d84 <p16f628a_progData+0x24>
			{
				p16f7x_writeComm(P16F7X_INC_ADD, 0x0000, 1);
    1d76:	41 e0       	ldi	r20, 0x01	; 1
    1d78:	60 e0       	ldi	r22, 0x00	; 0
    1d7a:	70 e0       	ldi	r23, 0x00	; 0
    1d7c:	86 e0       	ldi	r24, 0x06	; 6
    1d7e:	0e 94 7c 01 	call	0x2f8	; 0x2f8 <p16f7x_writeComm>
				continue;
    1d82:	18 c0       	rjmp	.+48     	; 0x1db4 <p16f628a_progData+0x54>
			}
			else
			{
				p16f7x_writeComm(P16F628A_LOAD_DATA, exchange[i + 4], 0);
    1d84:	70 e0       	ldi	r23, 0x00	; 0
    1d86:	40 e0       	ldi	r20, 0x00	; 0
    1d88:	83 e0       	ldi	r24, 0x03	; 3
    1d8a:	0e 94 7c 01 	call	0x2f8	; 0x2f8 <p16f7x_writeComm>
				p16f7x_writeComm(P16F7X_BEGIN_PROG, 0x0000, 1);
    1d8e:	41 e0       	ldi	r20, 0x01	; 1
    1d90:	60 e0       	ldi	r22, 0x00	; 0
    1d92:	70 e0       	ldi	r23, 0x00	; 0
    1d94:	88 e0       	ldi	r24, 0x08	; 8
    1d96:	0e 94 7c 01 	call	0x2f8	; 0x2f8 <p16f7x_writeComm>
				delay_ms(wr_delay + 2);
    1d9a:	80 91 c4 02 	lds	r24, 0x02C4	; 0x8002c4 <wr_delay>
    1d9e:	90 91 c5 02 	lds	r25, 0x02C5	; 0x8002c5 <wr_delay+0x1>
    1da2:	02 96       	adiw	r24, 0x02	; 2
    1da4:	0e 94 14 01 	call	0x228	; 0x228 <delay_ms>
				p16f7x_writeComm(P16F7X_INC_ADD, 0x0000, 1);
    1da8:	41 e0       	ldi	r20, 0x01	; 1
    1daa:	60 e0       	ldi	r22, 0x00	; 0
    1dac:	70 e0       	ldi	r23, 0x00	; 0
    1dae:	86 e0       	ldi	r24, 0x06	; 6
    1db0:	0e 94 7c 01 	call	0x2f8	; 0x2f8 <p16f7x_writeComm>
}


void p16f628a_progData(void)
{
	for(int i = 0; i < 64; i++)
    1db4:	c0 17       	cp	r28, r16
    1db6:	d1 07       	cpc	r29, r17
    1db8:	d9 f6       	brne	.-74     	; 0x1d70 <p16f628a_progData+0x10>
				delay_ms(wr_delay + 2);
				p16f7x_writeComm(P16F7X_INC_ADD, 0x0000, 1);
			}

	}
}
    1dba:	df 91       	pop	r29
    1dbc:	cf 91       	pop	r28
    1dbe:	1f 91       	pop	r17
    1dc0:	0f 91       	pop	r16
    1dc2:	08 95       	ret

00001dc4 <p18fx5xx_progData>:


void p18fx5xx_progData(void)
{
    1dc4:	4f 92       	push	r4
    1dc6:	5f 92       	push	r5
    1dc8:	6f 92       	push	r6
    1dca:	7f 92       	push	r7
    1dcc:	8f 92       	push	r8
    1dce:	9f 92       	push	r9
    1dd0:	af 92       	push	r10
    1dd2:	bf 92       	push	r11
    1dd4:	ef 92       	push	r14
    1dd6:	ff 92       	push	r15
    1dd8:	0f 93       	push	r16
    1dda:	1f 93       	push	r17
    1ddc:	cf 93       	push	r28
	uint8_t a_h, a_l;

	p16f7x_progMode();
    1dde:	0e 94 32 01 	call	0x264	; 0x264 <p16f7x_progMode>

	p18fx5xx_writeComm(P18FX5XX_CORE_INSTR, 0x9EA6);
    1de2:	66 ea       	ldi	r22, 0xA6	; 166
    1de4:	7e e9       	ldi	r23, 0x9E	; 158
    1de6:	80 e0       	ldi	r24, 0x00	; 0
    1de8:	0e 94 57 02 	call	0x4ae	; 0x4ae <p18fx5xx_writeComm>
	p18fx5xx_writeComm(P18FX5XX_CORE_INSTR, 0x9CA6);
    1dec:	66 ea       	ldi	r22, 0xA6	; 166
    1dee:	7c e9       	ldi	r23, 0x9C	; 156
    1df0:	80 e0       	ldi	r24, 0x00	; 0
    1df2:	0e 94 57 02 	call	0x4ae	; 0x4ae <p18fx5xx_writeComm>
    1df6:	04 e2       	ldi	r16, 0x24	; 36
    1df8:	12 e0       	ldi	r17, 0x02	; 2
    1dfa:	0f 2e       	mov	r0, r31
    1dfc:	f4 e6       	ldi	r31, 0x64	; 100
    1dfe:	ef 2e       	mov	r14, r31
    1e00:	f2 e0       	ldi	r31, 0x02	; 2
    1e02:	ff 2e       	mov	r15, r31
    1e04:	f0 2d       	mov	r31, r0
    1e06:	81 2c       	mov	r8, r1
    1e08:	91 2c       	mov	r9, r1
    1e0a:	54 01       	movw	r10, r8

	for(int i = 0; i < 64; i ++)
	{
		if(exchange[i + 4] == 0xFF) continue;
    1e0c:	f8 01       	movw	r30, r16
    1e0e:	81 91       	ld	r24, Z+
    1e10:	8f 01       	movw	r16, r30
    1e12:	8f 3f       	cpi	r24, 0xFF	; 255
    1e14:	09 f4       	brne	.+2      	; 0x1e18 <p18fx5xx_progData+0x54>
    1e16:	60 c0       	rjmp	.+192    	; 0x1ed8 <p18fx5xx_progData+0x114>

		a_h = (main_counter + i) >> 8;
    1e18:	40 90 bc 02 	lds	r4, 0x02BC	; 0x8002bc <main_counter>
    1e1c:	50 90 bd 02 	lds	r5, 0x02BD	; 0x8002bd <main_counter+0x1>
    1e20:	60 90 be 02 	lds	r6, 0x02BE	; 0x8002be <main_counter+0x2>
    1e24:	70 90 bf 02 	lds	r7, 0x02BF	; 0x8002bf <main_counter+0x3>
		a_l = (main_counter + i) & 0xFF;
    1e28:	68 2d       	mov	r22, r8
    1e2a:	64 0d       	add	r22, r4
		p18fx5xx_writeComm(P18FX5XX_CORE_INSTR, (0x0E00 | a_l));
    1e2c:	70 e0       	ldi	r23, 0x00	; 0
    1e2e:	7e 60       	ori	r23, 0x0E	; 14
    1e30:	80 e0       	ldi	r24, 0x00	; 0
    1e32:	0e 94 57 02 	call	0x4ae	; 0x4ae <p18fx5xx_writeComm>
		p18fx5xx_writeComm(P18FX5XX_CORE_INSTR, 0x6EA9);
    1e36:	69 ea       	ldi	r22, 0xA9	; 169
    1e38:	7e e6       	ldi	r23, 0x6E	; 110
    1e3a:	80 e0       	ldi	r24, 0x00	; 0
    1e3c:	0e 94 57 02 	call	0x4ae	; 0x4ae <p18fx5xx_writeComm>

	for(int i = 0; i < 64; i ++)
	{
		if(exchange[i + 4] == 0xFF) continue;

		a_h = (main_counter + i) >> 8;
    1e40:	48 0c       	add	r4, r8
    1e42:	59 1c       	adc	r5, r9
    1e44:	6a 1c       	adc	r6, r10
    1e46:	7b 1c       	adc	r7, r11
		a_l = (main_counter + i) & 0xFF;
		p18fx5xx_writeComm(P18FX5XX_CORE_INSTR, (0x0E00 | a_l));
		p18fx5xx_writeComm(P18FX5XX_CORE_INSTR, 0x6EA9);
		p18fx5xx_writeComm(P18FX5XX_CORE_INSTR, (0x0E00 | a_h));
    1e48:	65 2d       	mov	r22, r5
    1e4a:	70 e0       	ldi	r23, 0x00	; 0
    1e4c:	7e 60       	ori	r23, 0x0E	; 14
    1e4e:	80 e0       	ldi	r24, 0x00	; 0
    1e50:	0e 94 57 02 	call	0x4ae	; 0x4ae <p18fx5xx_writeComm>
		p18fx5xx_writeComm(P18FX5XX_CORE_INSTR, 0x6EAA);
    1e54:	6a ea       	ldi	r22, 0xAA	; 170
    1e56:	7e e6       	ldi	r23, 0x6E	; 110
    1e58:	80 e0       	ldi	r24, 0x00	; 0
    1e5a:	0e 94 57 02 	call	0x4ae	; 0x4ae <p18fx5xx_writeComm>
    1e5e:	f8 01       	movw	r30, r16
    1e60:	31 97       	sbiw	r30, 0x01	; 1
		p18fx5xx_writeComm(P18FX5XX_CORE_INSTR, (0x0E00 | exchange[i + 4]));
    1e62:	60 81       	ld	r22, Z
    1e64:	70 e0       	ldi	r23, 0x00	; 0
    1e66:	7e 60       	ori	r23, 0x0E	; 14
    1e68:	80 e0       	ldi	r24, 0x00	; 0
    1e6a:	0e 94 57 02 	call	0x4ae	; 0x4ae <p18fx5xx_writeComm>
		p18fx5xx_writeComm(P18FX5XX_CORE_INSTR, 0x6EA8);
    1e6e:	68 ea       	ldi	r22, 0xA8	; 168
    1e70:	7e e6       	ldi	r23, 0x6E	; 110
    1e72:	80 e0       	ldi	r24, 0x00	; 0
    1e74:	0e 94 57 02 	call	0x4ae	; 0x4ae <p18fx5xx_writeComm>
		p18fx5xx_writeComm(P18FX5XX_CORE_INSTR, 0x84A6);
    1e78:	66 ea       	ldi	r22, 0xA6	; 166
    1e7a:	74 e8       	ldi	r23, 0x84	; 132
    1e7c:	80 e0       	ldi	r24, 0x00	; 0
    1e7e:	0e 94 57 02 	call	0x4ae	; 0x4ae <p18fx5xx_writeComm>
		p18fx5xx_writeComm(P18FX5XX_CORE_INSTR, 0x82A6);
    1e82:	66 ea       	ldi	r22, 0xA6	; 166
    1e84:	72 e8       	ldi	r23, 0x82	; 130
    1e86:	80 e0       	ldi	r24, 0x00	; 0
    1e88:	0e 94 57 02 	call	0x4ae	; 0x4ae <p18fx5xx_writeComm>
		do
		{
			p18fx5xx_writeComm(P18FX5XX_CORE_INSTR, 0x50A6);
    1e8c:	66 ea       	ldi	r22, 0xA6	; 166
    1e8e:	70 e5       	ldi	r23, 0x50	; 80
    1e90:	80 e0       	ldi	r24, 0x00	; 0
    1e92:	0e 94 57 02 	call	0x4ae	; 0x4ae <p18fx5xx_writeComm>
			p18fx5xx_writeComm(P18FX5XX_CORE_INSTR, 0x6EF5);
    1e96:	65 ef       	ldi	r22, 0xF5	; 245
    1e98:	7e e6       	ldi	r23, 0x6E	; 110
    1e9a:	80 e0       	ldi	r24, 0x00	; 0
    1e9c:	0e 94 57 02 	call	0x4ae	; 0x4ae <p18fx5xx_writeComm>
			p18fx5xx_writeComm(P18FX5XX_CORE_INSTR, 0x0000);
    1ea0:	60 e0       	ldi	r22, 0x00	; 0
    1ea2:	70 e0       	ldi	r23, 0x00	; 0
    1ea4:	80 e0       	ldi	r24, 0x00	; 0
    1ea6:	0e 94 57 02 	call	0x4ae	; 0x4ae <p18fx5xx_writeComm>
			a_l = p18fx5xx_readComm(P18FX5XX_SHIFT_TABL, 0x00);
    1eaa:	60 e0       	ldi	r22, 0x00	; 0
    1eac:	82 e0       	ldi	r24, 0x02	; 2
    1eae:	0e 94 29 03 	call	0x652	; 0x652 <p18fx5xx_readComm>
    1eb2:	c8 2f       	mov	r28, r24
			a_h = p18fx5xx_readComm(P18FX5XX_SHIFT_TABL, 0x00);
    1eb4:	60 e0       	ldi	r22, 0x00	; 0
    1eb6:	82 e0       	ldi	r24, 0x02	; 2
    1eb8:	0e 94 29 03 	call	0x652	; 0x652 <p18fx5xx_readComm>
		}
		while(!(a_h | a_l));
    1ebc:	8c 2b       	or	r24, r28
    1ebe:	31 f3       	breq	.-52     	; 0x1e8c <p18fx5xx_progData+0xc8>
		PGC_LOW
    1ec0:	2d 98       	cbi	0x05, 5	; 5
    1ec2:	8f e1       	ldi	r24, 0x1F	; 31
    1ec4:	9e e4       	ldi	r25, 0x4E	; 78
    1ec6:	01 97       	sbiw	r24, 0x01	; 1
    1ec8:	f1 f7       	brne	.-4      	; 0x1ec6 <p18fx5xx_progData+0x102>
    1eca:	00 c0       	rjmp	.+0      	; 0x1ecc <p18fx5xx_progData+0x108>
    1ecc:	00 00       	nop
		_delay_ms(5);
		p18fx5xx_writeComm(P18FX5XX_CORE_INSTR, 0x94A6);
    1ece:	66 ea       	ldi	r22, 0xA6	; 166
    1ed0:	74 e9       	ldi	r23, 0x94	; 148
    1ed2:	80 e0       	ldi	r24, 0x00	; 0
    1ed4:	0e 94 57 02 	call	0x4ae	; 0x4ae <p18fx5xx_writeComm>
    1ed8:	9f ef       	ldi	r25, 0xFF	; 255
    1eda:	89 1a       	sub	r8, r25
    1edc:	99 0a       	sbc	r9, r25
    1ede:	a9 0a       	sbc	r10, r25
    1ee0:	b9 0a       	sbc	r11, r25
	p16f7x_progMode();

	p18fx5xx_writeComm(P18FX5XX_CORE_INSTR, 0x9EA6);
	p18fx5xx_writeComm(P18FX5XX_CORE_INSTR, 0x9CA6);

	for(int i = 0; i < 64; i ++)
    1ee2:	0e 15       	cp	r16, r14
    1ee4:	1f 05       	cpc	r17, r15
    1ee6:	09 f0       	breq	.+2      	; 0x1eea <p18fx5xx_progData+0x126>
    1ee8:	91 cf       	rjmp	.-222    	; 0x1e0c <p18fx5xx_progData+0x48>
		while(!(a_h | a_l));
		PGC_LOW
		_delay_ms(5);
		p18fx5xx_writeComm(P18FX5XX_CORE_INSTR, 0x94A6);
	}
	main_counter += 64;
    1eea:	80 91 bc 02 	lds	r24, 0x02BC	; 0x8002bc <main_counter>
    1eee:	90 91 bd 02 	lds	r25, 0x02BD	; 0x8002bd <main_counter+0x1>
    1ef2:	a0 91 be 02 	lds	r26, 0x02BE	; 0x8002be <main_counter+0x2>
    1ef6:	b0 91 bf 02 	lds	r27, 0x02BF	; 0x8002bf <main_counter+0x3>
    1efa:	80 5c       	subi	r24, 0xC0	; 192
    1efc:	9f 4f       	sbci	r25, 0xFF	; 255
    1efe:	af 4f       	sbci	r26, 0xFF	; 255
    1f00:	bf 4f       	sbci	r27, 0xFF	; 255
    1f02:	80 93 bc 02 	sts	0x02BC, r24	; 0x8002bc <main_counter>
    1f06:	90 93 bd 02 	sts	0x02BD, r25	; 0x8002bd <main_counter+0x1>
    1f0a:	a0 93 be 02 	sts	0x02BE, r26	; 0x8002be <main_counter+0x2>
    1f0e:	b0 93 bf 02 	sts	0x02BF, r27	; 0x8002bf <main_counter+0x3>
	p16f7x_reset();
    1f12:	0e 94 d1 03 	call	0x7a2	; 0x7a2 <p16f7x_reset>
}
    1f16:	cf 91       	pop	r28
    1f18:	1f 91       	pop	r17
    1f1a:	0f 91       	pop	r16
    1f1c:	ff 90       	pop	r15
    1f1e:	ef 90       	pop	r14
    1f20:	bf 90       	pop	r11
    1f22:	af 90       	pop	r10
    1f24:	9f 90       	pop	r9
    1f26:	8f 90       	pop	r8
    1f28:	7f 90       	pop	r7
    1f2a:	6f 90       	pop	r6
    1f2c:	5f 90       	pop	r5
    1f2e:	4f 90       	pop	r4
    1f30:	08 95       	ret

00001f32 <p18fxxk80_progData>:

void p18fxxk80_progData(void)
{
    1f32:	4f 92       	push	r4
    1f34:	5f 92       	push	r5
    1f36:	6f 92       	push	r6
    1f38:	7f 92       	push	r7
    1f3a:	8f 92       	push	r8
    1f3c:	9f 92       	push	r9
    1f3e:	af 92       	push	r10
    1f40:	bf 92       	push	r11
    1f42:	ef 92       	push	r14
    1f44:	ff 92       	push	r15
    1f46:	0f 93       	push	r16
    1f48:	1f 93       	push	r17
    1f4a:	cf 93       	push	r28
	uint8_t a_h, a_l;

	p16f7x_progMode();
    1f4c:	0e 94 32 01 	call	0x264	; 0x264 <p16f7x_progMode>
	p18fxxk80_password(0x4D43, 0x4850);
    1f50:	60 e5       	ldi	r22, 0x50	; 80
    1f52:	78 e4       	ldi	r23, 0x48	; 72
    1f54:	83 e4       	ldi	r24, 0x43	; 67
    1f56:	9d e4       	ldi	r25, 0x4D	; 77
    1f58:	0e 94 dd 02 	call	0x5ba	; 0x5ba <p18fxxk80_password>

	p18fx5xx_writeComm(P18FX5XX_CORE_INSTR, 0x9E7F);
    1f5c:	6f e7       	ldi	r22, 0x7F	; 127
    1f5e:	7e e9       	ldi	r23, 0x9E	; 158
    1f60:	80 e0       	ldi	r24, 0x00	; 0
    1f62:	0e 94 57 02 	call	0x4ae	; 0x4ae <p18fx5xx_writeComm>
	p18fx5xx_writeComm(P18FX5XX_CORE_INSTR, 0x9C7F);
    1f66:	6f e7       	ldi	r22, 0x7F	; 127
    1f68:	7c e9       	ldi	r23, 0x9C	; 156
    1f6a:	80 e0       	ldi	r24, 0x00	; 0
    1f6c:	0e 94 57 02 	call	0x4ae	; 0x4ae <p18fx5xx_writeComm>
    1f70:	04 e2       	ldi	r16, 0x24	; 36
    1f72:	12 e0       	ldi	r17, 0x02	; 2
    1f74:	0f 2e       	mov	r0, r31
    1f76:	f4 e6       	ldi	r31, 0x64	; 100
    1f78:	ef 2e       	mov	r14, r31
    1f7a:	f2 e0       	ldi	r31, 0x02	; 2
    1f7c:	ff 2e       	mov	r15, r31
    1f7e:	f0 2d       	mov	r31, r0
    1f80:	81 2c       	mov	r8, r1
    1f82:	91 2c       	mov	r9, r1
    1f84:	54 01       	movw	r10, r8

	for(int i = 0; i < 64; i ++)
	{
		if(exchange[i + 4] == 0xFF) continue;
    1f86:	f8 01       	movw	r30, r16
    1f88:	81 91       	ld	r24, Z+
    1f8a:	8f 01       	movw	r16, r30
    1f8c:	8f 3f       	cpi	r24, 0xFF	; 255
    1f8e:	09 f4       	brne	.+2      	; 0x1f92 <p18fxxk80_progData+0x60>
    1f90:	60 c0       	rjmp	.+192    	; 0x2052 <p18fxxk80_progData+0x120>

		a_h = (main_counter + i) >> 8;
    1f92:	40 90 bc 02 	lds	r4, 0x02BC	; 0x8002bc <main_counter>
    1f96:	50 90 bd 02 	lds	r5, 0x02BD	; 0x8002bd <main_counter+0x1>
    1f9a:	60 90 be 02 	lds	r6, 0x02BE	; 0x8002be <main_counter+0x2>
    1f9e:	70 90 bf 02 	lds	r7, 0x02BF	; 0x8002bf <main_counter+0x3>
		a_l = (main_counter + i) & 0xFF;
    1fa2:	68 2d       	mov	r22, r8
    1fa4:	64 0d       	add	r22, r4
		p18fx5xx_writeComm(P18FX5XX_CORE_INSTR, (0x0E00 | a_l));
    1fa6:	70 e0       	ldi	r23, 0x00	; 0
    1fa8:	7e 60       	ori	r23, 0x0E	; 14
    1faa:	80 e0       	ldi	r24, 0x00	; 0
    1fac:	0e 94 57 02 	call	0x4ae	; 0x4ae <p18fx5xx_writeComm>
		p18fx5xx_writeComm(P18FX5XX_CORE_INSTR, 0x6E74);
    1fb0:	64 e7       	ldi	r22, 0x74	; 116
    1fb2:	7e e6       	ldi	r23, 0x6E	; 110
    1fb4:	80 e0       	ldi	r24, 0x00	; 0
    1fb6:	0e 94 57 02 	call	0x4ae	; 0x4ae <p18fx5xx_writeComm>

	for(int i = 0; i < 64; i ++)
	{
		if(exchange[i + 4] == 0xFF) continue;

		a_h = (main_counter + i) >> 8;
    1fba:	48 0c       	add	r4, r8
    1fbc:	59 1c       	adc	r5, r9
    1fbe:	6a 1c       	adc	r6, r10
    1fc0:	7b 1c       	adc	r7, r11
		a_l = (main_counter + i) & 0xFF;
		p18fx5xx_writeComm(P18FX5XX_CORE_INSTR, (0x0E00 | a_l));
		p18fx5xx_writeComm(P18FX5XX_CORE_INSTR, 0x6E74);
		p18fx5xx_writeComm(P18FX5XX_CORE_INSTR, (0x0E00 | a_h));
    1fc2:	65 2d       	mov	r22, r5
    1fc4:	70 e0       	ldi	r23, 0x00	; 0
    1fc6:	7e 60       	ori	r23, 0x0E	; 14
    1fc8:	80 e0       	ldi	r24, 0x00	; 0
    1fca:	0e 94 57 02 	call	0x4ae	; 0x4ae <p18fx5xx_writeComm>
		p18fx5xx_writeComm(P18FX5XX_CORE_INSTR, 0x6E75);
    1fce:	65 e7       	ldi	r22, 0x75	; 117
    1fd0:	7e e6       	ldi	r23, 0x6E	; 110
    1fd2:	80 e0       	ldi	r24, 0x00	; 0
    1fd4:	0e 94 57 02 	call	0x4ae	; 0x4ae <p18fx5xx_writeComm>
    1fd8:	f8 01       	movw	r30, r16
    1fda:	31 97       	sbiw	r30, 0x01	; 1
		p18fx5xx_writeComm(P18FX5XX_CORE_INSTR, (0x0E00 | exchange[i + 4]));
    1fdc:	60 81       	ld	r22, Z
    1fde:	70 e0       	ldi	r23, 0x00	; 0
    1fe0:	7e 60       	ori	r23, 0x0E	; 14
    1fe2:	80 e0       	ldi	r24, 0x00	; 0
    1fe4:	0e 94 57 02 	call	0x4ae	; 0x4ae <p18fx5xx_writeComm>
		p18fx5xx_writeComm(P18FX5XX_CORE_INSTR, 0x6E73);
    1fe8:	63 e7       	ldi	r22, 0x73	; 115
    1fea:	7e e6       	ldi	r23, 0x6E	; 110
    1fec:	80 e0       	ldi	r24, 0x00	; 0
    1fee:	0e 94 57 02 	call	0x4ae	; 0x4ae <p18fx5xx_writeComm>
		p18fx5xx_writeComm(P18FX5XX_CORE_INSTR, 0x847F);
    1ff2:	6f e7       	ldi	r22, 0x7F	; 127
    1ff4:	74 e8       	ldi	r23, 0x84	; 132
    1ff6:	80 e0       	ldi	r24, 0x00	; 0
    1ff8:	0e 94 57 02 	call	0x4ae	; 0x4ae <p18fx5xx_writeComm>
		p18fx5xx_writeComm(P18FX5XX_CORE_INSTR, 0x827F);
    1ffc:	6f e7       	ldi	r22, 0x7F	; 127
    1ffe:	72 e8       	ldi	r23, 0x82	; 130
    2000:	80 e0       	ldi	r24, 0x00	; 0
    2002:	0e 94 57 02 	call	0x4ae	; 0x4ae <p18fx5xx_writeComm>
		do
		{
			p18fx5xx_writeComm(P18FX5XX_CORE_INSTR, 0x507F);
    2006:	6f e7       	ldi	r22, 0x7F	; 127
    2008:	70 e5       	ldi	r23, 0x50	; 80
    200a:	80 e0       	ldi	r24, 0x00	; 0
    200c:	0e 94 57 02 	call	0x4ae	; 0x4ae <p18fx5xx_writeComm>
			p18fx5xx_writeComm(P18FX5XX_CORE_INSTR, 0x6EF5);
    2010:	65 ef       	ldi	r22, 0xF5	; 245
    2012:	7e e6       	ldi	r23, 0x6E	; 110
    2014:	80 e0       	ldi	r24, 0x00	; 0
    2016:	0e 94 57 02 	call	0x4ae	; 0x4ae <p18fx5xx_writeComm>
			p18fx5xx_writeComm(P18FX5XX_CORE_INSTR, 0x0000);
    201a:	60 e0       	ldi	r22, 0x00	; 0
    201c:	70 e0       	ldi	r23, 0x00	; 0
    201e:	80 e0       	ldi	r24, 0x00	; 0
    2020:	0e 94 57 02 	call	0x4ae	; 0x4ae <p18fx5xx_writeComm>
			a_l = p18fx5xx_readComm(P18FX5XX_SHIFT_TABL, 0x00);
    2024:	60 e0       	ldi	r22, 0x00	; 0
    2026:	82 e0       	ldi	r24, 0x02	; 2
    2028:	0e 94 29 03 	call	0x652	; 0x652 <p18fx5xx_readComm>
    202c:	c8 2f       	mov	r28, r24
			a_h = p18fx5xx_readComm(P18FX5XX_SHIFT_TABL, 0x00);
    202e:	60 e0       	ldi	r22, 0x00	; 0
    2030:	82 e0       	ldi	r24, 0x02	; 2
    2032:	0e 94 29 03 	call	0x652	; 0x652 <p18fx5xx_readComm>
		}
		while(!(a_h | a_l));
    2036:	8c 2b       	or	r24, r28
    2038:	31 f3       	breq	.-52     	; 0x2006 <p18fxxk80_progData+0xd4>
		PGC_LOW
    203a:	2d 98       	cbi	0x05, 5	; 5
    203c:	8f e1       	ldi	r24, 0x1F	; 31
    203e:	9e e4       	ldi	r25, 0x4E	; 78
    2040:	01 97       	sbiw	r24, 0x01	; 1
    2042:	f1 f7       	brne	.-4      	; 0x2040 <p18fxxk80_progData+0x10e>
    2044:	00 c0       	rjmp	.+0      	; 0x2046 <p18fxxk80_progData+0x114>
    2046:	00 00       	nop
		_delay_ms(5);
		p18fx5xx_writeComm(P18FX5XX_CORE_INSTR, 0x947F);
    2048:	6f e7       	ldi	r22, 0x7F	; 127
    204a:	74 e9       	ldi	r23, 0x94	; 148
    204c:	80 e0       	ldi	r24, 0x00	; 0
    204e:	0e 94 57 02 	call	0x4ae	; 0x4ae <p18fx5xx_writeComm>
    2052:	9f ef       	ldi	r25, 0xFF	; 255
    2054:	89 1a       	sub	r8, r25
    2056:	99 0a       	sbc	r9, r25
    2058:	a9 0a       	sbc	r10, r25
    205a:	b9 0a       	sbc	r11, r25
	p18fxxk80_password(0x4D43, 0x4850);

	p18fx5xx_writeComm(P18FX5XX_CORE_INSTR, 0x9E7F);
	p18fx5xx_writeComm(P18FX5XX_CORE_INSTR, 0x9C7F);

	for(int i = 0; i < 64; i ++)
    205c:	0e 15       	cp	r16, r14
    205e:	1f 05       	cpc	r17, r15
    2060:	09 f0       	breq	.+2      	; 0x2064 <p18fxxk80_progData+0x132>
    2062:	91 cf       	rjmp	.-222    	; 0x1f86 <p18fxxk80_progData+0x54>
		while(!(a_h | a_l));
		PGC_LOW
		_delay_ms(5);
		p18fx5xx_writeComm(P18FX5XX_CORE_INSTR, 0x947F);
	}
	main_counter += 64;
    2064:	80 91 bc 02 	lds	r24, 0x02BC	; 0x8002bc <main_counter>
    2068:	90 91 bd 02 	lds	r25, 0x02BD	; 0x8002bd <main_counter+0x1>
    206c:	a0 91 be 02 	lds	r26, 0x02BE	; 0x8002be <main_counter+0x2>
    2070:	b0 91 bf 02 	lds	r27, 0x02BF	; 0x8002bf <main_counter+0x3>
    2074:	80 5c       	subi	r24, 0xC0	; 192
    2076:	9f 4f       	sbci	r25, 0xFF	; 255
    2078:	af 4f       	sbci	r26, 0xFF	; 255
    207a:	bf 4f       	sbci	r27, 0xFF	; 255
    207c:	80 93 bc 02 	sts	0x02BC, r24	; 0x8002bc <main_counter>
    2080:	90 93 bd 02 	sts	0x02BD, r25	; 0x8002bd <main_counter+0x1>
    2084:	a0 93 be 02 	sts	0x02BE, r26	; 0x8002be <main_counter+0x2>
    2088:	b0 93 bf 02 	sts	0x02BF, r27	; 0x8002bf <main_counter+0x3>
	p16f7x_reset();
    208c:	0e 94 d1 03 	call	0x7a2	; 0x7a2 <p16f7x_reset>
}
    2090:	cf 91       	pop	r28
    2092:	1f 91       	pop	r17
    2094:	0f 91       	pop	r16
    2096:	ff 90       	pop	r15
    2098:	ef 90       	pop	r14
    209a:	bf 90       	pop	r11
    209c:	af 90       	pop	r10
    209e:	9f 90       	pop	r9
    20a0:	8f 90       	pop	r8
    20a2:	7f 90       	pop	r7
    20a4:	6f 90       	pop	r6
    20a6:	5f 90       	pop	r5
    20a8:	4f 90       	pop	r4
    20aa:	08 95       	ret

000020ac <p16f676_readOscall>:

void p16f676_readOscall(void)
{
    20ac:	cf 93       	push	r28
    20ae:	df 93       	push	r29
	uint16_t osc;
	p16f628A_progMode();
    20b0:	0e 94 4c 01 	call	0x298	; 0x298 <p16f628A_progMode>
    20b4:	cf ef       	ldi	r28, 0xFF	; 255
    20b6:	d3 e0       	ldi	r29, 0x03	; 3

	for(int i = 0; i < 0x3FF; i++) p16f7x_writeComm(P16F7X_INC_ADD, 0x0000, 1);
    20b8:	41 e0       	ldi	r20, 0x01	; 1
    20ba:	60 e0       	ldi	r22, 0x00	; 0
    20bc:	70 e0       	ldi	r23, 0x00	; 0
    20be:	86 e0       	ldi	r24, 0x06	; 6
    20c0:	0e 94 7c 01 	call	0x2f8	; 0x2f8 <p16f7x_writeComm>
    20c4:	21 97       	sbiw	r28, 0x01	; 1
    20c6:	c1 f7       	brne	.-16     	; 0x20b8 <p16f676_readOscall+0xc>
	osc = p16f7x_readComm(P16F7X_READ_DATA);
    20c8:	84 e0       	ldi	r24, 0x04	; 4
    20ca:	0e 94 e5 01 	call	0x3ca	; 0x3ca <p16f7x_readComm>
    20ce:	c8 2f       	mov	r28, r24
    20d0:	d9 2f       	mov	r29, r25
	p16f7x_reset();
    20d2:	0e 94 d1 03 	call	0x7a2	; 0x7a2 <p16f7x_reset>

	main_buff[0] = 0xFE;
    20d6:	e0 e2       	ldi	r30, 0x20	; 32
    20d8:	f1 e0       	ldi	r31, 0x01	; 1
    20da:	8e ef       	ldi	r24, 0xFE	; 254
    20dc:	80 83       	st	Z, r24
	main_buff[1] = 0x02;
    20de:	82 e0       	ldi	r24, 0x02	; 2
    20e0:	81 83       	std	Z+1, r24	; 0x01
	main_buff[2] = 0xAB;
    20e2:	8b ea       	ldi	r24, 0xAB	; 171
    20e4:	82 83       	std	Z+2, r24	; 0x02
	main_buff[3] = (osc >> 8);
    20e6:	d3 83       	std	Z+3, r29	; 0x03
	main_buff[4] = (osc & 0xFF);
    20e8:	c4 83       	std	Z+4, r28	; 0x04
	send_frame(main_buff, 5);
    20ea:	65 e0       	ldi	r22, 0x05	; 5
    20ec:	cf 01       	movw	r24, r30
    20ee:	0e 94 cd 12 	call	0x259a	; 0x259a <send_frame>
}
    20f2:	df 91       	pop	r29
    20f4:	cf 91       	pop	r28
    20f6:	08 95       	ret

000020f8 <p12f1840_readOscall>:

void p12f1840_readOscall(void)
{
    20f8:	cf 93       	push	r28
    20fa:	df 93       	push	r29
	p16f7x_progMode();
    20fc:	0e 94 32 01 	call	0x264	; 0x264 <p16f7x_progMode>

	p16f7x_writeComm(P16F7X_LOAD_CONF, 0x0000, 0);
    2100:	40 e0       	ldi	r20, 0x00	; 0
    2102:	60 e0       	ldi	r22, 0x00	; 0
    2104:	70 e0       	ldi	r23, 0x00	; 0
    2106:	80 e0       	ldi	r24, 0x00	; 0
    2108:	0e 94 7c 01 	call	0x2f8	; 0x2f8 <p16f7x_writeComm>
	for(int i = 0; i < osc_start; i++) p16f7x_writeComm(P16F7X_INC_ADD, 0x0000, 1);
    210c:	80 91 cb 02 	lds	r24, 0x02CB	; 0x8002cb <osc_start>
    2110:	88 23       	and	r24, r24
    2112:	79 f0       	breq	.+30     	; 0x2132 <p12f1840_readOscall+0x3a>
    2114:	c0 e0       	ldi	r28, 0x00	; 0
    2116:	d0 e0       	ldi	r29, 0x00	; 0
    2118:	41 e0       	ldi	r20, 0x01	; 1
    211a:	60 e0       	ldi	r22, 0x00	; 0
    211c:	70 e0       	ldi	r23, 0x00	; 0
    211e:	86 e0       	ldi	r24, 0x06	; 6
    2120:	0e 94 7c 01 	call	0x2f8	; 0x2f8 <p16f7x_writeComm>
    2124:	21 96       	adiw	r28, 0x01	; 1
    2126:	80 91 cb 02 	lds	r24, 0x02CB	; 0x8002cb <osc_start>
    212a:	90 e0       	ldi	r25, 0x00	; 0
    212c:	c8 17       	cp	r28, r24
    212e:	d9 07       	cpc	r29, r25
    2130:	9c f3       	brlt	.-26     	; 0x2118 <p12f1840_readOscall+0x20>
	oscal1 = p16f7x_readComm(P16F7X_READ_DATA);
    2132:	84 e0       	ldi	r24, 0x04	; 4
    2134:	0e 94 e5 01 	call	0x3ca	; 0x3ca <p16f7x_readComm>
    2138:	90 93 b9 02 	sts	0x02B9, r25	; 0x8002b9 <oscal1+0x1>
    213c:	80 93 b8 02 	sts	0x02B8, r24	; 0x8002b8 <oscal1>
	p16f7x_writeComm(P16F7X_INC_ADD, 0x0000, 1);
    2140:	41 e0       	ldi	r20, 0x01	; 1
    2142:	60 e0       	ldi	r22, 0x00	; 0
    2144:	70 e0       	ldi	r23, 0x00	; 0
    2146:	86 e0       	ldi	r24, 0x06	; 6
    2148:	0e 94 7c 01 	call	0x2f8	; 0x2f8 <p16f7x_writeComm>
	oscal2 = p16f7x_readComm(P16F7X_READ_DATA);
    214c:	84 e0       	ldi	r24, 0x04	; 4
    214e:	0e 94 e5 01 	call	0x3ca	; 0x3ca <p16f7x_readComm>
    2152:	90 93 b7 02 	sts	0x02B7, r25	; 0x8002b7 <oscal2+0x1>
    2156:	80 93 b6 02 	sts	0x02B6, r24	; 0x8002b6 <oscal2>
	p16f7x_writeComm(P16F7X_INC_ADD, 0x0000, 1);
    215a:	41 e0       	ldi	r20, 0x01	; 1
    215c:	60 e0       	ldi	r22, 0x00	; 0
    215e:	70 e0       	ldi	r23, 0x00	; 0
    2160:	86 e0       	ldi	r24, 0x06	; 6
    2162:	0e 94 7c 01 	call	0x2f8	; 0x2f8 <p16f7x_writeComm>
	oscal3 = p16f7x_readComm(P16F7X_READ_DATA);
    2166:	84 e0       	ldi	r24, 0x04	; 4
    2168:	0e 94 e5 01 	call	0x3ca	; 0x3ca <p16f7x_readComm>
    216c:	90 93 bb 02 	sts	0x02BB, r25	; 0x8002bb <oscal3+0x1>
    2170:	80 93 ba 02 	sts	0x02BA, r24	; 0x8002ba <oscal3>
	p16f7x_reset();
    2174:	0e 94 d1 03 	call	0x7a2	; 0x7a2 <p16f7x_reset>

	main_buff[0] = 0xFE;
    2178:	e0 e2       	ldi	r30, 0x20	; 32
    217a:	f1 e0       	ldi	r31, 0x01	; 1
    217c:	8e ef       	ldi	r24, 0xFE	; 254
    217e:	80 83       	st	Z, r24
	main_buff[1] = 0x06;
    2180:	86 e0       	ldi	r24, 0x06	; 6
    2182:	81 83       	std	Z+1, r24	; 0x01
	main_buff[2] = 0xAB;
    2184:	8b ea       	ldi	r24, 0xAB	; 171
    2186:	82 83       	std	Z+2, r24	; 0x02
	main_buff[3] = (oscal1 >> 8);
    2188:	80 91 b8 02 	lds	r24, 0x02B8	; 0x8002b8 <oscal1>
    218c:	90 91 b9 02 	lds	r25, 0x02B9	; 0x8002b9 <oscal1+0x1>
    2190:	93 83       	std	Z+3, r25	; 0x03
	main_buff[4] = (oscal1 & 0xFF);
    2192:	84 83       	std	Z+4, r24	; 0x04
	main_buff[5] = (oscal2 >> 8);
    2194:	80 91 b6 02 	lds	r24, 0x02B6	; 0x8002b6 <oscal2>
    2198:	90 91 b7 02 	lds	r25, 0x02B7	; 0x8002b7 <oscal2+0x1>
    219c:	95 83       	std	Z+5, r25	; 0x05
	main_buff[6] = (oscal2 & 0xFF);
    219e:	86 83       	std	Z+6, r24	; 0x06
	main_buff[7] = (oscal3 >> 8);
    21a0:	80 91 ba 02 	lds	r24, 0x02BA	; 0x8002ba <oscal3>
    21a4:	90 91 bb 02 	lds	r25, 0x02BB	; 0x8002bb <oscal3+0x1>
    21a8:	97 83       	std	Z+7, r25	; 0x07
	main_buff[8] = (oscal3 & 0xFF);
    21aa:	80 87       	std	Z+8, r24	; 0x08
	send_frame(main_buff, 9);
    21ac:	69 e0       	ldi	r22, 0x09	; 9
    21ae:	cf 01       	movw	r24, r30
    21b0:	0e 94 cd 12 	call	0x259a	; 0x259a <send_frame>
}
    21b4:	df 91       	pop	r29
    21b6:	cf 91       	pop	r28
    21b8:	08 95       	ret

000021ba <p16f676_writeOscall>:

void p16f676_writeOscall(void)
{
    21ba:	cf 93       	push	r28
    21bc:	df 93       	push	r29
	oscal1 = exchange[4] | (exchange[5] << 8);
    21be:	e0 e2       	ldi	r30, 0x20	; 32
    21c0:	f2 e0       	ldi	r31, 0x02	; 2
    21c2:	85 81       	ldd	r24, Z+5	; 0x05
    21c4:	90 e0       	ldi	r25, 0x00	; 0
    21c6:	98 2f       	mov	r25, r24
    21c8:	88 27       	eor	r24, r24
    21ca:	24 81       	ldd	r18, Z+4	; 0x04
    21cc:	82 2b       	or	r24, r18
    21ce:	90 93 b9 02 	sts	0x02B9, r25	; 0x8002b9 <oscal1+0x1>
    21d2:	80 93 b8 02 	sts	0x02B8, r24	; 0x8002b8 <oscal1>

	p16f628A_progMode();
    21d6:	0e 94 4c 01 	call	0x298	; 0x298 <p16f628A_progMode>
    21da:	cf ef       	ldi	r28, 0xFF	; 255
    21dc:	d3 e0       	ldi	r29, 0x03	; 3
	for(int i = 0; i < 0x3FF; i++) p16f7x_writeComm(P16F7X_INC_ADD, 0x0000, 1);
    21de:	41 e0       	ldi	r20, 0x01	; 1
    21e0:	60 e0       	ldi	r22, 0x00	; 0
    21e2:	70 e0       	ldi	r23, 0x00	; 0
    21e4:	86 e0       	ldi	r24, 0x06	; 6
    21e6:	0e 94 7c 01 	call	0x2f8	; 0x2f8 <p16f7x_writeComm>
    21ea:	21 97       	sbiw	r28, 0x01	; 1
    21ec:	c1 f7       	brne	.-16     	; 0x21de <p16f676_writeOscall+0x24>
	p16f7x_writeComm(P16F7X_LOAD_DATA, oscal1, 0);
    21ee:	60 91 b8 02 	lds	r22, 0x02B8	; 0x8002b8 <oscal1>
    21f2:	70 91 b9 02 	lds	r23, 0x02B9	; 0x8002b9 <oscal1+0x1>
    21f6:	40 e0       	ldi	r20, 0x00	; 0
    21f8:	82 e0       	ldi	r24, 0x02	; 2
    21fa:	0e 94 7c 01 	call	0x2f8	; 0x2f8 <p16f7x_writeComm>
	p16f7x_writeComm(P16F7X_BEGIN_PROG, 0x0000, 1);
    21fe:	41 e0       	ldi	r20, 0x01	; 1
    2200:	60 e0       	ldi	r22, 0x00	; 0
    2202:	70 e0       	ldi	r23, 0x00	; 0
    2204:	88 e0       	ldi	r24, 0x08	; 8
    2206:	0e 94 7c 01 	call	0x2f8	; 0x2f8 <p16f7x_writeComm>
    220a:	8f e1       	ldi	r24, 0x1F	; 31
    220c:	9e e4       	ldi	r25, 0x4E	; 78
    220e:	01 97       	sbiw	r24, 0x01	; 1
    2210:	f1 f7       	brne	.-4      	; 0x220e <p16f676_writeOscall+0x54>
    2212:	00 c0       	rjmp	.+0      	; 0x2214 <p16f676_writeOscall+0x5a>
    2214:	00 00       	nop
	_delay_ms(5);
	p16f7x_writeComm(0x0A, 0x0000, 1);
    2216:	41 e0       	ldi	r20, 0x01	; 1
    2218:	60 e0       	ldi	r22, 0x00	; 0
    221a:	70 e0       	ldi	r23, 0x00	; 0
    221c:	8a e0       	ldi	r24, 0x0A	; 10
    221e:	0e 94 7c 01 	call	0x2f8	; 0x2f8 <p16f7x_writeComm>
	p16f7x_reset();
    2222:	0e 94 d1 03 	call	0x7a2	; 0x7a2 <p16f7x_reset>
}
    2226:	df 91       	pop	r29
    2228:	cf 91       	pop	r28
    222a:	08 95       	ret

0000222c <p12f1840_writeOscall>:

void p12f1840_writeOscall(void)
{
    222c:	0f 93       	push	r16
    222e:	1f 93       	push	r17
    2230:	cf 93       	push	r28
    2232:	df 93       	push	r29
	p16f7x_progMode();
    2234:	0e 94 32 01 	call	0x264	; 0x264 <p16f7x_progMode>

	p16f7x_writeComm(P16F7X_LOAD_CONF, 0x0000, 0);
    2238:	40 e0       	ldi	r20, 0x00	; 0
    223a:	60 e0       	ldi	r22, 0x00	; 0
    223c:	70 e0       	ldi	r23, 0x00	; 0
    223e:	80 e0       	ldi	r24, 0x00	; 0
    2240:	0e 94 7c 01 	call	0x2f8	; 0x2f8 <p16f7x_writeComm>
	for(int i = 0; i < osc_start; i++) p16f7x_writeComm(P16F7X_INC_ADD, 0x0000, 1);
    2244:	80 91 cb 02 	lds	r24, 0x02CB	; 0x8002cb <osc_start>
    2248:	88 23       	and	r24, r24
    224a:	79 f0       	breq	.+30     	; 0x226a <p12f1840_writeOscall+0x3e>
    224c:	c0 e0       	ldi	r28, 0x00	; 0
    224e:	d0 e0       	ldi	r29, 0x00	; 0
    2250:	41 e0       	ldi	r20, 0x01	; 1
    2252:	60 e0       	ldi	r22, 0x00	; 0
    2254:	70 e0       	ldi	r23, 0x00	; 0
    2256:	86 e0       	ldi	r24, 0x06	; 6
    2258:	0e 94 7c 01 	call	0x2f8	; 0x2f8 <p16f7x_writeComm>
    225c:	21 96       	adiw	r28, 0x01	; 1
    225e:	80 91 cb 02 	lds	r24, 0x02CB	; 0x8002cb <osc_start>
    2262:	90 e0       	ldi	r25, 0x00	; 0
    2264:	c8 17       	cp	r28, r24
    2266:	d9 07       	cpc	r29, r25
    2268:	9c f3       	brlt	.-26     	; 0x2250 <p12f1840_writeOscall+0x24>

	for(int k = 0; k < osc_cnt; k++)
    226a:	80 91 ca 02 	lds	r24, 0x02CA	; 0x8002ca <osc_cnt>
    226e:	88 23       	and	r24, r24
    2270:	59 f1       	breq	.+86     	; 0x22c8 <p12f1840_writeOscall+0x9c>
    2272:	c5 e2       	ldi	r28, 0x25	; 37
    2274:	d2 e0       	ldi	r29, 0x02	; 2
    2276:	00 e0       	ldi	r16, 0x00	; 0
    2278:	10 e0       	ldi	r17, 0x00	; 0
	{
		p16f7x_writeComm(P16F7X_LOAD_DATA, (exchange[k*2 + 4] | (exchange[k*2 + 5] <<8)), 0);
    227a:	68 81       	ld	r22, Y
    227c:	70 e0       	ldi	r23, 0x00	; 0
    227e:	76 2f       	mov	r23, r22
    2280:	66 27       	eor	r22, r22
    2282:	fe 01       	movw	r30, r28
    2284:	31 97       	sbiw	r30, 0x01	; 1
    2286:	80 81       	ld	r24, Z
    2288:	68 2b       	or	r22, r24
    228a:	40 e0       	ldi	r20, 0x00	; 0
    228c:	82 e0       	ldi	r24, 0x02	; 2
    228e:	0e 94 7c 01 	call	0x2f8	; 0x2f8 <p16f7x_writeComm>
		p16f7x_writeComm(P16F7X_BEGIN_PROG, 0x0000, 1);
    2292:	41 e0       	ldi	r20, 0x01	; 1
    2294:	60 e0       	ldi	r22, 0x00	; 0
    2296:	70 e0       	ldi	r23, 0x00	; 0
    2298:	88 e0       	ldi	r24, 0x08	; 8
    229a:	0e 94 7c 01 	call	0x2f8	; 0x2f8 <p16f7x_writeComm>
    229e:	8f e1       	ldi	r24, 0x1F	; 31
    22a0:	9e e4       	ldi	r25, 0x4E	; 78
    22a2:	01 97       	sbiw	r24, 0x01	; 1
    22a4:	f1 f7       	brne	.-4      	; 0x22a2 <p12f1840_writeOscall+0x76>
    22a6:	00 c0       	rjmp	.+0      	; 0x22a8 <p12f1840_writeOscall+0x7c>
    22a8:	00 00       	nop
		_delay_ms(5);
		p16f7x_writeComm(P16F7X_INC_ADD, 0x0000, 1);
    22aa:	41 e0       	ldi	r20, 0x01	; 1
    22ac:	60 e0       	ldi	r22, 0x00	; 0
    22ae:	70 e0       	ldi	r23, 0x00	; 0
    22b0:	86 e0       	ldi	r24, 0x06	; 6
    22b2:	0e 94 7c 01 	call	0x2f8	; 0x2f8 <p16f7x_writeComm>
	p16f7x_progMode();

	p16f7x_writeComm(P16F7X_LOAD_CONF, 0x0000, 0);
	for(int i = 0; i < osc_start; i++) p16f7x_writeComm(P16F7X_INC_ADD, 0x0000, 1);

	for(int k = 0; k < osc_cnt; k++)
    22b6:	0f 5f       	subi	r16, 0xFF	; 255
    22b8:	1f 4f       	sbci	r17, 0xFF	; 255
    22ba:	22 96       	adiw	r28, 0x02	; 2
    22bc:	80 91 ca 02 	lds	r24, 0x02CA	; 0x8002ca <osc_cnt>
    22c0:	90 e0       	ldi	r25, 0x00	; 0
    22c2:	08 17       	cp	r16, r24
    22c4:	19 07       	cpc	r17, r25
    22c6:	cc f2       	brlt	.-78     	; 0x227a <p12f1840_writeOscall+0x4e>
		p16f7x_writeComm(P16F7X_LOAD_DATA, (exchange[k*2 + 4] | (exchange[k*2 + 5] <<8)), 0);
		p16f7x_writeComm(P16F7X_BEGIN_PROG, 0x0000, 1);
		_delay_ms(5);
		p16f7x_writeComm(P16F7X_INC_ADD, 0x0000, 1);
	}
	p16f7x_reset();
    22c8:	0e 94 d1 03 	call	0x7a2	; 0x7a2 <p16f7x_reset>
}
    22cc:	df 91       	pop	r29
    22ce:	cf 91       	pop	r28
    22d0:	1f 91       	pop	r17
    22d2:	0f 91       	pop	r16
    22d4:	08 95       	ret

000022d6 <p16f676_storeOsc>:

void p16f676_storeOsc(void)
{
    22d6:	cf 93       	push	r28
    22d8:	df 93       	push	r29
	p16f628A_progMode();
    22da:	0e 94 4c 01 	call	0x298	; 0x298 <p16f628A_progMode>
    22de:	cf ef       	ldi	r28, 0xFF	; 255
    22e0:	d3 e0       	ldi	r29, 0x03	; 3
	for(int i = 0; i < 0x3FF; i++) p16f7x_writeComm(P16F7X_INC_ADD, 0x0000, 1);
    22e2:	41 e0       	ldi	r20, 0x01	; 1
    22e4:	60 e0       	ldi	r22, 0x00	; 0
    22e6:	70 e0       	ldi	r23, 0x00	; 0
    22e8:	86 e0       	ldi	r24, 0x06	; 6
    22ea:	0e 94 7c 01 	call	0x2f8	; 0x2f8 <p16f7x_writeComm>
    22ee:	21 97       	sbiw	r28, 0x01	; 1
    22f0:	c1 f7       	brne	.-16     	; 0x22e2 <p16f676_storeOsc+0xc>
	oscal1 = p16f7x_readComm(P16F7X_READ_DATA);
    22f2:	84 e0       	ldi	r24, 0x04	; 4
    22f4:	0e 94 e5 01 	call	0x3ca	; 0x3ca <p16f7x_readComm>
    22f8:	90 93 b9 02 	sts	0x02B9, r25	; 0x8002b9 <oscal1+0x1>
    22fc:	80 93 b8 02 	sts	0x02B8, r24	; 0x8002b8 <oscal1>
	p16f7x_reset();
    2300:	0e 94 d1 03 	call	0x7a2	; 0x7a2 <p16f7x_reset>
    2304:	8f e1       	ldi	r24, 0x1F	; 31
    2306:	9e e4       	ldi	r25, 0x4E	; 78
    2308:	01 97       	sbiw	r24, 0x01	; 1
    230a:	f1 f7       	brne	.-4      	; 0x2308 <p16f676_storeOsc+0x32>
    230c:	00 c0       	rjmp	.+0      	; 0x230e <p16f676_storeOsc+0x38>
    230e:	00 00       	nop
	_delay_ms(5);

	p16f628A_progMode();
    2310:	0e 94 4c 01 	call	0x298	; 0x298 <p16f628A_progMode>
	p16f7x_writeComm(P16F7X_LOAD_CONF, 0x2000, 0);
    2314:	40 e0       	ldi	r20, 0x00	; 0
    2316:	60 e0       	ldi	r22, 0x00	; 0
    2318:	70 e2       	ldi	r23, 0x20	; 32
    231a:	80 e0       	ldi	r24, 0x00	; 0
    231c:	0e 94 7c 01 	call	0x2f8	; 0x2f8 <p16f7x_writeComm>
    2320:	c7 e0       	ldi	r28, 0x07	; 7
    2322:	d0 e0       	ldi	r29, 0x00	; 0
	for(int i = 0; i < 7; i++) p16f7x_writeComm(P16F7X_INC_ADD, 0x0000, 1);
    2324:	41 e0       	ldi	r20, 0x01	; 1
    2326:	60 e0       	ldi	r22, 0x00	; 0
    2328:	70 e0       	ldi	r23, 0x00	; 0
    232a:	86 e0       	ldi	r24, 0x06	; 6
    232c:	0e 94 7c 01 	call	0x2f8	; 0x2f8 <p16f7x_writeComm>
    2330:	21 97       	sbiw	r28, 0x01	; 1
    2332:	c1 f7       	brne	.-16     	; 0x2324 <p16f676_storeOsc+0x4e>
	oscal2 = p16f7x_readComm(P16F7X_READ_DATA);
    2334:	84 e0       	ldi	r24, 0x04	; 4
    2336:	0e 94 e5 01 	call	0x3ca	; 0x3ca <p16f7x_readComm>
    233a:	90 93 b7 02 	sts	0x02B7, r25	; 0x8002b7 <oscal2+0x1>
    233e:	80 93 b6 02 	sts	0x02B6, r24	; 0x8002b6 <oscal2>
	p16f7x_reset();
    2342:	0e 94 d1 03 	call	0x7a2	; 0x7a2 <p16f7x_reset>

	oscal2 &= 0x3000;
    2346:	80 91 b6 02 	lds	r24, 0x02B6	; 0x8002b6 <oscal2>
    234a:	90 91 b7 02 	lds	r25, 0x02B7	; 0x8002b7 <oscal2+0x1>
    234e:	88 27       	eor	r24, r24
    2350:	90 73       	andi	r25, 0x30	; 48
    2352:	90 93 b7 02 	sts	0x02B7, r25	; 0x8002b7 <oscal2+0x1>
    2356:	80 93 b6 02 	sts	0x02B6, r24	; 0x8002b6 <oscal2>
    235a:	8f e1       	ldi	r24, 0x1F	; 31
    235c:	9e e4       	ldi	r25, 0x4E	; 78
    235e:	01 97       	sbiw	r24, 0x01	; 1
    2360:	f1 f7       	brne	.-4      	; 0x235e <p16f676_storeOsc+0x88>
    2362:	00 c0       	rjmp	.+0      	; 0x2364 <p16f676_storeOsc+0x8e>
    2364:	00 00       	nop
	_delay_ms(5);
}
    2366:	df 91       	pop	r29
    2368:	cf 91       	pop	r28
    236a:	08 95       	ret

0000236c <p16f676_writeCfg>:
	_delay_ms(5);
	p16f7x_reset();
}

void p16f676_writeCfg(void)
{
    236c:	0f 93       	push	r16
    236e:	1f 93       	push	r17
    2370:	cf 93       	push	r28
    2372:	df 93       	push	r29
	uint16_t cfg = exchange[4] | (exchange[5] << 8);
    2374:	e0 e2       	ldi	r30, 0x20	; 32
    2376:	f2 e0       	ldi	r31, 0x02	; 2
    2378:	c5 81       	ldd	r28, Z+5	; 0x05
    237a:	d0 e0       	ldi	r29, 0x00	; 0
    237c:	dc 2f       	mov	r29, r28
    237e:	cc 27       	eor	r28, r28
    2380:	84 81       	ldd	r24, Z+4	; 0x04
    2382:	c8 2b       	or	r28, r24
	p16f676_storeOsc();
    2384:	0e 94 6b 11 	call	0x22d6	; 0x22d6 <p16f676_storeOsc>

	cfg &= 0x0FFF;
    2388:	df 70       	andi	r29, 0x0F	; 15
	cfg |= oscal2;
    238a:	00 91 b6 02 	lds	r16, 0x02B6	; 0x8002b6 <oscal2>
    238e:	10 91 b7 02 	lds	r17, 0x02B7	; 0x8002b7 <oscal2+0x1>
    2392:	0c 2b       	or	r16, r28
    2394:	1d 2b       	or	r17, r29

	p16f628A_progMode();
    2396:	0e 94 4c 01 	call	0x298	; 0x298 <p16f628A_progMode>
	p16f7x_writeComm(P16F7X_LOAD_CONF, 0x2000, 0);
    239a:	40 e0       	ldi	r20, 0x00	; 0
    239c:	60 e0       	ldi	r22, 0x00	; 0
    239e:	70 e2       	ldi	r23, 0x20	; 32
    23a0:	80 e0       	ldi	r24, 0x00	; 0
    23a2:	0e 94 7c 01 	call	0x2f8	; 0x2f8 <p16f7x_writeComm>
    23a6:	c7 e0       	ldi	r28, 0x07	; 7
    23a8:	d0 e0       	ldi	r29, 0x00	; 0
	for(int i = 0; i < 7; i++) p16f7x_writeComm(P16F7X_INC_ADD, 0x0000, 1);
    23aa:	41 e0       	ldi	r20, 0x01	; 1
    23ac:	60 e0       	ldi	r22, 0x00	; 0
    23ae:	70 e0       	ldi	r23, 0x00	; 0
    23b0:	86 e0       	ldi	r24, 0x06	; 6
    23b2:	0e 94 7c 01 	call	0x2f8	; 0x2f8 <p16f7x_writeComm>
    23b6:	21 97       	sbiw	r28, 0x01	; 1
    23b8:	c1 f7       	brne	.-16     	; 0x23aa <p16f676_writeCfg+0x3e>
	p16f7x_writeComm(P16F7X_LOAD_DATA, cfg, 0);
    23ba:	40 e0       	ldi	r20, 0x00	; 0
    23bc:	b8 01       	movw	r22, r16
    23be:	82 e0       	ldi	r24, 0x02	; 2
    23c0:	0e 94 7c 01 	call	0x2f8	; 0x2f8 <p16f7x_writeComm>
	p16f7x_writeComm(P16F7X_BEGIN_PROG, 0x0000, 1);
    23c4:	41 e0       	ldi	r20, 0x01	; 1
    23c6:	60 e0       	ldi	r22, 0x00	; 0
    23c8:	70 e0       	ldi	r23, 0x00	; 0
    23ca:	88 e0       	ldi	r24, 0x08	; 8
    23cc:	0e 94 7c 01 	call	0x2f8	; 0x2f8 <p16f7x_writeComm>
    23d0:	8f e1       	ldi	r24, 0x1F	; 31
    23d2:	9e e4       	ldi	r25, 0x4E	; 78
    23d4:	01 97       	sbiw	r24, 0x01	; 1
    23d6:	f1 f7       	brne	.-4      	; 0x23d4 <p16f676_writeCfg+0x68>
    23d8:	00 c0       	rjmp	.+0      	; 0x23da <p16f676_writeCfg+0x6e>
    23da:	00 00       	nop
	_delay_ms(5);
	p16f7x_writeComm(0x0A, 0x0000, 1);
    23dc:	41 e0       	ldi	r20, 0x01	; 1
    23de:	60 e0       	ldi	r22, 0x00	; 0
    23e0:	70 e0       	ldi	r23, 0x00	; 0
    23e2:	8a e0       	ldi	r24, 0x0A	; 10
    23e4:	0e 94 7c 01 	call	0x2f8	; 0x2f8 <p16f7x_writeComm>
	p16f7x_reset();
    23e8:	0e 94 d1 03 	call	0x7a2	; 0x7a2 <p16f7x_reset>
}
    23ec:	df 91       	pop	r29
    23ee:	cf 91       	pop	r28
    23f0:	1f 91       	pop	r17
    23f2:	0f 91       	pop	r16
    23f4:	08 95       	ret

000023f6 <p16f676_restoreOsc>:
	oscal2 &= 0x3000;
	_delay_ms(5);
}

void p16f676_restoreOsc(void)
{
    23f6:	cf 93       	push	r28
    23f8:	df 93       	push	r29
	p16f628A_progMode();
    23fa:	0e 94 4c 01 	call	0x298	; 0x298 <p16f628A_progMode>
	p16f7x_writeComm(P16F7X_LOAD_CONF, 0x2000, 0);
    23fe:	40 e0       	ldi	r20, 0x00	; 0
    2400:	60 e0       	ldi	r22, 0x00	; 0
    2402:	70 e2       	ldi	r23, 0x20	; 32
    2404:	80 e0       	ldi	r24, 0x00	; 0
    2406:	0e 94 7c 01 	call	0x2f8	; 0x2f8 <p16f7x_writeComm>
    240a:	c7 e0       	ldi	r28, 0x07	; 7
    240c:	d0 e0       	ldi	r29, 0x00	; 0
	for(int i = 0; i < 7; i++) p16f7x_writeComm(P16F7X_INC_ADD, 0x0000, 1);
    240e:	41 e0       	ldi	r20, 0x01	; 1
    2410:	60 e0       	ldi	r22, 0x00	; 0
    2412:	70 e0       	ldi	r23, 0x00	; 0
    2414:	86 e0       	ldi	r24, 0x06	; 6
    2416:	0e 94 7c 01 	call	0x2f8	; 0x2f8 <p16f7x_writeComm>
    241a:	21 97       	sbiw	r28, 0x01	; 1
    241c:	c1 f7       	brne	.-16     	; 0x240e <p16f676_restoreOsc+0x18>
	oscal3 = p16f7x_readComm(P16F7X_READ_DATA);
    241e:	84 e0       	ldi	r24, 0x04	; 4
    2420:	0e 94 e5 01 	call	0x3ca	; 0x3ca <p16f7x_readComm>
    2424:	90 93 bb 02 	sts	0x02BB, r25	; 0x8002bb <oscal3+0x1>
    2428:	80 93 ba 02 	sts	0x02BA, r24	; 0x8002ba <oscal3>
	p16f7x_reset();
    242c:	0e 94 d1 03 	call	0x7a2	; 0x7a2 <p16f7x_reset>

	oscal3 &= 0x0FFF;
    2430:	80 91 ba 02 	lds	r24, 0x02BA	; 0x8002ba <oscal3>
    2434:	90 91 bb 02 	lds	r25, 0x02BB	; 0x8002bb <oscal3+0x1>
    2438:	9c 01       	movw	r18, r24
    243a:	3f 70       	andi	r19, 0x0F	; 15
	oscal3 |= oscal2;
    243c:	80 91 b6 02 	lds	r24, 0x02B6	; 0x8002b6 <oscal2>
    2440:	90 91 b7 02 	lds	r25, 0x02B7	; 0x8002b7 <oscal2+0x1>
    2444:	82 2b       	or	r24, r18
    2446:	93 2b       	or	r25, r19
    2448:	90 93 bb 02 	sts	0x02BB, r25	; 0x8002bb <oscal3+0x1>
    244c:	80 93 ba 02 	sts	0x02BA, r24	; 0x8002ba <oscal3>

	p16f628A_progMode();
    2450:	0e 94 4c 01 	call	0x298	; 0x298 <p16f628A_progMode>
	p16f7x_writeComm(P16F7X_LOAD_CONF, 0x2000, 0);
    2454:	40 e0       	ldi	r20, 0x00	; 0
    2456:	60 e0       	ldi	r22, 0x00	; 0
    2458:	70 e2       	ldi	r23, 0x20	; 32
    245a:	80 e0       	ldi	r24, 0x00	; 0
    245c:	0e 94 7c 01 	call	0x2f8	; 0x2f8 <p16f7x_writeComm>
    2460:	c7 e0       	ldi	r28, 0x07	; 7
    2462:	d0 e0       	ldi	r29, 0x00	; 0
	for(int i = 0; i < 7; i++) p16f7x_writeComm(P16F7X_INC_ADD, 0x0000, 1);
    2464:	41 e0       	ldi	r20, 0x01	; 1
    2466:	60 e0       	ldi	r22, 0x00	; 0
    2468:	70 e0       	ldi	r23, 0x00	; 0
    246a:	86 e0       	ldi	r24, 0x06	; 6
    246c:	0e 94 7c 01 	call	0x2f8	; 0x2f8 <p16f7x_writeComm>
    2470:	21 97       	sbiw	r28, 0x01	; 1
    2472:	c1 f7       	brne	.-16     	; 0x2464 <p16f676_restoreOsc+0x6e>
	p16f7x_writeComm(P16F7X_LOAD_DATA, oscal3, 0);
    2474:	60 91 ba 02 	lds	r22, 0x02BA	; 0x8002ba <oscal3>
    2478:	70 91 bb 02 	lds	r23, 0x02BB	; 0x8002bb <oscal3+0x1>
    247c:	40 e0       	ldi	r20, 0x00	; 0
    247e:	82 e0       	ldi	r24, 0x02	; 2
    2480:	0e 94 7c 01 	call	0x2f8	; 0x2f8 <p16f7x_writeComm>
	p16f7x_writeComm(P16F7X_BEGIN_PROG, 0x0000, 1);
    2484:	41 e0       	ldi	r20, 0x01	; 1
    2486:	60 e0       	ldi	r22, 0x00	; 0
    2488:	70 e0       	ldi	r23, 0x00	; 0
    248a:	88 e0       	ldi	r24, 0x08	; 8
    248c:	0e 94 7c 01 	call	0x2f8	; 0x2f8 <p16f7x_writeComm>
    2490:	8f e1       	ldi	r24, 0x1F	; 31
    2492:	9e e4       	ldi	r25, 0x4E	; 78
    2494:	01 97       	sbiw	r24, 0x01	; 1
    2496:	f1 f7       	brne	.-4      	; 0x2494 <p16f676_restoreOsc+0x9e>
    2498:	00 c0       	rjmp	.+0      	; 0x249a <p16f676_restoreOsc+0xa4>
    249a:	00 00       	nop
	_delay_ms(5);
	p16f7x_writeComm(0x0A, 0x0000, 1);
    249c:	41 e0       	ldi	r20, 0x01	; 1
    249e:	60 e0       	ldi	r22, 0x00	; 0
    24a0:	70 e0       	ldi	r23, 0x00	; 0
    24a2:	8a e0       	ldi	r24, 0x0A	; 10
    24a4:	0e 94 7c 01 	call	0x2f8	; 0x2f8 <p16f7x_writeComm>
	p16f7x_reset();
    24a8:	0e 94 d1 03 	call	0x7a2	; 0x7a2 <p16f7x_reset>

	p16f628A_progMode();
    24ac:	0e 94 4c 01 	call	0x298	; 0x298 <p16f628A_progMode>
    24b0:	cf ef       	ldi	r28, 0xFF	; 255
    24b2:	d3 e0       	ldi	r29, 0x03	; 3
	for(int i = 0; i < 0x3FF; i++) p16f7x_writeComm(P16F7X_INC_ADD, 0x0000, 1);
    24b4:	41 e0       	ldi	r20, 0x01	; 1
    24b6:	60 e0       	ldi	r22, 0x00	; 0
    24b8:	70 e0       	ldi	r23, 0x00	; 0
    24ba:	86 e0       	ldi	r24, 0x06	; 6
    24bc:	0e 94 7c 01 	call	0x2f8	; 0x2f8 <p16f7x_writeComm>
    24c0:	21 97       	sbiw	r28, 0x01	; 1
    24c2:	c1 f7       	brne	.-16     	; 0x24b4 <p16f676_restoreOsc+0xbe>
	p16f7x_writeComm(P16F7X_LOAD_DATA, oscal1, 0);
    24c4:	60 91 b8 02 	lds	r22, 0x02B8	; 0x8002b8 <oscal1>
    24c8:	70 91 b9 02 	lds	r23, 0x02B9	; 0x8002b9 <oscal1+0x1>
    24cc:	40 e0       	ldi	r20, 0x00	; 0
    24ce:	82 e0       	ldi	r24, 0x02	; 2
    24d0:	0e 94 7c 01 	call	0x2f8	; 0x2f8 <p16f7x_writeComm>
	p16f7x_writeComm(P16F7X_BEGIN_PROG, 0x0000, 1);
    24d4:	41 e0       	ldi	r20, 0x01	; 1
    24d6:	60 e0       	ldi	r22, 0x00	; 0
    24d8:	70 e0       	ldi	r23, 0x00	; 0
    24da:	88 e0       	ldi	r24, 0x08	; 8
    24dc:	0e 94 7c 01 	call	0x2f8	; 0x2f8 <p16f7x_writeComm>
    24e0:	8f e1       	ldi	r24, 0x1F	; 31
    24e2:	9e e4       	ldi	r25, 0x4E	; 78
    24e4:	01 97       	sbiw	r24, 0x01	; 1
    24e6:	f1 f7       	brne	.-4      	; 0x24e4 <p16f676_restoreOsc+0xee>
    24e8:	00 c0       	rjmp	.+0      	; 0x24ea <p16f676_restoreOsc+0xf4>
    24ea:	00 00       	nop
	_delay_ms(5);
	p16f7x_writeComm(0x0A, 0x0000, 1);
    24ec:	41 e0       	ldi	r20, 0x01	; 1
    24ee:	60 e0       	ldi	r22, 0x00	; 0
    24f0:	70 e0       	ldi	r23, 0x00	; 0
    24f2:	8a e0       	ldi	r24, 0x0A	; 10
    24f4:	0e 94 7c 01 	call	0x2f8	; 0x2f8 <p16f7x_writeComm>
	p16f7x_reset();
    24f8:	0e 94 d1 03 	call	0x7a2	; 0x7a2 <p16f7x_reset>
}
    24fc:	df 91       	pop	r29
    24fe:	cf 91       	pop	r28
    2500:	08 95       	ret

00002502 <p16f676_erase>:
	p16f7x_reset();
}

void p16f676_erase(void)
{
	p16f676_storeOsc();
    2502:	0e 94 6b 11 	call	0x22d6	; 0x22d6 <p16f676_storeOsc>

	p16f628A_progMode();
    2506:	0e 94 4c 01 	call	0x298	; 0x298 <p16f628A_progMode>
	p16f7x_writeComm(P16F7X_LOAD_CONF, 0x0000, 0);
    250a:	40 e0       	ldi	r20, 0x00	; 0
    250c:	60 e0       	ldi	r22, 0x00	; 0
    250e:	70 e0       	ldi	r23, 0x00	; 0
    2510:	80 e0       	ldi	r24, 0x00	; 0
    2512:	0e 94 7c 01 	call	0x2f8	; 0x2f8 <p16f7x_writeComm>
    2516:	2f ef       	ldi	r18, 0xFF	; 255
    2518:	80 e7       	ldi	r24, 0x70	; 112
    251a:	92 e0       	ldi	r25, 0x02	; 2
    251c:	21 50       	subi	r18, 0x01	; 1
    251e:	80 40       	sbci	r24, 0x00	; 0
    2520:	90 40       	sbci	r25, 0x00	; 0
    2522:	e1 f7       	brne	.-8      	; 0x251c <p16f676_erase+0x1a>
    2524:	00 c0       	rjmp	.+0      	; 0x2526 <p16f676_erase+0x24>
    2526:	00 00       	nop
	_delay_ms(50);
	p16f7x_writeComm(P16F628A_ERASE_CODE, 0x0000, 1);
    2528:	41 e0       	ldi	r20, 0x01	; 1
    252a:	60 e0       	ldi	r22, 0x00	; 0
    252c:	70 e0       	ldi	r23, 0x00	; 0
    252e:	89 e0       	ldi	r24, 0x09	; 9
    2530:	0e 94 7c 01 	call	0x2f8	; 0x2f8 <p16f7x_writeComm>
    2534:	2f ef       	ldi	r18, 0xFF	; 255
    2536:	83 ec       	ldi	r24, 0xC3	; 195
    2538:	99 e0       	ldi	r25, 0x09	; 9
    253a:	21 50       	subi	r18, 0x01	; 1
    253c:	80 40       	sbci	r24, 0x00	; 0
    253e:	90 40       	sbci	r25, 0x00	; 0
    2540:	e1 f7       	brne	.-8      	; 0x253a <p16f676_erase+0x38>
    2542:	00 c0       	rjmp	.+0      	; 0x2544 <p16f676_erase+0x42>
    2544:	00 00       	nop
	_delay_ms(200);
	p16f7x_reset();
    2546:	0e 94 d1 03 	call	0x7a2	; 0x7a2 <p16f7x_reset>
    254a:	2f ef       	ldi	r18, 0xFF	; 255
    254c:	83 ec       	ldi	r24, 0xC3	; 195
    254e:	99 e0       	ldi	r25, 0x09	; 9
    2550:	21 50       	subi	r18, 0x01	; 1
    2552:	80 40       	sbci	r24, 0x00	; 0
    2554:	90 40       	sbci	r25, 0x00	; 0
    2556:	e1 f7       	brne	.-8      	; 0x2550 <p16f676_erase+0x4e>
    2558:	00 c0       	rjmp	.+0      	; 0x255a <p16f676_erase+0x58>
    255a:	00 00       	nop
	_delay_ms(200);

	p16f628A_progMode();
    255c:	0e 94 4c 01 	call	0x298	; 0x298 <p16f628A_progMode>
    2560:	2f ef       	ldi	r18, 0xFF	; 255
    2562:	80 e7       	ldi	r24, 0x70	; 112
    2564:	92 e0       	ldi	r25, 0x02	; 2
    2566:	21 50       	subi	r18, 0x01	; 1
    2568:	80 40       	sbci	r24, 0x00	; 0
    256a:	90 40       	sbci	r25, 0x00	; 0
    256c:	e1 f7       	brne	.-8      	; 0x2566 <p16f676_erase+0x64>
    256e:	00 c0       	rjmp	.+0      	; 0x2570 <p16f676_erase+0x6e>
    2570:	00 00       	nop
	_delay_ms(50);
	p16f7x_writeComm(P16F628A_ERASE_DATA, 0x0000, 1);
    2572:	41 e0       	ldi	r20, 0x01	; 1
    2574:	60 e0       	ldi	r22, 0x00	; 0
    2576:	70 e0       	ldi	r23, 0x00	; 0
    2578:	8b e0       	ldi	r24, 0x0B	; 11
    257a:	0e 94 7c 01 	call	0x2f8	; 0x2f8 <p16f7x_writeComm>
    257e:	2f ef       	ldi	r18, 0xFF	; 255
    2580:	83 ec       	ldi	r24, 0xC3	; 195
    2582:	99 e0       	ldi	r25, 0x09	; 9
    2584:	21 50       	subi	r18, 0x01	; 1
    2586:	80 40       	sbci	r24, 0x00	; 0
    2588:	90 40       	sbci	r25, 0x00	; 0
    258a:	e1 f7       	brne	.-8      	; 0x2584 <p16f676_erase+0x82>
    258c:	00 c0       	rjmp	.+0      	; 0x258e <p16f676_erase+0x8c>
    258e:	00 00       	nop
	_delay_ms(200);
	p16f7x_reset();
    2590:	0e 94 d1 03 	call	0x7a2	; 0x7a2 <p16f7x_reset>

	p16f676_restoreOsc();
    2594:	0e 94 fb 11 	call	0x23f6	; 0x23f6 <p16f676_restoreOsc>
    2598:	08 95       	ret

0000259a <send_frame>:
	exchange[3] = 0x00;
	send_frame(exchange, 4);
}

void send_frame(uint8_t *buff, uint8_t count)
{
    259a:	0f 93       	push	r16
    259c:	1f 93       	push	r17
    259e:	cf 93       	push	r28
    25a0:	df 93       	push	r29
	for(int n = 0; n < count; n++) USARTSend_char(buff[n]);
    25a2:	66 23       	and	r22, r22
    25a4:	51 f0       	breq	.+20     	; 0x25ba <send_frame+0x20>
    25a6:	8c 01       	movw	r16, r24
    25a8:	ec 01       	movw	r28, r24
    25aa:	06 0f       	add	r16, r22
    25ac:	11 1d       	adc	r17, r1
    25ae:	89 91       	ld	r24, Y+
    25b0:	0e 94 cd 15 	call	0x2b9a	; 0x2b9a <USARTSend_char>
    25b4:	c0 17       	cp	r28, r16
    25b6:	d1 07       	cpc	r29, r17
    25b8:	d1 f7       	brne	.-12     	; 0x25ae <send_frame+0x14>
}
    25ba:	df 91       	pop	r29
    25bc:	cf 91       	pop	r28
    25be:	1f 91       	pop	r17
    25c0:	0f 91       	pop	r16
    25c2:	08 95       	ret

000025c4 <send_successConn>:
uint32_t main_counter;


void send_successConn(void)
{
	exchange[0] = 0xFE;
    25c4:	e0 e2       	ldi	r30, 0x20	; 32
    25c6:	f2 e0       	ldi	r31, 0x02	; 2
    25c8:	8e ef       	ldi	r24, 0xFE	; 254
    25ca:	80 83       	st	Z, r24
	exchange[1] = 0x01;
    25cc:	81 e0       	ldi	r24, 0x01	; 1
    25ce:	81 83       	std	Z+1, r24	; 0x01
	exchange[2] = 0xCC;
    25d0:	8c ec       	ldi	r24, 0xCC	; 204
    25d2:	82 83       	std	Z+2, r24	; 0x02
	exchange[3] = 0x00;
    25d4:	13 82       	std	Z+3, r1	; 0x03
	send_frame(exchange, 4);
    25d6:	64 e0       	ldi	r22, 0x04	; 4
    25d8:	cf 01       	movw	r24, r30
    25da:	0e 94 cd 12 	call	0x259a	; 0x259a <send_frame>
    25de:	08 95       	ret

000025e0 <send_arr>:
	for(int n = 0; n < count; n++) USARTSend_char(buff[n]);
}

//
void send_arr(uint8_t marker, uint8_t *buff, uint16_t count, uint16_t offset)
{
    25e0:	cf 92       	push	r12
    25e2:	df 92       	push	r13
    25e4:	ef 92       	push	r14
    25e6:	ff 92       	push	r15
    25e8:	0f 93       	push	r16
    25ea:	1f 93       	push	r17
    25ec:	cf 93       	push	r28
    25ee:	df 93       	push	r29
    25f0:	c8 2f       	mov	r28, r24
    25f2:	6b 01       	movw	r12, r22
    25f4:	8a 01       	movw	r16, r20
    25f6:	79 01       	movw	r14, r18
	USARTSend_char(0xFE); //Start
    25f8:	8e ef       	ldi	r24, 0xFE	; 254
    25fa:	0e 94 cd 15 	call	0x2b9a	; 0x2b9a <USARTSend_char>
	USARTSend_char(count);
    25fe:	80 2f       	mov	r24, r16
    2600:	0e 94 cd 15 	call	0x2b9a	; 0x2b9a <USARTSend_char>
	USARTSend_char(marker);
    2604:	8c 2f       	mov	r24, r28
    2606:	0e 94 cd 15 	call	0x2b9a	; 0x2b9a <USARTSend_char>
	for(int u = 0; u < count; u++) USARTSend_char(buff[u + offset]);
    260a:	01 15       	cp	r16, r1
    260c:	11 05       	cpc	r17, r1
    260e:	71 f0       	breq	.+28     	; 0x262c <send_arr+0x4c>
    2610:	e6 01       	movw	r28, r12
    2612:	ce 0d       	add	r28, r14
    2614:	df 1d       	adc	r29, r15
    2616:	e0 0e       	add	r14, r16
    2618:	f1 1e       	adc	r15, r17
    261a:	86 01       	movw	r16, r12
    261c:	0e 0d       	add	r16, r14
    261e:	1f 1d       	adc	r17, r15
    2620:	89 91       	ld	r24, Y+
    2622:	0e 94 cd 15 	call	0x2b9a	; 0x2b9a <USARTSend_char>
    2626:	c0 17       	cp	r28, r16
    2628:	d1 07       	cpc	r29, r17
    262a:	d1 f7       	brne	.-12     	; 0x2620 <send_arr+0x40>
}
    262c:	df 91       	pop	r29
    262e:	cf 91       	pop	r28
    2630:	1f 91       	pop	r17
    2632:	0f 91       	pop	r16
    2634:	ff 90       	pop	r15
    2636:	ef 90       	pop	r14
    2638:	df 90       	pop	r13
    263a:	cf 90       	pop	r12
    263c:	08 95       	ret

0000263e <deassemble_frame>:

void deassemble_frame(void)
{
    263e:	cf 93       	push	r28
    2640:	df 93       	push	r29
	switch(exchange[2])
    2642:	e0 91 22 02 	lds	r30, 0x0222	; 0x800222 <exchange+0x2>
    2646:	8e 2f       	mov	r24, r30
    2648:	90 e0       	ldi	r25, 0x00	; 0
    264a:	fc 01       	movw	r30, r24
    264c:	e0 5a       	subi	r30, 0xA0	; 160
    264e:	f1 09       	sbc	r31, r1
    2650:	ed 32       	cpi	r30, 0x2D	; 45
    2652:	f1 05       	cpc	r31, r1
    2654:	08 f0       	brcs	.+2      	; 0x2658 <deassemble_frame+0x1a>
    2656:	90 c2       	rjmp	.+1312   	; 0x2b78 <deassemble_frame+0x53a>
    2658:	ec 5c       	subi	r30, 0xCC	; 204
    265a:	ff 4f       	sbci	r31, 0xFF	; 255
    265c:	0c 94 e4 15 	jmp	0x2bc8	; 0x2bc8 <__tablejump2__>
	{
		case 0xCC:
		{
			send_successConn();
    2660:	0e 94 e2 12 	call	0x25c4	; 0x25c4 <send_successConn>
			break;
    2664:	89 c2       	rjmp	.+1298   	; 0x2b78 <deassemble_frame+0x53a>
		}
		case 0xA0: //Get ID
				{
					device = exchange[3];
    2666:	e0 91 23 02 	lds	r30, 0x0223	; 0x800223 <exchange+0x3>
    266a:	e0 93 cd 02 	sts	0x02CD, r30	; 0x8002cd <device>
					switch(device)
    266e:	8e 2f       	mov	r24, r30
    2670:	90 e0       	ldi	r25, 0x00	; 0
    2672:	fc 01       	movw	r30, r24
    2674:	31 97       	sbiw	r30, 0x01	; 1
    2676:	e7 30       	cpi	r30, 0x07	; 7
    2678:	f1 05       	cpc	r31, r1
    267a:	08 f0       	brcs	.+2      	; 0x267e <deassemble_frame+0x40>
    267c:	7d c2       	rjmp	.+1274   	; 0x2b78 <deassemble_frame+0x53a>
    267e:	ef 59       	subi	r30, 0x9F	; 159
    2680:	ff 4f       	sbci	r31, 0xFF	; 255
    2682:	0c 94 e4 15 	jmp	0x2bc8	; 0x2bc8 <__tablejump2__>
						{
							case 0x01: { p16f7x_getId(); break; }
    2686:	0e 94 dd 03 	call	0x7ba	; 0x7ba <p16f7x_getId>
    268a:	76 c2       	rjmp	.+1260   	; 0x2b78 <deassemble_frame+0x53a>
							case 0x02: { p16f7x_getId(); break; }
    268c:	0e 94 dd 03 	call	0x7ba	; 0x7ba <p16f7x_getId>
    2690:	73 c2       	rjmp	.+1254   	; 0x2b78 <deassemble_frame+0x53a>
							case 0x03: { p18fx5xx_getId(); break; }
    2692:	0e 94 18 04 	call	0x830	; 0x830 <p18fx5xx_getId>
    2696:	70 c2       	rjmp	.+1248   	; 0x2b78 <deassemble_frame+0x53a>
							case 0x04: { p16f7x_getId(); break; }
    2698:	0e 94 dd 03 	call	0x7ba	; 0x7ba <p16f7x_getId>
    269c:	6d c2       	rjmp	.+1242   	; 0x2b78 <deassemble_frame+0x53a>
							case 0x05: { p18fx5xx_getId(); break; }
    269e:	0e 94 18 04 	call	0x830	; 0x830 <p18fx5xx_getId>
    26a2:	6a c2       	rjmp	.+1236   	; 0x2b78 <deassemble_frame+0x53a>
							case 0x06: { p16f7x_getId(); break; }
    26a4:	0e 94 dd 03 	call	0x7ba	; 0x7ba <p16f7x_getId>
    26a8:	67 c2       	rjmp	.+1230   	; 0x2b78 <deassemble_frame+0x53a>
							case 0x07: { p16f7x_getId(); break; }
    26aa:	0e 94 dd 03 	call	0x7ba	; 0x7ba <p16f7x_getId>
    26ae:	64 c2       	rjmp	.+1224   	; 0x2b78 <deassemble_frame+0x53a>
						}
					break;
				}
				case 0xA1: //Read
				{
					device = exchange[3];
    26b0:	c0 e2       	ldi	r28, 0x20	; 32
    26b2:	d2 e0       	ldi	r29, 0x02	; 2
    26b4:	eb 81       	ldd	r30, Y+3	; 0x03
    26b6:	e0 93 cd 02 	sts	0x02CD, r30	; 0x8002cd <device>
					f_size = (exchange[4] << 8);
					f_size = (f_size << 8);
					f_size |= (exchange[5] << 8) | exchange[6];
    26ba:	8d 81       	ldd	r24, Y+5	; 0x05
    26bc:	90 e0       	ldi	r25, 0x00	; 0
    26be:	98 2f       	mov	r25, r24
    26c0:	88 27       	eor	r24, r24
    26c2:	2e 81       	ldd	r18, Y+6	; 0x06
    26c4:	82 2b       	or	r24, r18
    26c6:	ac 01       	movw	r20, r24
    26c8:	99 0f       	add	r25, r25
    26ca:	66 0b       	sbc	r22, r22
    26cc:	77 0b       	sbc	r23, r23
					break;
				}
				case 0xA1: //Read
				{
					device = exchange[3];
					f_size = (exchange[4] << 8);
    26ce:	2c 81       	ldd	r18, Y+4	; 0x04
    26d0:	30 e0       	ldi	r19, 0x00	; 0
    26d2:	92 2f       	mov	r25, r18
    26d4:	88 27       	eor	r24, r24
    26d6:	09 2e       	mov	r0, r25
    26d8:	00 0c       	add	r0, r0
    26da:	aa 0b       	sbc	r26, r26
    26dc:	bb 0b       	sbc	r27, r27
					f_size = (f_size << 8);
    26de:	ba 2f       	mov	r27, r26
    26e0:	a9 2f       	mov	r26, r25
    26e2:	98 2f       	mov	r25, r24
    26e4:	88 27       	eor	r24, r24
					f_size |= (exchange[5] << 8) | exchange[6];
    26e6:	84 2b       	or	r24, r20
    26e8:	95 2b       	or	r25, r21
    26ea:	a6 2b       	or	r26, r22
    26ec:	b7 2b       	or	r27, r23
    26ee:	80 93 c0 02 	sts	0x02C0, r24	; 0x8002c0 <f_size>
    26f2:	90 93 c1 02 	sts	0x02C1, r25	; 0x8002c1 <f_size+0x1>
    26f6:	a0 93 c2 02 	sts	0x02C2, r26	; 0x8002c2 <f_size+0x2>
    26fa:	b0 93 c3 02 	sts	0x02C3, r27	; 0x8002c3 <f_size+0x3>
					ee_size = (exchange[7] << 8) | exchange[8];
    26fe:	8f 81       	ldd	r24, Y+7	; 0x07
    2700:	90 e0       	ldi	r25, 0x00	; 0
    2702:	98 2f       	mov	r25, r24
    2704:	88 27       	eor	r24, r24
    2706:	28 85       	ldd	r18, Y+8	; 0x08
    2708:	82 2b       	or	r24, r18
    270a:	90 93 c7 02 	sts	0x02C7, r25	; 0x8002c7 <ee_size+0x1>
    270e:	80 93 c6 02 	sts	0x02C6, r24	; 0x8002c6 <ee_size>

					osc_cnt = exchange[9];
    2712:	89 85       	ldd	r24, Y+9	; 0x09
    2714:	80 93 ca 02 	sts	0x02CA, r24	; 0x8002ca <osc_cnt>
					osc_start = exchange[10];
    2718:	8a 85       	ldd	r24, Y+10	; 0x0a
    271a:	80 93 cb 02 	sts	0x02CB, r24	; 0x8002cb <osc_start>

					switch(device)
    271e:	8e 2f       	mov	r24, r30
    2720:	90 e0       	ldi	r25, 0x00	; 0
    2722:	fc 01       	movw	r30, r24
    2724:	31 97       	sbiw	r30, 0x01	; 1
    2726:	e7 30       	cpi	r30, 0x07	; 7
    2728:	f1 05       	cpc	r31, r1
    272a:	08 f0       	brcs	.+2      	; 0x272e <deassemble_frame+0xf0>
    272c:	25 c2       	rjmp	.+1098   	; 0x2b78 <deassemble_frame+0x53a>
    272e:	e8 59       	subi	r30, 0x98	; 152
    2730:	ff 4f       	sbci	r31, 0xFF	; 255
    2732:	0c 94 e4 15 	jmp	0x2bc8	; 0x2bc8 <__tablejump2__>
						{
							case 0x01: { p16f7x_read(); break; }
    2736:	0e 94 8f 06 	call	0xd1e	; 0xd1e <p16f7x_read>
    273a:	1e c2       	rjmp	.+1084   	; 0x2b78 <deassemble_frame+0x53a>
							case 0x02: { p16f628a_read(); break; }
    273c:	0e 94 07 07 	call	0xe0e	; 0xe0e <p16f628a_read>
    2740:	1b c2       	rjmp	.+1078   	; 0x2b78 <deassemble_frame+0x53a>
							case 0x03: { p18fx5xx_read(); break; }
    2742:	0e 94 d6 07 	call	0xfac	; 0xfac <p18fx5xx_read>
    2746:	18 c2       	rjmp	.+1072   	; 0x2b78 <deassemble_frame+0x53a>
							case 0x04: { p16f628a_read(); break; }
    2748:	0e 94 07 07 	call	0xe0e	; 0xe0e <p16f628a_read>
    274c:	15 c2       	rjmp	.+1066   	; 0x2b78 <deassemble_frame+0x53a>
							case 0x05: { p18fxxk80_read(); break; }
    274e:	0e 94 ee 08 	call	0x11dc	; 0x11dc <p18fxxk80_read>
    2752:	12 c2       	rjmp	.+1060   	; 0x2b78 <deassemble_frame+0x53a>
							case 0x06: { p16f628a_read(); p16f676_readOscall(); break; }
    2754:	0e 94 07 07 	call	0xe0e	; 0xe0e <p16f628a_read>
    2758:	0e 94 56 10 	call	0x20ac	; 0x20ac <p16f676_readOscall>
    275c:	0d c2       	rjmp	.+1050   	; 0x2b78 <deassemble_frame+0x53a>
							case 0x07: { p16f628a_read(); p12f1840_readOscall(); break; }
    275e:	0e 94 07 07 	call	0xe0e	; 0xe0e <p16f628a_read>
    2762:	0e 94 7c 10 	call	0x20f8	; 0x20f8 <p12f1840_readOscall>
    2766:	08 c2       	rjmp	.+1040   	; 0x2b78 <deassemble_frame+0x53a>
						}
					break;
				}
				case 0xA2: //Erase
						{
							device = exchange[3];
    2768:	e0 91 23 02 	lds	r30, 0x0223	; 0x800223 <exchange+0x3>
    276c:	e0 93 cd 02 	sts	0x02CD, r30	; 0x8002cd <device>
							switch(device)
    2770:	8e 2f       	mov	r24, r30
    2772:	90 e0       	ldi	r25, 0x00	; 0
    2774:	fc 01       	movw	r30, r24
    2776:	31 97       	sbiw	r30, 0x01	; 1
    2778:	e7 30       	cpi	r30, 0x07	; 7
    277a:	f1 05       	cpc	r31, r1
    277c:	c0 f4       	brcc	.+48     	; 0x27ae <deassemble_frame+0x170>
    277e:	e1 59       	subi	r30, 0x91	; 145
    2780:	ff 4f       	sbci	r31, 0xFF	; 255
    2782:	0c 94 e4 15 	jmp	0x2bc8	; 0x2bc8 <__tablejump2__>
								{
									case 0x01: { p16f7x_erase(); break; }
    2786:	0e 94 1c 0a 	call	0x1438	; 0x1438 <p16f7x_erase>
    278a:	11 c0       	rjmp	.+34     	; 0x27ae <deassemble_frame+0x170>
									case 0x02: { p16f628a_erase(); break; }
    278c:	0e 94 42 0a 	call	0x1484	; 0x1484 <p16f628a_erase>
    2790:	0e c0       	rjmp	.+28     	; 0x27ae <deassemble_frame+0x170>
									case 0x03: { p18fx5xx_erase(); break; }
    2792:	0e 94 1d 0b 	call	0x163a	; 0x163a <p18fx5xx_erase>
    2796:	0b c0       	rjmp	.+22     	; 0x27ae <deassemble_frame+0x170>
									case 0x04: { p16f84a_erase(); break; }
    2798:	0e 94 99 0a 	call	0x1532	; 0x1532 <p16f84a_erase>
    279c:	08 c0       	rjmp	.+16     	; 0x27ae <deassemble_frame+0x170>
									case 0x05: { p18fxxk80_erase(); break; }
    279e:	0e 94 4b 0b 	call	0x1696	; 0x1696 <p18fxxk80_erase>
    27a2:	05 c0       	rjmp	.+10     	; 0x27ae <deassemble_frame+0x170>
									case 0x06: { p16f676_erase(); break; }
    27a4:	0e 94 81 12 	call	0x2502	; 0x2502 <p16f676_erase>
    27a8:	02 c0       	rjmp	.+4      	; 0x27ae <deassemble_frame+0x170>
									case 0x07: { p16f628a_erase(); break; }
    27aa:	0e 94 42 0a 	call	0x1484	; 0x1484 <p16f628a_erase>
									default: break;
								}

							main_buff[0] = 0xFE;
    27ae:	e0 e2       	ldi	r30, 0x20	; 32
    27b0:	f1 e0       	ldi	r31, 0x01	; 1
    27b2:	8e ef       	ldi	r24, 0xFE	; 254
    27b4:	80 83       	st	Z, r24
							main_buff[1] = 0x01;
    27b6:	81 e0       	ldi	r24, 0x01	; 1
    27b8:	81 83       	std	Z+1, r24	; 0x01
							main_buff[2] = 0xA2;
    27ba:	82 ea       	ldi	r24, 0xA2	; 162
    27bc:	82 83       	std	Z+2, r24	; 0x02
							main_buff[3] = 0x00;
    27be:	13 82       	std	Z+3, r1	; 0x03
							send_frame(main_buff, 4);
    27c0:	64 e0       	ldi	r22, 0x04	; 4
    27c2:	cf 01       	movw	r24, r30
    27c4:	0e 94 cd 12 	call	0x259a	; 0x259a <send_frame>
							break;
    27c8:	d7 c1       	rjmp	.+942    	; 0x2b78 <deassemble_frame+0x53a>
						}
				case 0xA3: //Read config
						{
							device = exchange[3];
    27ca:	a0 e2       	ldi	r26, 0x20	; 32
    27cc:	b2 e0       	ldi	r27, 0x02	; 2
    27ce:	13 96       	adiw	r26, 0x03	; 3
    27d0:	ec 91       	ld	r30, X
    27d2:	13 97       	sbiw	r26, 0x03	; 3
    27d4:	e0 93 cd 02 	sts	0x02CD, r30	; 0x8002cd <device>
							conf_cnt = exchange[4];
    27d8:	14 96       	adiw	r26, 0x04	; 4
    27da:	8c 91       	ld	r24, X
    27dc:	80 93 cc 02 	sts	0x02CC, r24	; 0x8002cc <conf_cnt>

							switch(device)
    27e0:	8e 2f       	mov	r24, r30
    27e2:	90 e0       	ldi	r25, 0x00	; 0
    27e4:	fc 01       	movw	r30, r24
    27e6:	31 97       	sbiw	r30, 0x01	; 1
    27e8:	e7 30       	cpi	r30, 0x07	; 7
    27ea:	f1 05       	cpc	r31, r1
    27ec:	08 f0       	brcs	.+2      	; 0x27f0 <deassemble_frame+0x1b2>
    27ee:	c4 c1       	rjmp	.+904    	; 0x2b78 <deassemble_frame+0x53a>
    27f0:	ea 58       	subi	r30, 0x8A	; 138
    27f2:	ff 4f       	sbci	r31, 0xFF	; 255
    27f4:	0c 94 e4 15 	jmp	0x2bc8	; 0x2bc8 <__tablejump2__>
								{
									case 0x01: { p16f7x_readCfg(); break; }
    27f8:	0e 94 60 04 	call	0x8c0	; 0x8c0 <p16f7x_readCfg>
    27fc:	bd c1       	rjmp	.+890    	; 0x2b78 <deassemble_frame+0x53a>
									case 0x02: { p16f7x_readCfg(); break; }
    27fe:	0e 94 60 04 	call	0x8c0	; 0x8c0 <p16f7x_readCfg>
    2802:	ba c1       	rjmp	.+884    	; 0x2b78 <deassemble_frame+0x53a>
									case 0x03: { p18fx5xx_readCfg(); break; }
    2804:	0e 94 e5 04 	call	0x9ca	; 0x9ca <p18fx5xx_readCfg>
    2808:	b7 c1       	rjmp	.+878    	; 0x2b78 <deassemble_frame+0x53a>
									case 0x04: { p16f7x_readCfg(); break; }
    280a:	0e 94 60 04 	call	0x8c0	; 0x8c0 <p16f7x_readCfg>
    280e:	b4 c1       	rjmp	.+872    	; 0x2b78 <deassemble_frame+0x53a>
									case 0x05: { p18fx5xx_readCfg(); break; }
    2810:	0e 94 e5 04 	call	0x9ca	; 0x9ca <p18fx5xx_readCfg>
    2814:	b1 c1       	rjmp	.+866    	; 0x2b78 <deassemble_frame+0x53a>
									case 0x06: { p16f7x_readCfg(); break; }
    2816:	0e 94 60 04 	call	0x8c0	; 0x8c0 <p16f7x_readCfg>
    281a:	ae c1       	rjmp	.+860    	; 0x2b78 <deassemble_frame+0x53a>
									case 0x07: { p16f7x_readCfg(); break; }
    281c:	0e 94 60 04 	call	0x8c0	; 0x8c0 <p16f7x_readCfg>
    2820:	ab c1       	rjmp	.+854    	; 0x2b78 <deassemble_frame+0x53a>
								}
							break;
						}
				case 0xA4: //Write config
						{
							device = exchange[3];
    2822:	a0 e2       	ldi	r26, 0x20	; 32
    2824:	b2 e0       	ldi	r27, 0x02	; 2
    2826:	13 96       	adiw	r26, 0x03	; 3
    2828:	ec 91       	ld	r30, X
    282a:	13 97       	sbiw	r26, 0x03	; 3
    282c:	e0 93 cd 02 	sts	0x02CD, r30	; 0x8002cd <device>
							conf_cnt = exchange[18];
    2830:	52 96       	adiw	r26, 0x12	; 18
    2832:	8c 91       	ld	r24, X
    2834:	80 93 cc 02 	sts	0x02CC, r24	; 0x8002cc <conf_cnt>

							switch(device)
    2838:	8e 2f       	mov	r24, r30
    283a:	90 e0       	ldi	r25, 0x00	; 0
    283c:	fc 01       	movw	r30, r24
    283e:	31 97       	sbiw	r30, 0x01	; 1
    2840:	e7 30       	cpi	r30, 0x07	; 7
    2842:	f1 05       	cpc	r31, r1
    2844:	c0 f4       	brcc	.+48     	; 0x2876 <deassemble_frame+0x238>
    2846:	e3 58       	subi	r30, 0x83	; 131
    2848:	ff 4f       	sbci	r31, 0xFF	; 255
    284a:	0c 94 e4 15 	jmp	0x2bc8	; 0x2bc8 <__tablejump2__>
								{
									case 0x01: { p16f7x_writeCfg(); break; }
    284e:	0e 94 2f 05 	call	0xa5e	; 0xa5e <p16f7x_writeCfg>
    2852:	11 c0       	rjmp	.+34     	; 0x2876 <deassemble_frame+0x238>
									case 0x02: { p16f7x_writeCfg(); break; }
    2854:	0e 94 2f 05 	call	0xa5e	; 0xa5e <p16f7x_writeCfg>
    2858:	0e c0       	rjmp	.+28     	; 0x2876 <deassemble_frame+0x238>
									case 0x03: { p18fx5xx_writeCfg(); break; }
    285a:	0e 94 ea 05 	call	0xbd4	; 0xbd4 <p18fx5xx_writeCfg>
    285e:	0b c0       	rjmp	.+22     	; 0x2876 <deassemble_frame+0x238>
									case 0x04: { p16f84a_writeCfg(); break; }
    2860:	0e 94 b9 05 	call	0xb72	; 0xb72 <p16f84a_writeCfg>
    2864:	08 c0       	rjmp	.+16     	; 0x2876 <deassemble_frame+0x238>
									case 0x05: { p18fxxk80_writeCfg(); break; }
    2866:	0e 94 34 06 	call	0xc68	; 0xc68 <p18fxxk80_writeCfg>
    286a:	05 c0       	rjmp	.+10     	; 0x2876 <deassemble_frame+0x238>
									case 0x06: { p16f676_writeCfg(); break; }
    286c:	0e 94 b6 11 	call	0x236c	; 0x236c <p16f676_writeCfg>
    2870:	02 c0       	rjmp	.+4      	; 0x2876 <deassemble_frame+0x238>
									case 0x07: { p12f1840_writeCfg(); break; }
    2872:	0e 94 70 05 	call	0xae0	; 0xae0 <p12f1840_writeCfg>
									default: break;
								}

							main_buff[0] = 0xFE;
    2876:	e0 e2       	ldi	r30, 0x20	; 32
    2878:	f1 e0       	ldi	r31, 0x01	; 1
    287a:	8e ef       	ldi	r24, 0xFE	; 254
    287c:	80 83       	st	Z, r24
							main_buff[1] = 0x01;
    287e:	81 e0       	ldi	r24, 0x01	; 1
    2880:	81 83       	std	Z+1, r24	; 0x01
							main_buff[2] = 0xA4;
    2882:	84 ea       	ldi	r24, 0xA4	; 164
    2884:	82 83       	std	Z+2, r24	; 0x02
							main_buff[3] = 0x00;
    2886:	13 82       	std	Z+3, r1	; 0x03
							send_frame(main_buff, 4);
    2888:	64 e0       	ldi	r22, 0x04	; 4
    288a:	cf 01       	movw	r24, r30
    288c:	0e 94 cd 12 	call	0x259a	; 0x259a <send_frame>
							break;
    2890:	73 c1       	rjmp	.+742    	; 0x2b78 <deassemble_frame+0x53a>
						}
				case 0xA5: //Prepare to write code
				{
					device = exchange[3];
    2892:	c0 e2       	ldi	r28, 0x20	; 32
    2894:	d2 e0       	ldi	r29, 0x02	; 2
    2896:	eb 81       	ldd	r30, Y+3	; 0x03
    2898:	e0 93 cd 02 	sts	0x02CD, r30	; 0x8002cd <device>
					f_size = (exchange[4] << 8);
					f_size = f_size << 8;
					f_size |= exchange[6] | (exchange[5] << 8);
    289c:	8d 81       	ldd	r24, Y+5	; 0x05
    289e:	90 e0       	ldi	r25, 0x00	; 0
    28a0:	98 2f       	mov	r25, r24
    28a2:	88 27       	eor	r24, r24
    28a4:	2e 81       	ldd	r18, Y+6	; 0x06
    28a6:	82 2b       	or	r24, r18
    28a8:	ac 01       	movw	r20, r24
    28aa:	99 0f       	add	r25, r25
    28ac:	66 0b       	sbc	r22, r22
    28ae:	77 0b       	sbc	r23, r23
							break;
						}
				case 0xA5: //Prepare to write code
				{
					device = exchange[3];
					f_size = (exchange[4] << 8);
    28b0:	2c 81       	ldd	r18, Y+4	; 0x04
    28b2:	30 e0       	ldi	r19, 0x00	; 0
    28b4:	92 2f       	mov	r25, r18
    28b6:	88 27       	eor	r24, r24
    28b8:	09 2e       	mov	r0, r25
    28ba:	00 0c       	add	r0, r0
    28bc:	aa 0b       	sbc	r26, r26
    28be:	bb 0b       	sbc	r27, r27
					f_size = f_size << 8;
    28c0:	ba 2f       	mov	r27, r26
    28c2:	a9 2f       	mov	r26, r25
    28c4:	98 2f       	mov	r25, r24
    28c6:	88 27       	eor	r24, r24
					f_size |= exchange[6] | (exchange[5] << 8);
    28c8:	84 2b       	or	r24, r20
    28ca:	95 2b       	or	r25, r21
    28cc:	a6 2b       	or	r26, r22
    28ce:	b7 2b       	or	r27, r23
    28d0:	80 93 c0 02 	sts	0x02C0, r24	; 0x8002c0 <f_size>
    28d4:	90 93 c1 02 	sts	0x02C1, r25	; 0x8002c1 <f_size+0x1>
    28d8:	a0 93 c2 02 	sts	0x02C2, r26	; 0x8002c2 <f_size+0x2>
    28dc:	b0 93 c3 02 	sts	0x02C3, r27	; 0x8002c3 <f_size+0x3>
					ee_size = exchange[8] | (exchange[7] << 8);
    28e0:	8f 81       	ldd	r24, Y+7	; 0x07
    28e2:	90 e0       	ldi	r25, 0x00	; 0
    28e4:	98 2f       	mov	r25, r24
    28e6:	88 27       	eor	r24, r24
    28e8:	28 85       	ldd	r18, Y+8	; 0x08
    28ea:	82 2b       	or	r24, r18
    28ec:	90 93 c7 02 	sts	0x02C7, r25	; 0x8002c7 <ee_size+0x1>
    28f0:	80 93 c6 02 	sts	0x02C6, r24	; 0x8002c6 <ee_size>
					wr_delay = exchange[10] | (exchange[9] << 8);
    28f4:	89 85       	ldd	r24, Y+9	; 0x09
    28f6:	90 e0       	ldi	r25, 0x00	; 0
    28f8:	98 2f       	mov	r25, r24
    28fa:	88 27       	eor	r24, r24
    28fc:	2a 85       	ldd	r18, Y+10	; 0x0a
    28fe:	82 2b       	or	r24, r18
    2900:	90 93 c5 02 	sts	0x02C5, r25	; 0x8002c5 <wr_delay+0x1>
    2904:	80 93 c4 02 	sts	0x02C4, r24	; 0x8002c4 <wr_delay>
					f_psize = exchange[11];
    2908:	8b 85       	ldd	r24, Y+11	; 0x0b
    290a:	90 e0       	ldi	r25, 0x00	; 0
    290c:	90 93 c9 02 	sts	0x02C9, r25	; 0x8002c9 <f_psize+0x1>
    2910:	80 93 c8 02 	sts	0x02C8, r24	; 0x8002c8 <f_psize>
					switch(device)
    2914:	8e 2f       	mov	r24, r30
    2916:	90 e0       	ldi	r25, 0x00	; 0
    2918:	fc 01       	movw	r30, r24
    291a:	31 97       	sbiw	r30, 0x01	; 1
    291c:	e7 30       	cpi	r30, 0x07	; 7
    291e:	f1 05       	cpc	r31, r1
    2920:	70 f5       	brcc	.+92     	; 0x297e <deassemble_frame+0x340>
    2922:	ec 57       	subi	r30, 0x7C	; 124
    2924:	ff 4f       	sbci	r31, 0xFF	; 255
    2926:	0c 94 e4 15 	jmp	0x2bc8	; 0x2bc8 <__tablejump2__>
						{
							case 0x01: { p16f7x_progMode(); break; }
    292a:	0e 94 32 01 	call	0x264	; 0x264 <p16f7x_progMode>
    292e:	27 c0       	rjmp	.+78     	; 0x297e <deassemble_frame+0x340>
							case 0x02: { p16f628A_progMode(); break; }
    2930:	0e 94 4c 01 	call	0x298	; 0x298 <p16f628A_progMode>
    2934:	24 c0       	rjmp	.+72     	; 0x297e <deassemble_frame+0x340>
							case 0x03: { main_counter = 0; break; }
    2936:	10 92 bc 02 	sts	0x02BC, r1	; 0x8002bc <main_counter>
    293a:	10 92 bd 02 	sts	0x02BD, r1	; 0x8002bd <main_counter+0x1>
    293e:	10 92 be 02 	sts	0x02BE, r1	; 0x8002be <main_counter+0x2>
    2942:	10 92 bf 02 	sts	0x02BF, r1	; 0x8002bf <main_counter+0x3>
    2946:	1b c0       	rjmp	.+54     	; 0x297e <deassemble_frame+0x340>
							case 0x04: { p16f7x_progMode(); break; }
    2948:	0e 94 32 01 	call	0x264	; 0x264 <p16f7x_progMode>
    294c:	18 c0       	rjmp	.+48     	; 0x297e <deassemble_frame+0x340>
							case 0x05: { main_counter = 0; break; }
    294e:	10 92 bc 02 	sts	0x02BC, r1	; 0x8002bc <main_counter>
    2952:	10 92 bd 02 	sts	0x02BD, r1	; 0x8002bd <main_counter+0x1>
    2956:	10 92 be 02 	sts	0x02BE, r1	; 0x8002be <main_counter+0x2>
    295a:	10 92 bf 02 	sts	0x02BF, r1	; 0x8002bf <main_counter+0x3>
    295e:	0f c0       	rjmp	.+30     	; 0x297e <deassemble_frame+0x340>
							case 0x06: { p16f676_storeOsc(); p16f628A_progMode(); main_counter = 0; break; }
    2960:	0e 94 6b 11 	call	0x22d6	; 0x22d6 <p16f676_storeOsc>
    2964:	0e 94 4c 01 	call	0x298	; 0x298 <p16f628A_progMode>
    2968:	10 92 bc 02 	sts	0x02BC, r1	; 0x8002bc <main_counter>
    296c:	10 92 bd 02 	sts	0x02BD, r1	; 0x8002bd <main_counter+0x1>
    2970:	10 92 be 02 	sts	0x02BE, r1	; 0x8002be <main_counter+0x2>
    2974:	10 92 bf 02 	sts	0x02BF, r1	; 0x8002bf <main_counter+0x3>
    2978:	02 c0       	rjmp	.+4      	; 0x297e <deassemble_frame+0x340>
							case 0x07: { p16f7x_progMode(); break; }
    297a:	0e 94 32 01 	call	0x264	; 0x264 <p16f7x_progMode>
							default: break;
						}
					main_buff[0] = 0xFE;
    297e:	e0 e2       	ldi	r30, 0x20	; 32
    2980:	f1 e0       	ldi	r31, 0x01	; 1
    2982:	8e ef       	ldi	r24, 0xFE	; 254
    2984:	80 83       	st	Z, r24
					main_buff[1] = 0x01;
    2986:	81 e0       	ldi	r24, 0x01	; 1
    2988:	81 83       	std	Z+1, r24	; 0x01
					main_buff[2] = 0xA6;
    298a:	86 ea       	ldi	r24, 0xA6	; 166
    298c:	82 83       	std	Z+2, r24	; 0x02
					main_buff[3] = 0x00;
    298e:	13 82       	std	Z+3, r1	; 0x03
					send_frame(main_buff, 4);
    2990:	64 e0       	ldi	r22, 0x04	; 4
    2992:	cf 01       	movw	r24, r30
    2994:	0e 94 cd 12 	call	0x259a	; 0x259a <send_frame>
					break;
    2998:	ef c0       	rjmp	.+478    	; 0x2b78 <deassemble_frame+0x53a>
				}
				case 0xA6: //Write code
				{
					device = exchange[3];
    299a:	e0 91 23 02 	lds	r30, 0x0223	; 0x800223 <exchange+0x3>
    299e:	e0 93 cd 02 	sts	0x02CD, r30	; 0x8002cd <device>
					switch(device)
    29a2:	8e 2f       	mov	r24, r30
    29a4:	90 e0       	ldi	r25, 0x00	; 0
    29a6:	fc 01       	movw	r30, r24
    29a8:	31 97       	sbiw	r30, 0x01	; 1
    29aa:	e7 30       	cpi	r30, 0x07	; 7
    29ac:	f1 05       	cpc	r31, r1
    29ae:	c0 f4       	brcc	.+48     	; 0x29e0 <deassemble_frame+0x3a2>
    29b0:	e5 57       	subi	r30, 0x75	; 117
    29b2:	ff 4f       	sbci	r31, 0xFF	; 255
    29b4:	0c 94 e4 15 	jmp	0x2bc8	; 0x2bc8 <__tablejump2__>
						{
							case 0x01: { p16f7x_progCode(); break; }
    29b8:	0e 94 c9 0b 	call	0x1792	; 0x1792 <p16f7x_progCode>
    29bc:	11 c0       	rjmp	.+34     	; 0x29e0 <deassemble_frame+0x3a2>
							case 0x02: { p16f628a_progCode(); break; }
    29be:	0e 94 09 0c 	call	0x1812	; 0x1812 <p16f628a_progCode>
    29c2:	0e c0       	rjmp	.+28     	; 0x29e0 <deassemble_frame+0x3a2>
							case 0x03: { p18fx5xx_progCode(); break; }
    29c4:	0e 94 fb 0c 	call	0x19f6	; 0x19f6 <p18fx5xx_progCode>
    29c8:	0b c0       	rjmp	.+22     	; 0x29e0 <deassemble_frame+0x3a2>
							case 0x04: { p16f84a_progCode(); break; }
    29ca:	0e 94 b9 0c 	call	0x1972	; 0x1972 <p16f84a_progCode>
    29ce:	08 c0       	rjmp	.+16     	; 0x29e0 <deassemble_frame+0x3a2>
							case 0x05: { p18fxxk80_progCode(); break; }
    29d0:	0e 94 d0 0d 	call	0x1ba0	; 0x1ba0 <p18fxxk80_progCode>
    29d4:	05 c0       	rjmp	.+10     	; 0x29e0 <deassemble_frame+0x3a2>
							case 0x06: { p16f676_progCode(); break; }
    29d6:	0e 94 43 0c 	call	0x1886	; 0x1886 <p16f676_progCode>
    29da:	02 c0       	rjmp	.+4      	; 0x29e0 <deassemble_frame+0x3a2>
							case 0x07: { p16f676_progCode(); break; }
    29dc:	0e 94 43 0c 	call	0x1886	; 0x1886 <p16f676_progCode>
							default: break;
						}
					main_buff[0] = 0xFE;
    29e0:	e0 e2       	ldi	r30, 0x20	; 32
    29e2:	f1 e0       	ldi	r31, 0x01	; 1
    29e4:	8e ef       	ldi	r24, 0xFE	; 254
    29e6:	80 83       	st	Z, r24
					main_buff[1] = 0x01;
    29e8:	81 e0       	ldi	r24, 0x01	; 1
    29ea:	81 83       	std	Z+1, r24	; 0x01
					main_buff[2] = 0xA6;
    29ec:	86 ea       	ldi	r24, 0xA6	; 166
    29ee:	82 83       	std	Z+2, r24	; 0x02
					main_buff[3] = 0x00;
    29f0:	13 82       	std	Z+3, r1	; 0x03
					send_frame(main_buff, 4);
    29f2:	64 e0       	ldi	r22, 0x04	; 4
    29f4:	cf 01       	movw	r24, r30
    29f6:	0e 94 cd 12 	call	0x259a	; 0x259a <send_frame>
					break;
    29fa:	be c0       	rjmp	.+380    	; 0x2b78 <deassemble_frame+0x53a>
				}
				case 0xA7: //Prepare to write eeprom
				{
					device = exchange[3];
    29fc:	80 91 23 02 	lds	r24, 0x0223	; 0x800223 <exchange+0x3>
    2a00:	80 93 cd 02 	sts	0x02CD, r24	; 0x8002cd <device>
					switch(device)
    2a04:	84 30       	cpi	r24, 0x04	; 4
    2a06:	c1 f0       	breq	.+48     	; 0x2a38 <deassemble_frame+0x3fa>
    2a08:	28 f4       	brcc	.+10     	; 0x2a14 <deassemble_frame+0x3d6>
    2a0a:	82 30       	cpi	r24, 0x02	; 2
    2a0c:	49 f0       	breq	.+18     	; 0x2a20 <deassemble_frame+0x3e2>
    2a0e:	83 30       	cpi	r24, 0x03	; 3
    2a10:	51 f0       	breq	.+20     	; 0x2a26 <deassemble_frame+0x3e8>
    2a12:	23 c0       	rjmp	.+70     	; 0x2a5a <deassemble_frame+0x41c>
    2a14:	86 30       	cpi	r24, 0x06	; 6
    2a16:	e1 f0       	breq	.+56     	; 0x2a50 <deassemble_frame+0x412>
    2a18:	90 f0       	brcs	.+36     	; 0x2a3e <deassemble_frame+0x400>
    2a1a:	87 30       	cpi	r24, 0x07	; 7
    2a1c:	e1 f0       	breq	.+56     	; 0x2a56 <deassemble_frame+0x418>
    2a1e:	1d c0       	rjmp	.+58     	; 0x2a5a <deassemble_frame+0x41c>
						{
							case 0x02: { p16f628A_progMode(); break; }
    2a20:	0e 94 4c 01 	call	0x298	; 0x298 <p16f628A_progMode>
    2a24:	1a c0       	rjmp	.+52     	; 0x2a5a <deassemble_frame+0x41c>
							case 0x03: { main_counter = 0; break; }
    2a26:	10 92 bc 02 	sts	0x02BC, r1	; 0x8002bc <main_counter>
    2a2a:	10 92 bd 02 	sts	0x02BD, r1	; 0x8002bd <main_counter+0x1>
    2a2e:	10 92 be 02 	sts	0x02BE, r1	; 0x8002be <main_counter+0x2>
    2a32:	10 92 bf 02 	sts	0x02BF, r1	; 0x8002bf <main_counter+0x3>
    2a36:	11 c0       	rjmp	.+34     	; 0x2a5a <deassemble_frame+0x41c>
							case 0x04: { p16f628A_progMode(); break; }
    2a38:	0e 94 4c 01 	call	0x298	; 0x298 <p16f628A_progMode>
    2a3c:	0e c0       	rjmp	.+28     	; 0x2a5a <deassemble_frame+0x41c>
							case 0x05: { main_counter = 0; break; }
    2a3e:	10 92 bc 02 	sts	0x02BC, r1	; 0x8002bc <main_counter>
    2a42:	10 92 bd 02 	sts	0x02BD, r1	; 0x8002bd <main_counter+0x1>
    2a46:	10 92 be 02 	sts	0x02BE, r1	; 0x8002be <main_counter+0x2>
    2a4a:	10 92 bf 02 	sts	0x02BF, r1	; 0x8002bf <main_counter+0x3>
    2a4e:	05 c0       	rjmp	.+10     	; 0x2a5a <deassemble_frame+0x41c>
							case 0x06: { p16f628A_progMode(); break; }
    2a50:	0e 94 4c 01 	call	0x298	; 0x298 <p16f628A_progMode>
    2a54:	02 c0       	rjmp	.+4      	; 0x2a5a <deassemble_frame+0x41c>
							case 0x07: { p16f7x_progMode(); break; }
    2a56:	0e 94 32 01 	call	0x264	; 0x264 <p16f7x_progMode>
							default: break;
						}

					main_buff[0] = 0xFE;
    2a5a:	e0 e2       	ldi	r30, 0x20	; 32
    2a5c:	f1 e0       	ldi	r31, 0x01	; 1
    2a5e:	8e ef       	ldi	r24, 0xFE	; 254
    2a60:	80 83       	st	Z, r24
					main_buff[1] = 0x01;
    2a62:	81 e0       	ldi	r24, 0x01	; 1
    2a64:	81 83       	std	Z+1, r24	; 0x01
					main_buff[2] = 0xA8;
    2a66:	88 ea       	ldi	r24, 0xA8	; 168
    2a68:	82 83       	std	Z+2, r24	; 0x02
					main_buff[3] = 0x00;
    2a6a:	13 82       	std	Z+3, r1	; 0x03
					send_frame(main_buff, 4);
    2a6c:	64 e0       	ldi	r22, 0x04	; 4
    2a6e:	cf 01       	movw	r24, r30
    2a70:	0e 94 cd 12 	call	0x259a	; 0x259a <send_frame>

					break;
    2a74:	81 c0       	rjmp	.+258    	; 0x2b78 <deassemble_frame+0x53a>
				}
				case 0xA8: //Write eeprom
				{
					device = exchange[3];
    2a76:	80 91 23 02 	lds	r24, 0x0223	; 0x800223 <exchange+0x3>
    2a7a:	80 93 cd 02 	sts	0x02CD, r24	; 0x8002cd <device>
					switch(device)
    2a7e:	84 30       	cpi	r24, 0x04	; 4
    2a80:	91 f0       	breq	.+36     	; 0x2aa6 <deassemble_frame+0x468>
    2a82:	28 f4       	brcc	.+10     	; 0x2a8e <deassemble_frame+0x450>
    2a84:	82 30       	cpi	r24, 0x02	; 2
    2a86:	49 f0       	breq	.+18     	; 0x2a9a <deassemble_frame+0x45c>
    2a88:	83 30       	cpi	r24, 0x03	; 3
    2a8a:	51 f0       	breq	.+20     	; 0x2aa0 <deassemble_frame+0x462>
    2a8c:	17 c0       	rjmp	.+46     	; 0x2abc <deassemble_frame+0x47e>
    2a8e:	86 30       	cpi	r24, 0x06	; 6
    2a90:	81 f0       	breq	.+32     	; 0x2ab2 <deassemble_frame+0x474>
    2a92:	60 f0       	brcs	.+24     	; 0x2aac <deassemble_frame+0x46e>
    2a94:	87 30       	cpi	r24, 0x07	; 7
    2a96:	81 f0       	breq	.+32     	; 0x2ab8 <deassemble_frame+0x47a>
    2a98:	11 c0       	rjmp	.+34     	; 0x2abc <deassemble_frame+0x47e>
						{
							case 0x02: { p16f628a_progData(); break; }
    2a9a:	0e 94 b0 0e 	call	0x1d60	; 0x1d60 <p16f628a_progData>
    2a9e:	0e c0       	rjmp	.+28     	; 0x2abc <deassemble_frame+0x47e>
							case 0x03: { p18fx5xx_progData(); break; }
    2aa0:	0e 94 e2 0e 	call	0x1dc4	; 0x1dc4 <p18fx5xx_progData>
    2aa4:	0b c0       	rjmp	.+22     	; 0x2abc <deassemble_frame+0x47e>
							case 0x04: { p16f628a_progData(); break; }
    2aa6:	0e 94 b0 0e 	call	0x1d60	; 0x1d60 <p16f628a_progData>
    2aaa:	08 c0       	rjmp	.+16     	; 0x2abc <deassemble_frame+0x47e>
							case 0x05: { p18fxxk80_progData(); break; }
    2aac:	0e 94 99 0f 	call	0x1f32	; 0x1f32 <p18fxxk80_progData>
    2ab0:	05 c0       	rjmp	.+10     	; 0x2abc <deassemble_frame+0x47e>
							case 0x06: { p16f628a_progData(); break; }
    2ab2:	0e 94 b0 0e 	call	0x1d60	; 0x1d60 <p16f628a_progData>
    2ab6:	02 c0       	rjmp	.+4      	; 0x2abc <deassemble_frame+0x47e>
							case 0x07: { p16f628a_progData(); break; }
    2ab8:	0e 94 b0 0e 	call	0x1d60	; 0x1d60 <p16f628a_progData>
							default: break;
						}
					main_buff[0] = 0xFE;
    2abc:	e0 e2       	ldi	r30, 0x20	; 32
    2abe:	f1 e0       	ldi	r31, 0x01	; 1
    2ac0:	8e ef       	ldi	r24, 0xFE	; 254
    2ac2:	80 83       	st	Z, r24
					main_buff[1] = 0x01;
    2ac4:	81 e0       	ldi	r24, 0x01	; 1
    2ac6:	81 83       	std	Z+1, r24	; 0x01
					main_buff[2] = 0xA8;
    2ac8:	88 ea       	ldi	r24, 0xA8	; 168
    2aca:	82 83       	std	Z+2, r24	; 0x02
					main_buff[3] = 0x00;
    2acc:	13 82       	std	Z+3, r1	; 0x03
					send_frame(main_buff, 4);
    2ace:	64 e0       	ldi	r22, 0x04	; 4
    2ad0:	cf 01       	movw	r24, r30
    2ad2:	0e 94 cd 12 	call	0x259a	; 0x259a <send_frame>
					break;
    2ad6:	50 c0       	rjmp	.+160    	; 0x2b78 <deassemble_frame+0x53a>
				}
				//Read Oscal
				case 0xAB:
				{
					device = exchange[3];
    2ad8:	e0 e2       	ldi	r30, 0x20	; 32
    2ada:	f2 e0       	ldi	r31, 0x02	; 2
    2adc:	83 81       	ldd	r24, Z+3	; 0x03
    2ade:	80 93 cd 02 	sts	0x02CD, r24	; 0x8002cd <device>
					osc_start = exchange[4];
    2ae2:	94 81       	ldd	r25, Z+4	; 0x04
    2ae4:	90 93 cb 02 	sts	0x02CB, r25	; 0x8002cb <osc_start>
					switch(device)
    2ae8:	86 30       	cpi	r24, 0x06	; 6
    2aea:	19 f0       	breq	.+6      	; 0x2af2 <deassemble_frame+0x4b4>
    2aec:	87 30       	cpi	r24, 0x07	; 7
    2aee:	21 f0       	breq	.+8      	; 0x2af8 <deassemble_frame+0x4ba>
    2af0:	43 c0       	rjmp	.+134    	; 0x2b78 <deassemble_frame+0x53a>
						{
							case 0x06: { p16f676_readOscall(); break; }
    2af2:	0e 94 56 10 	call	0x20ac	; 0x20ac <p16f676_readOscall>
    2af6:	40 c0       	rjmp	.+128    	; 0x2b78 <deassemble_frame+0x53a>
							case 0x07: { p12f1840_readOscall(); break; }
    2af8:	0e 94 7c 10 	call	0x20f8	; 0x20f8 <p12f1840_readOscall>
    2afc:	3d c0       	rjmp	.+122    	; 0x2b78 <deassemble_frame+0x53a>
					break;
				}
				//Write Oscal
				case 0xAC:
				{
					device = exchange[3];
    2afe:	e0 e2       	ldi	r30, 0x20	; 32
    2b00:	f2 e0       	ldi	r31, 0x02	; 2
    2b02:	83 81       	ldd	r24, Z+3	; 0x03
    2b04:	80 93 cd 02 	sts	0x02CD, r24	; 0x8002cd <device>
					osc_start = exchange[10];
    2b08:	92 85       	ldd	r25, Z+10	; 0x0a
    2b0a:	90 93 cb 02 	sts	0x02CB, r25	; 0x8002cb <osc_start>
					osc_cnt = exchange[11];
    2b0e:	93 85       	ldd	r25, Z+11	; 0x0b
    2b10:	90 93 ca 02 	sts	0x02CA, r25	; 0x8002ca <osc_cnt>

					switch(device)
    2b14:	86 30       	cpi	r24, 0x06	; 6
    2b16:	19 f0       	breq	.+6      	; 0x2b1e <deassemble_frame+0x4e0>
    2b18:	87 30       	cpi	r24, 0x07	; 7
    2b1a:	21 f0       	breq	.+8      	; 0x2b24 <deassemble_frame+0x4e6>
    2b1c:	05 c0       	rjmp	.+10     	; 0x2b28 <deassemble_frame+0x4ea>
						{
							case 0x06: { p16f676_writeOscall(); break; }
    2b1e:	0e 94 dd 10 	call	0x21ba	; 0x21ba <p16f676_writeOscall>
    2b22:	02 c0       	rjmp	.+4      	; 0x2b28 <deassemble_frame+0x4ea>
							case 0x07: { p12f1840_writeOscall(); break; }
    2b24:	0e 94 16 11 	call	0x222c	; 0x222c <p12f1840_writeOscall>
							default: break;
						}

					main_buff[0] = 0xFE;
    2b28:	e0 e2       	ldi	r30, 0x20	; 32
    2b2a:	f1 e0       	ldi	r31, 0x01	; 1
    2b2c:	8e ef       	ldi	r24, 0xFE	; 254
    2b2e:	80 83       	st	Z, r24
					main_buff[1] = 0x01;
    2b30:	81 e0       	ldi	r24, 0x01	; 1
    2b32:	81 83       	std	Z+1, r24	; 0x01
					main_buff[2] = 0xAC;
    2b34:	8c ea       	ldi	r24, 0xAC	; 172
    2b36:	82 83       	std	Z+2, r24	; 0x02
					main_buff[3] = 0x00;
    2b38:	13 82       	std	Z+3, r1	; 0x03
					send_frame(main_buff, 4);
    2b3a:	64 e0       	ldi	r22, 0x04	; 4
    2b3c:	cf 01       	movw	r24, r30
    2b3e:	0e 94 cd 12 	call	0x259a	; 0x259a <send_frame>
					break;
    2b42:	1a c0       	rjmp	.+52     	; 0x2b78 <deassemble_frame+0x53a>
				}
				case 0xAF:
				{
					device = exchange[3];
    2b44:	80 91 23 02 	lds	r24, 0x0223	; 0x800223 <exchange+0x3>
    2b48:	80 93 cd 02 	sts	0x02CD, r24	; 0x8002cd <device>
					switch(device)
    2b4c:	82 30       	cpi	r24, 0x02	; 2
    2b4e:	61 f0       	breq	.+24     	; 0x2b68 <deassemble_frame+0x52a>
    2b50:	18 f4       	brcc	.+6      	; 0x2b58 <deassemble_frame+0x51a>
    2b52:	81 30       	cpi	r24, 0x01	; 1
    2b54:	31 f0       	breq	.+12     	; 0x2b62 <deassemble_frame+0x524>
    2b56:	10 c0       	rjmp	.+32     	; 0x2b78 <deassemble_frame+0x53a>
    2b58:	84 30       	cpi	r24, 0x04	; 4
    2b5a:	49 f0       	breq	.+18     	; 0x2b6e <deassemble_frame+0x530>
    2b5c:	87 30       	cpi	r24, 0x07	; 7
    2b5e:	51 f0       	breq	.+20     	; 0x2b74 <deassemble_frame+0x536>
    2b60:	0b c0       	rjmp	.+22     	; 0x2b78 <deassemble_frame+0x53a>
						{
							case 0x01: { p16f7x_reset(); break; }
    2b62:	0e 94 d1 03 	call	0x7a2	; 0x7a2 <p16f7x_reset>
    2b66:	08 c0       	rjmp	.+16     	; 0x2b78 <deassemble_frame+0x53a>
							case 0x02: { p16f7x_reset(); break; }
    2b68:	0e 94 d1 03 	call	0x7a2	; 0x7a2 <p16f7x_reset>
    2b6c:	05 c0       	rjmp	.+10     	; 0x2b78 <deassemble_frame+0x53a>
							case 0x03: { break; }
							case 0x04: { p16f7x_reset(); break; }
    2b6e:	0e 94 d1 03 	call	0x7a2	; 0x7a2 <p16f7x_reset>
    2b72:	02 c0       	rjmp	.+4      	; 0x2b78 <deassemble_frame+0x53a>
							case 0x07: { p16f7x_reset(); break; }
    2b74:	0e 94 d1 03 	call	0x7a2	; 0x7a2 <p16f7x_reset>
		default:
		{
			break;
		}
	}
}
    2b78:	df 91       	pop	r29
    2b7a:	cf 91       	pop	r28
    2b7c:	08 95       	ret

00002b7e <usart_init>:

void usart_init(void)
{
	uint16_t divider = CPU_CLOCK/(16 * BAUDE) - 1;
	
	UCSR0A = 0x00;
    2b7e:	10 92 c0 00 	sts	0x00C0, r1	; 0x8000c0 <__TEXT_REGION_LENGTH__+0x7e00c0>
	//UCSR0B = 0x00;
	UCSR0B = (1<<RXEN0)|(1<<TXEN0)|(1<<RXCIE0);
    2b82:	88 e9       	ldi	r24, 0x98	; 152
    2b84:	80 93 c1 00 	sts	0x00C1, r24	; 0x8000c1 <__TEXT_REGION_LENGTH__+0x7e00c1>
	UCSR0C = ((1 << UCSZ00) | (1 << UCSZ01));
    2b88:	86 e0       	ldi	r24, 0x06	; 6
    2b8a:	80 93 c2 00 	sts	0x00C2, r24	; 0x8000c2 <__TEXT_REGION_LENGTH__+0x7e00c2>

	UBRR0H = ((divider>>8) & 0xFF);
    2b8e:	10 92 c5 00 	sts	0x00C5, r1	; 0x8000c5 <__TEXT_REGION_LENGTH__+0x7e00c5>
	UBRR0L = (divider & 0xFF);
    2b92:	80 e1       	ldi	r24, 0x10	; 16
    2b94:	80 93 c4 00 	sts	0x00C4, r24	; 0x8000c4 <__TEXT_REGION_LENGTH__+0x7e00c4>
    2b98:	08 95       	ret

00002b9a <USARTSend_char>:

}

void USARTSend_char(uint8_t data)
{
	while(!(UCSR0A & (1<<UDRE0)));
    2b9a:	e0 ec       	ldi	r30, 0xC0	; 192
    2b9c:	f0 e0       	ldi	r31, 0x00	; 0
    2b9e:	90 81       	ld	r25, Z
    2ba0:	95 ff       	sbrs	r25, 5
    2ba2:	fd cf       	rjmp	.-6      	; 0x2b9e <USARTSend_char+0x4>
	UDR0 = data;
    2ba4:	80 93 c6 00 	sts	0x00C6, r24	; 0x8000c6 <__TEXT_REGION_LENGTH__+0x7e00c6>
    2ba8:	08 95       	ret

00002baa <usart_sendString>:
}

void usart_sendString(uint8_t* str)
{
    2baa:	cf 93       	push	r28
    2bac:	df 93       	push	r29
    2bae:	ec 01       	movw	r28, r24
	int chr = 0;
	while(str[chr]!=0)
    2bb0:	88 81       	ld	r24, Y
    2bb2:	88 23       	and	r24, r24
    2bb4:	31 f0       	breq	.+12     	; 0x2bc2 <usart_sendString+0x18>
    2bb6:	21 96       	adiw	r28, 0x01	; 1
	{
		USARTSend_char(str[chr]);
    2bb8:	0e 94 cd 15 	call	0x2b9a	; 0x2b9a <USARTSend_char>
}

void usart_sendString(uint8_t* str)
{
	int chr = 0;
	while(str[chr]!=0)
    2bbc:	89 91       	ld	r24, Y+
    2bbe:	81 11       	cpse	r24, r1
    2bc0:	fb cf       	rjmp	.-10     	; 0x2bb8 <usart_sendString+0xe>
	{
		USARTSend_char(str[chr]);
		chr++;
	}
}
    2bc2:	df 91       	pop	r29
    2bc4:	cf 91       	pop	r28
    2bc6:	08 95       	ret

00002bc8 <__tablejump2__>:
    2bc8:	ee 0f       	add	r30, r30
    2bca:	ff 1f       	adc	r31, r31
    2bcc:	05 90       	lpm	r0, Z+
    2bce:	f4 91       	lpm	r31, Z
    2bd0:	e0 2d       	mov	r30, r0
    2bd2:	09 94       	ijmp

00002bd4 <_exit>:
    2bd4:	f8 94       	cli

00002bd6 <__stop_program>:
    2bd6:	ff cf       	rjmp	.-2      	; 0x2bd6 <__stop_program>
